
FFT_Accelerator.elf:     file format elf32-littlearm
FFT_Accelerator.elf
architecture: armv7, flags 0x00000112:
EXEC_P, HAS_SYMS, D_PAGED
start address 0x20000191

Program Header:
    LOAD off    0x00010000 vaddr 0x20000000 paddr 0x20000000 align 2**16
         filesz 0x000050d0 memsz 0x00010000 flags rwx
private flags = 5000200: [Version5 EABI] [soft-float ABI]

Sections:
Idx Name            Size      VMA       LMA       File off  Algn  Flags
  0 .vector_table   00000190  20000000  20000000  00010000  2**4  CONTENTS, ALLOC, LOAD, READONLY, CODE
  1 .boot_code      00000320  20000190  20000190  00010190  2**4  CONTENTS, ALLOC, LOAD, READONLY, CODE
  2 .text           00004580  200004b0  200004b0  000104b0  2**4  CONTENTS, ALLOC, LOAD, READONLY, CODE
  3 .data           000006a0  20004a30  20004a30  00014a30  2**4  CONTENTS, ALLOC, LOAD, DATA
  4 .bss            00003120  200050d0  200050d0  000150d0  2**4  ALLOC
  5 .heap           00006e10  200081f0  200081f0  000150d0  2**4  ALLOC
  6 .stack          00001000  2000f000  2000f000  000150d0  2**4  ALLOC
  7 .debug_aranges  00000748  00000000  00000000  000150d0  2**3  CONTENTS, READONLY, DEBUGGING
  8 .debug_info     0000b5b2  00000000  00000000  00015818  2**0  CONTENTS, READONLY, DEBUGGING
  9 .debug_abbrev   00001a99  00000000  00000000  00020dca  2**0  CONTENTS, READONLY, DEBUGGING
 10 .debug_line     00005c8b  00000000  00000000  00022863  2**0  CONTENTS, READONLY, DEBUGGING
 11 .debug_frame    000020d4  00000000  00000000  000284f0  2**2  CONTENTS, READONLY, DEBUGGING
 12 .debug_str      00018c79  00000000  00000000  0002a5c4  2**0  CONTENTS, READONLY, DEBUGGING
 13 .ARM.attributes 00000029  00000000  00000000  0004323d  2**0  CONTENTS, READONLY
 14 .debug_ranges   000006d8  00000000  00000000  00043266  2**0  CONTENTS, READONLY, DEBUGGING
 15 .debug_macro    0000601d  00000000  00000000  0004393e  2**0  CONTENTS, READONLY, DEBUGGING
 16 .comment        00000068  00000000  00000000  0004995b  2**0  CONTENTS, READONLY
SYMBOL TABLE:
20000000 l    d  .vector_table	00000000 .vector_table
20000190 l    d  .boot_code	00000000 .boot_code
200004b0 l    d  .text	00000000 .text
20004a30 l    d  .data	00000000 .data
200050d0 l    d  .bss	00000000 .bss
200081f0 l    d  .heap	00000000 .heap
2000f000 l    d  .stack	00000000 .stack
00000000 l    d  .debug_aranges	00000000 .debug_aranges
00000000 l    d  .debug_info	00000000 .debug_info
00000000 l    d  .debug_abbrev	00000000 .debug_abbrev
00000000 l    d  .debug_line	00000000 .debug_line
00000000 l    d  .debug_frame	00000000 .debug_frame
00000000 l    d  .debug_str	00000000 .debug_str
00000000 l    d  .ARM.attributes	00000000 .ARM.attributes
00000000 l    d  .debug_ranges	00000000 .debug_ranges
00000000 l    d  .debug_macro	00000000 .debug_macro
00000000 l    d  .comment	00000000 .comment
00000000 l    df *ABS*	00000000 ./firmware/CMSIS/startup_gcc/startup_m2sxxx.o
20000190 l       .boot_code	00000000 _start
20000456 l       .boot_code	00000000 SF2_MDDR_MODE_CR
20000452 l       .boot_code	00000000 SF2_EDAC_CR
200001b0 l       .boot_code	00000000 check_esram_edac
200001b8 l       .boot_code	00000000 check_stack_init
200001ca l       .boot_code	00000000 system_init
200001be l       .boot_code	00000000 clear_stack
20000436 l       .boot_code	00000000 RAM_INIT_PATTERN
20000308 l       .boot_code	00000000 fill_memory
200001f2 l       .boot_code	00000000 remap_memory
2000044a l       .boot_code	00000000 SF2_DDRB_NB_SIZE
2000044e l       .boot_code	00000000 SF2_DDRB_CR
20000212 l       .boot_code	00000000 check_esram_remap
2000043e l       .boot_code	00000000 SF2_ESRAM_CR
20000446 l       .boot_code	00000000 SF2_ENVM_REMAP_CR
20000442 l       .boot_code	00000000 SF2_DDR_CR
20000228 l       .boot_code	00000000 check_mirrored_nvm
20000242 l       .boot_code	00000000 copy_data
20000298 l       .boot_code	00000000 block_copy
20000238 l       .boot_code	00000000 copy_text
2000024c l       .boot_code	00000000 clear_bss
20000258 l       .boot_code	00000000 clear_heap
20000280 l       .boot_code	00000000 call_glob_ctor
2000043a l       .boot_code	00000000 HEAP_INIT_PATTERN
2000028a l       .boot_code	00000000 branch_to_main
20000296 l       .boot_code	00000000 ExitLoop
200002ec l       .boot_code	00000000 block_copy_exit
200002a8 l       .boot_code	00000000 block_copy_address_ok
200002b8 l       .boot_code	00000000 block_copy_continue
200002b2 l       .boot_code	00000000 block_copy_byte_copy
200002f0 l       .boot_code	00000000 block_copy_byte
200002c2 l       .boot_code	00000000 block_copy_loop
200002da l       .boot_code	00000000 copy_spare_bytes
200002f6 l       .boot_code	00000000 block_copy_byte_loop
2000037c l       .boot_code	00000000 fill_memory_exit
2000033e l       .boot_code	00000000 fill_memory_end_start
2000032a l       .boot_code	00000000 fill_memory_spare_bytes_start
20000362 l       .boot_code	00000000 fill_memory_spare_bytes_end
20000354 l       .boot_code	00000000 fill_memory_loop
20000366 l       .boot_code	00000000 fill_memory_spare_end_loop
00000000 l    df *ABS*	00000000 crtstuff.c
20004a0c l     O .text	00000000 __EH_FRAME_BEGIN__
200004b0 l     F .text	00000000 deregister_tm_clones
200004cc l     F .text	00000000 register_tm_clones
200004f0 l     F .text	00000000 __do_global_dtors_aux
200050d0 l     O .bss	00000000 completed.6707
20004a28 l     O .text	00000000 __do_global_dtors_aux_fini_array_entry
20000518 l     F .text	00000000 frame_dummy
200050d4 l     O .bss	00000000 object.6712
20004a24 l     O .text	00000000 __frame_dummy_init_array_entry
00000000 l    df *ABS*	00000000 ARP_protocol.c
00000000 l    df *ABS*	00000000 FFT_apb.c
00000000 l    df *ABS*	00000000 VSC8541_01_phy.c
200050ec l     O .bss	00000001 g_phy_addr
00000000 l    df *ABS*	00000000 main.c
20000bb8 l     F .text	00000030 NVIC_EnableIRQ
20000be8 l     F .text	00000034 NVIC_DisableIRQ
20000c1c l     F .text	00000034 NVIC_ClearPendingIRQ
20000c50 l     F .text	00000018 MSS_GPIO_get_inputs
200046cc l     O .text	00000004 my_ip
20004a5c l     O .data	000005ea g_mac_tx_buffer
200050f8 l     O .bss	000005ea g_mac_rx_buffer_0
200056e4 l     O .bss	000005ea g_mac_rx_buffer_1
20005cd0 l     O .bss	000005ea g_mac_rx_buffer_2
200062bc l     O .bss	000005ea g_mac_rx_buffer_3
200068a8 l     O .bss	000005ea g_mac_rx_buffer_4
20006e94 l     O .bss	000005ea g_mac_rx_buffer_5
20007480 l     O .bss	000005ea g_mac_rx_buffer_6
20007a6c l     O .bss	000005ea g_mac_rx_buffer_7
20005048 l     O .data	00000004 g_mac_tx_buffer_used
20008058 l     O .bss	00000004 tx_buffer.8210
00000000 l    df *ABS*	00000000 ./firmware/hal/CortexM3/GNU/hw_reg_access.o
00000000 l    df *ABS*	00000000 mss_uart.c
20001690 l     F .text	00000030 NVIC_EnableIRQ
200016c0 l     F .text	00000034 NVIC_ClearPendingIRQ
200016f4 l     F .text	0000003a set_bit_reg8
2000172e l     F .text	0000003a clear_bit_reg8
20001768 l     F .text	00000038 read_bit_reg8
20001c60 l     F .text	000001d8 global_init
20002040 l     F .text	000000e8 default_tx_handler
20001e38 l     F .text	00000208 MSS_UART_isr
20001b14 l     F .text	0000014c config_baud_divisors
00000000 l    df *ABS*	00000000 mss_comblk.c
2000805c l     O .bss	00000001 g_comblk_cmd_opcode
20008060 l     O .bss	00000004 g_comblk_p_cmd
20008064 l     O .bss	00000002 g_comblk_cmd_size
20008068 l     O .bss	00000004 g_comblk_p_data
2000806c l     O .bss	00000004 g_comblk_data_size
20008070 l     O .bss	00000004 g_comblk_p_response
20008074 l     O .bss	00000002 g_comblk_response_size
20008076 l     O .bss	00000002 g_comblk_response_idx
20008078 l     O .bss	00000004 g_comblk_completion_handler
2000807c l     O .bss	00000004 g_comblk_page_handler
20008080 l     O .bss	00000001 g_request_in_progress
20008081 l     O .bss	00000001 g_comblk_state
20008084 l     O .bss	00000004 g_async_event_handler
2000256c l     F .text	0000004c abort_current_cmd
200025b8 l     F .text	00000060 fill_tx_fifo
2000231c l     F .text	00000210 handle_rx_okay_irq
20002170 l     F .text	000001ac handle_tx_okay_irq
2000252c l     F .text	00000040 complete_request
20002618 l     F .text	00000028 process_sys_ctrl_command
00000000 l    df *ABS*	00000000 mss_hpdma.c
20008088 l     O .bss	00000018 g_transfer
200080a0 l     O .bss	00000004 g_hpdma_end_desc
200080a4 l     O .bss	00000004 g_hpdma_current_desc
20002640 l     F .text	00000154 start_transfer
00000000 l    df *ABS*	00000000 mss_gpio.c
2000298c l     F .text	00000030 NVIC_EnableIRQ
200029bc l     F .text	00000034 NVIC_DisableIRQ
200029f0 l     F .text	00000034 NVIC_ClearPendingIRQ
200048f8 l     O .text	00000080 g_config_reg_lut
20004978 l     O .text	00000020 g_gpio_irqn_lut
00000000 l    df *ABS*	00000000 mss_ethernet_mac.c
20002b68 l     F .text	00000030 NVIC_EnableIRQ
20002b98 l     F .text	00000034 NVIC_DisableIRQ
20002bcc l     F .text	00000034 NVIC_ClearPendingIRQ
20002c00 l     F .text	0000003a set_bit_reg32
20002c3a l     F .text	0000003a clear_bit_reg32
20002c74 l     F .text	00000038 read_bit_reg32
200080a8 l     O .bss	00000068 g_mac
20002f9c l     F .text	00000064 mac_reset
20003000 l     F .text	00000358 config_mac_hw
20003a28 l     F .text	0000007c assign_station_addr
200038e0 l     F .text	000000a0 tx_desc_ring_init
20003980 l     F .text	000000a8 rx_desc_ring_init
20003aa4 l     F .text	00000052 probe_phy
20002dcc l     F .text	000000dc update_mac_cfg
20004998 l     O .text	00000006 g_default_mac_address.6394
200037f4 l     F .text	000000ec txpkt_handler
20003738 l     F .text	000000bc rxpkt_handler
00000000 l    df *ABS*	00000000 newlib_stubs.c
20008110 l     O .bss	00000004 heap_end.5467
00000000 l    df *ABS*	00000000 system_m2sxxx.c
20003db0 l     F .text	00000022 silicon_workarounds
20003cd0 l     F .text	0000003c get_rcosc_25_50mhz_frequency
20003d0c l     F .text	0000005c set_clock_frequency_globals
20003d68 l     F .text	00000048 get_silicon_revision
20003dd4 l     F .text	00000030 m2s050_rev_a_workarounds
00000000 l    df *ABS*	00000000 init.c
00000000 l    df *ABS*	00000000 memcpy-stub.c
00000000 l    df *ABS*	00000000 snprintf.c
00000000 l    df *ABS*	00000000 nano-vfprintf.c
00000000 l    df *ABS*	00000000 nano-vfprintf_i.c
00000000 l    df *ABS*	00000000 memchr-stub.c
00000000 l    df *ABS*	00000000 memmove.c
00000000 l    df *ABS*	00000000 nano-mallocr.c
00000000 l    df *ABS*	00000000 nano-mallocr.c
00000000 l    df *ABS*	00000000 nano-mallocr.c
00000000 l    df *ABS*	00000000 sbrkr.c
00000000 l    df *ABS*	00000000 mlock.c
00000000 l    df *ABS*	00000000 nano-mallocr.c
00000000 l    df *ABS*	00000000 lock.c
00000000 l    df *ABS*	00000000 c:/microsemi/softconsole_v6.2/arm-none-eabi-gcc/bin/../lib/gcc/arm-none-eabi/8.2.1/thumb/v7-m/nofp/crti.o
00000000 l    df *ABS*	00000000 c:/microsemi/softconsole_v6.2/arm-none-eabi-gcc/bin/../lib/gcc/arm-none-eabi/8.2.1/thumb/v7-m/nofp/crtn.o
00000000 l    df *ABS*	00000000 impure.c
2000506c l     O .data	00000060 impure_data
00000000 l    df *ABS*	00000000 reent.c
00000000 l    df *ABS*	00000000 
20004a28 l       .text	00000000 __init_array_end
20004a24 l       .text	00000000 __preinit_array_end
20004a24 l       .text	00000000 __init_array_start
20004a24 l       .text	00000000 __preinit_array_start
200046b0 g     F .text	00000010 _malloc_usable_size_r
2000811c g     O .bss	0000000a ARP_stuff
20005058 g     O .data	00000004 g_FrequencyPCLK2
2000038a  w    F .boot_code	00000000 DebugMon_Handler
2000371c g     F .text	0000001c MSS_MAC_set_rx_callback
20005060 g     O .data	00000004 g_FrequencyFIC1
20000cc4 g     F .text	00000178 init_periph
20000398  w    F .boot_code	00000000 I2C0_IRQHandler
200003ec  w    F .boot_code	00000000 FabricIrq12_IRQHandler
200081e4 g     O .bss	00000001 __lock___atexit_recursive_mutex
20000000 g       *ABS*	00000000 __vector_table_load
20001104 g     F .text	000000b4 report_eth_status
20000380  w    F .boot_code	00000000 HardFault_Handler
200046a4 g     F .text	0000000c __malloc_unlock
200007b0 g     F .text	0000001a fft_init
20004a30 g       *ABS*	00000000 __data_load
2000038e  w    F .boot_code	00000000 SysTick_Handler
200081e5 g     O .bss	00000001 __lock___arc4random_mutex
200050f4 g     O .bss	00000001 data_rx_cnt
20001684 g     F .text	00000000 HW_get_8bit_reg_field
200044ac g     F .text	00000034 memmove
20004a30 g       *ABS*	00000000 _sidata
2000038c  w    F .boot_code	00000000 PendSV_Handler
20003e68 g     F .text	00000068 snprintf
2000037e  w    F .boot_code	00000000 NMI_Handler
20004a30 g       .text	00000000 __exidx_end
2000039e  w    F .boot_code	00000000 I2C1_IRQHandler
200011b8 g     F .text	00000084 report_mac_phy_reg
20001af0 g     F .text	00000024 UART1_IRQHandler
200003fe  w    F .boot_code	00000000 GPIO5_IRQHandler
20001980 g     F .text	000000a4 MSS_UART_enable_irq
200081e0 g     O .bss	00000004 errno
20004a30 g       .text	00000000 _etext
200050d0 g       .bss	00000000 _sbss
20001600 g     F .text	00000000 HW_set_32bit_reg
200003be  w    F .boot_code	00000000 PLL_LockLost_IRQHandler
20000fc0 g     F .text	00000106 eth_check_address
200004b0 g       .text	00000000 __text_start
20000894 g     F .text	00000034 fft_read_done
2000053c g     F .text	000000ec ARP_init
20000430  w    F .boot_code	00000000 GPIO30_IRQHandler
20001acc g     F .text	00000024 UART0_IRQHandler
200003cc  w    F .boot_code	00000000 MDDR_IOCalib_IRQHandler
20003e4c g     F .text	0000001c memcpy
2000040c  w    F .boot_code	00000000 GPIO12_IRQHandler
200050d0 g     O .data	00000000 .hidden __TMC_END__
20003f88 g     F .text	000001f0 _svfprintf_r
2000042c  w    F .boot_code	00000000 GPIO28_IRQHandler
20000424  w    F .boot_code	00000000 GPIO24_IRQHandler
2000039a  w    F .boot_code	00000000 I2C0_SMBAlert_IRQHandler
20000190 g       .vector_table	00000000 _evector_table
2000504c g     O .data	00000004 SystemCoreClock
20001668 g     F .text	00000000 HW_set_8bit_reg_field
200007e8 g     F .text	0000005c fft_load_smpl
20000386  w    F .boot_code	00000000 UsageFault_Handler
200009ac g     F .text	000000d4 MSS_MAC_phy_set_link_speed
20001a24 g     F .text	000000a8 MSS_UART_set_rx_handler
200003b2  w    F .boot_code	00000000 ENVM0_IRQHandler
20000400  w    F .boot_code	00000000 GPIO6_IRQHandler
00010000 g       *ABS*	00000000 RAM_SIZE
200050d0 g       .bss	00000000 __bss_start__
20000b04 g     F .text	000000b4 MSS_MAC_phy_get_link_status
00000000 g       *ABS*	00000000 __DYNAMIC
20004a30 g       .data	00000000 _sdata
20000396  w    F .boot_code	00000000 SPI1_IRQHandler
20004678 g     F .text	00000020 _sbrk_r
20000426  w    F .boot_code	00000000 GPIO25_IRQHandler
2000152c g     F .text	00000038 eth_arp_announce
200003f2  w    F .boot_code	00000000 FabricIrq15_IRQHandler
200007ca g     F .text	0000001e fft_get_status
20000ebc g     F .text	00000018 eth_tx_callback
200003f6  w    F .boot_code	00000000 GPIO1_IRQHandler
200003b0  w    F .boot_code	00000000 CAN_IRQHandler
20002ad4 g     F .text	00000058 MSS_GPIO_enable_irq
200003e8  w    F .boot_code	00000000 FabricIrq10_IRQHandler
20002794 g     F .text	000000f8 HPDMA_Complete_IRQHandler
20000416  w    F .boot_code	00000000 GPIO17_IRQHandler
20004a30 g       .text	00000000 __exidx_start
200081e6 g     O .bss	00000001 __lock___env_recursive_mutex
200081e7 g     O .bss	00000001 __lock___sinit_recursive_mutex
00001000 g       *ABS*	00000000 MAIN_STACK_SIZE
20001564 g     F .text	00000020 test_GPIO_high
2000462c g     F .text	0000004c _realloc_r
20003e04 g     F .text	00000048 __libc_init_array
200015b4 g     F .text	00000024 GPIO9_IRQHandler
200003c0  w    F .boot_code	00000000 CommSwitchError_IRQHandler
20003b1c g     F .text	0000009c _sbrk
20005064 g     O .data	00000004 g_FrequencyFIC64
20008128 g     O .bss	0000002c mac_config
20000422  w    F .boot_code	00000000 GPIO23_IRQHandler
20001340 g     F .text	00000098 read_fft_samples
20004a0c g     F .text	00000000 _init
200013d8 g     F .text	00000154 report_fft_status
20001660 g     F .text	00000000 HW_set_8bit_reg
20001664 g     F .text	00000000 HW_get_8bit_reg
2000042e  w    F .boot_code	00000000 GPIO29_IRQHandler
200003d8  w    F .boot_code	00000000 FabricIrq2_IRQHandler
20008154 g     O .bss	00000004 fft_fab
200081f0 g       .bss	00000000 _ebss
20000418  w    F .boot_code	00000000 GPIO18_IRQHandler
20000190 g     F .boot_code	00000000 Reset_Handler
20000000 g       .vector_table	00000000 __vector_table_vma_base_address
200003a0  w    F .boot_code	00000000 I2C1_SMBAlert_IRQHandler
2000040a  w    F .boot_code	00000000 GPIO11_IRQHandler
200081e8 g     O .bss	00000001 __lock___malloc_recursive_mutex
2000288c g     F .text	00000100 HPDMA_Error_IRQHandler
20001608 g     F .text	00000000 HW_set_32bit_reg_field
00001000 g       *ABS*	00000000 MIN_SIZE_HEAP
20002a24 g     F .text	00000078 MSS_GPIO_init
20008158 g     O .bss	00000004 smpl_pkt_0
00000000 g       *ABS*	00000000 __smartfusion2_memory_remap
20000390  w    F .boot_code	00000000 WdogWakeup_IRQHandler
20005050 g     O .data	00000004 g_FrequencyPCLK0
20003e68 g     F .text	00000068 sniprintf
20000628 g     F .text	000000c0 ARP_get_response
20003700 g     F .text	0000001c MSS_MAC_set_tx_callback
200046c2 g     F .text	00000002 __retarget_lock_release_recursive
20003ed0 g     F .text	000000b6 __ssputs_r
200003ba  w    F .boot_code	00000000 USB_DMA_IRQHandler
2000123c g     F .text	00000104 load_fft_samples
200003ae  w    F .boot_code	00000000 Timer2_IRQHandler
200003f8  w    F .boot_code	00000000 GPIO2_IRQHandler
20004490 g     F .text	0000001c memchr
200081f0 g       .bss	00000000 __bss_end__
200044e0 g     F .text	00000098 _free_r
200050f5 g     O .bss	00000001 fft_auto_done
200003ea  w    F .boot_code	00000000 FabricIrq11_IRQHandler
200081f0 g       .bss	00000000 __end
200015d8 g     F .text	0000000c FabricIrq0_IRQHandler
20000ed4 g     F .text	000000ec eth_rx_callback
20008160 g     O .bss	00000040 g_mss_uart1
200003bc  w    F .boot_code	00000000 PLL_Lock_IRQHandler
20000920 g     F .text	0000001e fft_get_abs_val_out
200036c0 g     F .text	00000040 EthernetMAC_IRQHandler
200050f6 g     O .bss	00000002 eth_tx_id
20001624 g     F .text	00000000 HW_get_32bit_reg_field
200050ed g     O .bss	00000001 port_check
200003c4  w    F .boot_code	00000000 DDR_IRQHandler
00000000 g       *ABS*	00000000 __mirrored_nvm
20003478 g     F .text	0000013c MSS_MAC_receive_pkt
200003b8  w    F .boot_code	00000000 USB_IRQHandler
2000505c g     O .data	00000004 g_FrequencyFIC0
200003ac  w    F .boot_code	00000000 Timer1_IRQHandler
20000000 g       .vector_table	00000000 __vector_table_start
200003fa  w    F .boot_code	00000000 GPIO3_IRQHandler
20004698 g     F .text	0000000c __malloc_lock
200003da  w    F .boot_code	00000000 FabricIrq3_IRQHandler
20000000 g       *ABS*	00000000 RAM_START_ADDRESS
20003358 g     F .text	00000064 MSS_MAC_write_phy_reg
20000844 g     F .text	0000001c fft_get_ctrl
200046c0 g     F .text	00000002 __retarget_lock_acquire_recursive
20000382  w    F .boot_code	00000000 MemManage_Handler
20000c68 g     F .text	0000005c main
20000388  w    F .boot_code	00000000 SVC_Handler
20010000 g       *ABS*	00000000 __main_stack_start
200004b0 g       *ABS*	00000000 __text_load
20004578 g     F .text	000000b4 _malloc_r
200081f0 g       .heap	00000000 __heap_start__
20000402  w    F .boot_code	00000000 GPIO7_IRQHandler
20001634 g     F .text	00000000 HW_get_16bit_reg
200081a0 g     O .bss	00000040 g_mss_uart0
20005054 g     O .data	00000004 g_FrequencyPCLK1
200006e8 g     F .text	000000c8 ARP_get_announce
2000815c g     O .bss	00000004 smpl_pkt_1
2000040e  w    F .boot_code	00000000 GPIO13_IRQHandler
20003bb8 g     F .text	00000020 SystemInit
20002a9c g     F .text	00000038 MSS_GPIO_config
20004a18 g     F .text	00000000 _fini
200035b4 g     F .text	0000010c MSS_MAC_send_pkt
200003e2  w    F .boot_code	00000000 FabricIrq7_IRQHandler
20001810 g     F .text	000000b4 MSS_UART_polled_tx_string
20000410  w    F .boot_code	00000000 GPIO14_IRQHandler
20003b00 g     F .text	0000001a _write_r
200003d2  w    F .boot_code	00000000 FIC64_IRQHandler
20001638 g     F .text	00000000 HW_set_16bit_reg_field
20000434  w    F .boot_code	00000000 mscc_post_hw_cfg_init
20004178 g     F .text	000000ec _printf_common
20005068 g     O .data	00000004 _impure_ptr
200003b4  w    F .boot_code	00000000 ENVM1_IRQHandler
200003c2  w    F .boot_code	00000000 CacheError_IRQHandler
20003f88 g     F .text	000001f0 _svfiprintf_r
20000860 g     F .text	00000034 fft_load_done
200003e0  w    F .boot_code	00000000 FabricIrq6_IRQHandler
2000041a  w    F .boot_code	00000000 GPIO19_IRQHandler
20001584 g     F .text	00000030 GPIO8_IRQHandler
200008fc g     F .text	00000024 fft_set_output_smpl
20000e98 g     F .text	00000024 uart0_rx_int_handler
200003e6  w    F .boot_code	00000000 FabricIrq9_IRQHandler
20000428  w    F .boot_code	00000000 GPIO26_IRQHandler
20000420  w    F .boot_code	00000000 GPIO22_IRQHandler
20010000 g       .stack	00000000 _estack
2000f000 g       .heap	00000000 _eheap
20000408  w    F .boot_code	00000000 GPIO10_IRQHandler
2000039c  w    F .boot_code	00000000 I2C0_SMBus_IRQHandler
200050f0 g     O .bss	00000004 eth_cmd_code
200050d0 g       .data	00000000 _edata
20000394  w    F .boot_code	00000000 SPI0_IRQHandler
200081f0 g       .bss	00000000 _end
2000041c  w    F .boot_code	00000000 GPIO20_IRQHandler
200015e4 g     F .text	0000001c FabricIrq1_IRQHandler
200081e9 g     O .bss	00000001 __lock___at_quick_exit_mutex
20000e3c g     F .text	0000005c do_eth_cmd_code
200003dc  w    F .boot_code	00000000 FabricIrq4_IRQHandler
200003f4  w    F .boot_code	00000000 GPIO0_IRQHandler
200003e4  w    F .boot_code	00000000 FabricIrq8_IRQHandler
20000000 g     O .vector_table	00000000 g_pfnVectors
200017a0 g     F .text	00000070 MSS_UART_init
20003bd8 g     F .text	000000f8 SystemCoreClockUpdate
20000a80 g     F .text	00000084 MSS_MAC_phy_autonegotiate
20004a30 g     O .data	0000002a arp_buffer
200003aa  w    F .boot_code	00000000 DMA_IRQHandler
200003ee  w    F .boot_code	00000000 FabricIrq13_IRQHandler
200033bc g     F .text	000000bc MSS_MAC_read_phy_reg
20001604 g     F .text	00000000 HW_get_32bit_reg
200008c8 g     F .text	00000034 fft_int_clr
20002ea8 g     F .text	000000f4 MSS_MAC_cfg_struct_def_init
20003af6 g     F .text	0000000a _exit
200010c6 g     F .text	0000003c eth_get_code
20001630 g     F .text	00000000 HW_set_16bit_reg
200003ce  w    F .boot_code	00000000 FAB_PLL_Lock_IRQHandler
20000384  w    F .boot_code	00000000 BusFault_Handler
200081ea g     O .bss	00000001 __lock___dd_hash_mutex
20002b2c g     F .text	0000003c MSS_GPIO_clear_irq
20000940 g     F .text	0000006c MSS_MAC_phy_init
200081eb g     O .bss	00000001 __lock___tz_mutex
20000392  w    F .boot_code	00000000 RTC_Wakeup_IRQHandler
20004264 g     F .text	0000022c _printf_i
20008118 g     O .bss	00000004 __malloc_sbrk_start
20002cac g     F .text	00000120 MSS_MAC_init
200018c4 g     F .text	000000bc MSS_UART_get_rx
20004a30 g       .data	00000000 __data_start
2000041e  w    F .boot_code	00000000 GPIO21_IRQHandler
20000432  w    F .boot_code	00000000 GPIO31_IRQHandler
20008114 g     O .bss	00000004 __malloc_free_list
200003de  w    F .boot_code	00000000 FabricIrq5_IRQHandler
2000f000 g       .stack	00000000 __stack_start__
200003ca  w    F .boot_code	00000000 ECC_Error_IRQHandler
20002128 g     F .text	00000048 ComBlk_IRQHandler
20001654 g     F .text	00000000 HW_get_16bit_reg_field
200003d0  w    F .boot_code	00000000 FAB_PLL_LockLost_IRQHandler
200003f0  w    F .boot_code	00000000 FabricIrq14_IRQHandler
200003a2  w    F .boot_code	00000000 I2C1_SMBus_IRQHandler
20000414  w    F .boot_code	00000000 GPIO16_IRQHandler
200003fc  w    F .boot_code	00000000 GPIO4_IRQHandler
200081ec g     O .bss	00000001 __lock___sfp_recursive_mutex
2000042a  w    F .boot_code	00000000 GPIO27_IRQHandler
20000412  w    F .boot_code	00000000 GPIO15_IRQHandler



Disassembly of section .vector_table:

20000000 <__vector_table_start>:
__vector_table_start():
20000000:	20010000 	.word	0x20010000
20000004:	20000191 	.word	0x20000191
20000008:	2000037f 	.word	0x2000037f
2000000c:	20000381 	.word	0x20000381
20000010:	20000383 	.word	0x20000383
20000014:	20000385 	.word	0x20000385
20000018:	20000387 	.word	0x20000387
	...
2000002c:	20000389 	.word	0x20000389
20000030:	2000038b 	.word	0x2000038b
20000034:	00000000 	.word	0x00000000
20000038:	2000038d 	.word	0x2000038d
2000003c:	2000038f 	.word	0x2000038f
20000040:	20000391 	.word	0x20000391
20000044:	20000393 	.word	0x20000393
20000048:	20000395 	.word	0x20000395
2000004c:	20000397 	.word	0x20000397
20000050:	20000399 	.word	0x20000399
20000054:	2000039b 	.word	0x2000039b
20000058:	2000039d 	.word	0x2000039d
2000005c:	2000039f 	.word	0x2000039f
20000060:	200003a1 	.word	0x200003a1
20000064:	200003a3 	.word	0x200003a3
20000068:	20001acd 	.word	0x20001acd
2000006c:	20001af1 	.word	0x20001af1
20000070:	200036c1 	.word	0x200036c1
20000074:	200003ab 	.word	0x200003ab
20000078:	200003ad 	.word	0x200003ad
2000007c:	200003af 	.word	0x200003af
20000080:	200003b1 	.word	0x200003b1
20000084:	200003b3 	.word	0x200003b3
20000088:	200003b5 	.word	0x200003b5
2000008c:	20002129 	.word	0x20002129
20000090:	200003b9 	.word	0x200003b9
20000094:	200003bb 	.word	0x200003bb
20000098:	200003bd 	.word	0x200003bd
2000009c:	200003bf 	.word	0x200003bf
200000a0:	200003c1 	.word	0x200003c1
200000a4:	200003c3 	.word	0x200003c3
200000a8:	200003c5 	.word	0x200003c5
200000ac:	20002795 	.word	0x20002795
200000b0:	2000288d 	.word	0x2000288d
200000b4:	200003cb 	.word	0x200003cb
200000b8:	200003cd 	.word	0x200003cd
200000bc:	200003cf 	.word	0x200003cf
200000c0:	200003d1 	.word	0x200003d1
200000c4:	200003d3 	.word	0x200003d3
200000c8:	200015d9 	.word	0x200015d9
200000cc:	200015e5 	.word	0x200015e5
200000d0:	200003d9 	.word	0x200003d9
200000d4:	200003db 	.word	0x200003db
200000d8:	200003dd 	.word	0x200003dd
200000dc:	200003df 	.word	0x200003df
200000e0:	200003e1 	.word	0x200003e1
200000e4:	200003e3 	.word	0x200003e3
200000e8:	200003e5 	.word	0x200003e5
200000ec:	200003e7 	.word	0x200003e7
200000f0:	200003e9 	.word	0x200003e9
200000f4:	200003eb 	.word	0x200003eb
200000f8:	200003ed 	.word	0x200003ed
200000fc:	200003ef 	.word	0x200003ef
20000100:	200003f1 	.word	0x200003f1
20000104:	200003f3 	.word	0x200003f3
20000108:	200003f5 	.word	0x200003f5
2000010c:	200003f7 	.word	0x200003f7
20000110:	200003f9 	.word	0x200003f9
20000114:	200003fb 	.word	0x200003fb
20000118:	200003fd 	.word	0x200003fd
2000011c:	200003ff 	.word	0x200003ff
20000120:	20000401 	.word	0x20000401
20000124:	20000403 	.word	0x20000403
20000128:	20001585 	.word	0x20001585
2000012c:	200015b5 	.word	0x200015b5
20000130:	20000409 	.word	0x20000409
20000134:	2000040b 	.word	0x2000040b
20000138:	2000040d 	.word	0x2000040d
2000013c:	2000040f 	.word	0x2000040f
20000140:	20000411 	.word	0x20000411
20000144:	20000413 	.word	0x20000413
20000148:	20000415 	.word	0x20000415
2000014c:	20000417 	.word	0x20000417
20000150:	20000419 	.word	0x20000419
20000154:	2000041b 	.word	0x2000041b
20000158:	2000041d 	.word	0x2000041d
2000015c:	2000041f 	.word	0x2000041f
20000160:	20000421 	.word	0x20000421
20000164:	20000423 	.word	0x20000423
20000168:	20000425 	.word	0x20000425
2000016c:	20000427 	.word	0x20000427
20000170:	20000429 	.word	0x20000429
20000174:	2000042b 	.word	0x2000042b
20000178:	2000042d 	.word	0x2000042d
2000017c:	2000042f 	.word	0x2000042f
20000180:	20000431 	.word	0x20000431
20000184:	20000433 	.word	0x20000433
	...

Disassembly of section .boot_code:

20000190 <Reset_Handler>:
Reset_Handler():
E:\Github_Repos\SF2_FFT_Accelerator\Softconsole\FFT_Accelerator\Debug/../firmware/CMSIS/startup_gcc/startup_m2sxxx.S:150
20000190:	f04f 0b00 	mov.w	fp, #0
E:\Github_Repos\SF2_FFT_Accelerator\Softconsole\FFT_Accelerator\Debug/../firmware/CMSIS/startup_gcc/startup_m2sxxx.S:151
20000194:	f8df 02be 	ldr.w	r0, [pc, #702]	; 20000456 <SF2_MDDR_MODE_CR>
E:\Github_Repos\SF2_FFT_Accelerator\Softconsole\FFT_Accelerator\Debug/../firmware/CMSIS/startup_gcc/startup_m2sxxx.S:152
20000198:	6800      	ldr	r0, [r0, #0]
E:\Github_Repos\SF2_FFT_Accelerator\Softconsole\FFT_Accelerator\Debug/../firmware/CMSIS/startup_gcc/startup_m2sxxx.S:153
2000019a:	f8df 12b6 	ldr.w	r1, [pc, #694]	; 20000452 <SF2_EDAC_CR>
E:\Github_Repos\SF2_FFT_Accelerator\Softconsole\FFT_Accelerator\Debug/../firmware/CMSIS/startup_gcc/startup_m2sxxx.S:154
2000019e:	6809      	ldr	r1, [r1, #0]
E:\Github_Repos\SF2_FFT_Accelerator\Softconsole\FFT_Accelerator\Debug/../firmware/CMSIS/startup_gcc/startup_m2sxxx.S:155
200001a0:	f001 0103 	and.w	r1, r1, #3
E:\Github_Repos\SF2_FFT_Accelerator\Softconsole\FFT_Accelerator\Debug/../firmware/CMSIS/startup_gcc/startup_m2sxxx.S:156
200001a4:	f000 001c 	and.w	r0, r0, #28
E:\Github_Repos\SF2_FFT_Accelerator\Softconsole\FFT_Accelerator\Debug/../firmware/CMSIS/startup_gcc/startup_m2sxxx.S:157
200001a8:	2814      	cmp	r0, #20
E:\Github_Repos\SF2_FFT_Accelerator\Softconsole\FFT_Accelerator\Debug/../firmware/CMSIS/startup_gcc/startup_m2sxxx.S:158
200001aa:	d101      	bne.n	200001b0 <check_esram_edac>
E:\Github_Repos\SF2_FFT_Accelerator\Softconsole\FFT_Accelerator\Debug/../firmware/CMSIS/startup_gcc/startup_m2sxxx.S:159
200001ac:	f04b 0b02 	orr.w	fp, fp, #2

200001b0 <check_esram_edac>:
check_esram_edac():
E:\Github_Repos\SF2_FFT_Accelerator\Softconsole\FFT_Accelerator\Debug/../firmware/CMSIS/startup_gcc/startup_m2sxxx.S:161
200001b0:	2900      	cmp	r1, #0
E:\Github_Repos\SF2_FFT_Accelerator\Softconsole\FFT_Accelerator\Debug/../firmware/CMSIS/startup_gcc/startup_m2sxxx.S:162
200001b2:	d001      	beq.n	200001b8 <check_stack_init>
E:\Github_Repos\SF2_FFT_Accelerator\Softconsole\FFT_Accelerator\Debug/../firmware/CMSIS/startup_gcc/startup_m2sxxx.S:163
200001b4:	f04b 0b01 	orr.w	fp, fp, #1

200001b8 <check_stack_init>:
check_stack_init():
E:\Github_Repos\SF2_FFT_Accelerator\Softconsole\FFT_Accelerator\Debug/../firmware/CMSIS/startup_gcc/startup_m2sxxx.S:165
200001b8:	f1bb 0f00 	cmp.w	fp, #0
E:\Github_Repos\SF2_FFT_Accelerator\Softconsole\FFT_Accelerator\Debug/../firmware/CMSIS/startup_gcc/startup_m2sxxx.S:166
200001bc:	d005      	beq.n	200001ca <system_init>

200001be <clear_stack>:
clear_stack():
E:\Github_Repos\SF2_FFT_Accelerator\Softconsole\FFT_Accelerator\Debug/../firmware/CMSIS/startup_gcc/startup_m2sxxx.S:168
200001be:	48a7      	ldr	r0, [pc, #668]	; (2000045c <SF2_MDDR_MODE_CR+0x6>)
E:\Github_Repos\SF2_FFT_Accelerator\Softconsole\FFT_Accelerator\Debug/../firmware/CMSIS/startup_gcc/startup_m2sxxx.S:169
200001c0:	49a7      	ldr	r1, [pc, #668]	; (20000460 <SF2_MDDR_MODE_CR+0xa>)
E:\Github_Repos\SF2_FFT_Accelerator\Softconsole\FFT_Accelerator\Debug/../firmware/CMSIS/startup_gcc/startup_m2sxxx.S:170
200001c2:	f8df 2272 	ldr.w	r2, [pc, #626]	; 20000436 <RAM_INIT_PATTERN>
E:\Github_Repos\SF2_FFT_Accelerator\Softconsole\FFT_Accelerator\Debug/../firmware/CMSIS/startup_gcc/startup_m2sxxx.S:171
200001c6:	f000 f89f 	bl	20000308 <fill_memory>

200001ca <system_init>:
system_init():
E:\Github_Repos\SF2_FFT_Accelerator\Softconsole\FFT_Accelerator\Debug/../firmware/CMSIS/startup_gcc/startup_m2sxxx.S:177
200001ca:	48a6      	ldr	r0, [pc, #664]	; (20000464 <SF2_MDDR_MODE_CR+0xe>)
E:\Github_Repos\SF2_FFT_Accelerator\Softconsole\FFT_Accelerator\Debug/../firmware/CMSIS/startup_gcc/startup_m2sxxx.S:178
200001cc:	4780      	blx	r0
E:\Github_Repos\SF2_FFT_Accelerator\Softconsole\FFT_Accelerator\Debug/../firmware/CMSIS/startup_gcc/startup_m2sxxx.S:184
200001ce:	f00b 0a02 	and.w	sl, fp, #2
E:\Github_Repos\SF2_FFT_Accelerator\Softconsole\FFT_Accelerator\Debug/../firmware/CMSIS/startup_gcc/startup_m2sxxx.S:185
200001d2:	f1ba 0f00 	cmp.w	sl, #0
E:\Github_Repos\SF2_FFT_Accelerator\Softconsole\FFT_Accelerator\Debug/../firmware/CMSIS/startup_gcc/startup_m2sxxx.S:186
200001d6:	d00c      	beq.n	200001f2 <remap_memory>
E:\Github_Repos\SF2_FFT_Accelerator\Softconsole\FFT_Accelerator\Debug/../firmware/CMSIS/startup_gcc/startup_m2sxxx.S:187
200001d8:	f8df 026e 	ldr.w	r0, [pc, #622]	; 2000044a <SF2_DDRB_NB_SIZE>
E:\Github_Repos\SF2_FFT_Accelerator\Softconsole\FFT_Accelerator\Debug/../firmware/CMSIS/startup_gcc/startup_m2sxxx.S:188
200001dc:	f8df 126e 	ldr.w	r1, [pc, #622]	; 2000044e <SF2_DDRB_CR>
E:\Github_Repos\SF2_FFT_Accelerator\Softconsole\FFT_Accelerator\Debug/../firmware/CMSIS/startup_gcc/startup_m2sxxx.S:189
200001e0:	6802      	ldr	r2, [r0, #0]
E:\Github_Repos\SF2_FFT_Accelerator\Softconsole\FFT_Accelerator\Debug/../firmware/CMSIS/startup_gcc/startup_m2sxxx.S:190
200001e2:	680b      	ldr	r3, [r1, #0]
E:\Github_Repos\SF2_FFT_Accelerator\Softconsole\FFT_Accelerator\Debug/../firmware/CMSIS/startup_gcc/startup_m2sxxx.S:191
200001e4:	b40f      	push	{r0, r1, r2, r3}
E:\Github_Repos\SF2_FFT_Accelerator\Softconsole\FFT_Accelerator\Debug/../firmware/CMSIS/startup_gcc/startup_m2sxxx.S:192
200001e6:	f04f 0200 	mov.w	r2, #0
E:\Github_Repos\SF2_FFT_Accelerator\Softconsole\FFT_Accelerator\Debug/../firmware/CMSIS/startup_gcc/startup_m2sxxx.S:193
200001ea:	f04f 03ff 	mov.w	r3, #255	; 0xff
E:\Github_Repos\SF2_FFT_Accelerator\Softconsole\FFT_Accelerator\Debug/../firmware/CMSIS/startup_gcc/startup_m2sxxx.S:194
200001ee:	6002      	str	r2, [r0, #0]
E:\Github_Repos\SF2_FFT_Accelerator\Softconsole\FFT_Accelerator\Debug/../firmware/CMSIS/startup_gcc/startup_m2sxxx.S:195
200001f0:	600b      	str	r3, [r1, #0]

200001f2 <remap_memory>:
remap_memory():
E:\Github_Repos\SF2_FFT_Accelerator\Softconsole\FFT_Accelerator\Debug/../firmware/CMSIS/startup_gcc/startup_m2sxxx.S:202
200001f2:	489d      	ldr	r0, [pc, #628]	; (20000468 <SF2_MDDR_MODE_CR+0x12>)
E:\Github_Repos\SF2_FFT_Accelerator\Softconsole\FFT_Accelerator\Debug/../firmware/CMSIS/startup_gcc/startup_m2sxxx.S:203
200001f4:	f04f 0200 	mov.w	r2, #0
E:\Github_Repos\SF2_FFT_Accelerator\Softconsole\FFT_Accelerator\Debug/../firmware/CMSIS/startup_gcc/startup_m2sxxx.S:204
200001f8:	f04f 0301 	mov.w	r3, #1
E:\Github_Repos\SF2_FFT_Accelerator\Softconsole\FFT_Accelerator\Debug/../firmware/CMSIS/startup_gcc/startup_m2sxxx.S:205
200001fc:	2802      	cmp	r0, #2
E:\Github_Repos\SF2_FFT_Accelerator\Softconsole\FFT_Accelerator\Debug/../firmware/CMSIS/startup_gcc/startup_m2sxxx.S:206
200001fe:	d108      	bne.n	20000212 <check_esram_remap>
E:\Github_Repos\SF2_FFT_Accelerator\Softconsole\FFT_Accelerator\Debug/../firmware/CMSIS/startup_gcc/startup_m2sxxx.S:210
20000200:	f8df 123a 	ldr.w	r1, [pc, #570]	; 2000043e <SF2_ESRAM_CR>
E:\Github_Repos\SF2_FFT_Accelerator\Softconsole\FFT_Accelerator\Debug/../firmware/CMSIS/startup_gcc/startup_m2sxxx.S:211
20000204:	600a      	str	r2, [r1, #0]
E:\Github_Repos\SF2_FFT_Accelerator\Softconsole\FFT_Accelerator\Debug/../firmware/CMSIS/startup_gcc/startup_m2sxxx.S:212
20000206:	f8df 123e 	ldr.w	r1, [pc, #574]	; 20000446 <SF2_ENVM_REMAP_CR>
E:\Github_Repos\SF2_FFT_Accelerator\Softconsole\FFT_Accelerator\Debug/../firmware/CMSIS/startup_gcc/startup_m2sxxx.S:213
2000020a:	600a      	str	r2, [r1, #0]
E:\Github_Repos\SF2_FFT_Accelerator\Softconsole\FFT_Accelerator\Debug/../firmware/CMSIS/startup_gcc/startup_m2sxxx.S:214
2000020c:	f8df 1232 	ldr.w	r1, [pc, #562]	; 20000442 <SF2_DDR_CR>
E:\Github_Repos\SF2_FFT_Accelerator\Softconsole\FFT_Accelerator\Debug/../firmware/CMSIS/startup_gcc/startup_m2sxxx.S:215
20000210:	600b      	str	r3, [r1, #0]

20000212 <check_esram_remap>:
check_esram_remap():
E:\Github_Repos\SF2_FFT_Accelerator\Softconsole\FFT_Accelerator\Debug/../firmware/CMSIS/startup_gcc/startup_m2sxxx.S:217
20000212:	2801      	cmp	r0, #1
E:\Github_Repos\SF2_FFT_Accelerator\Softconsole\FFT_Accelerator\Debug/../firmware/CMSIS/startup_gcc/startup_m2sxxx.S:218
20000214:	d108      	bne.n	20000228 <check_mirrored_nvm>
E:\Github_Repos\SF2_FFT_Accelerator\Softconsole\FFT_Accelerator\Debug/../firmware/CMSIS/startup_gcc/startup_m2sxxx.S:222
20000216:	f8df 122a 	ldr.w	r1, [pc, #554]	; 20000442 <SF2_DDR_CR>
E:\Github_Repos\SF2_FFT_Accelerator\Softconsole\FFT_Accelerator\Debug/../firmware/CMSIS/startup_gcc/startup_m2sxxx.S:223
2000021a:	600a      	str	r2, [r1, #0]
E:\Github_Repos\SF2_FFT_Accelerator\Softconsole\FFT_Accelerator\Debug/../firmware/CMSIS/startup_gcc/startup_m2sxxx.S:224
2000021c:	f8df 1226 	ldr.w	r1, [pc, #550]	; 20000446 <SF2_ENVM_REMAP_CR>
E:\Github_Repos\SF2_FFT_Accelerator\Softconsole\FFT_Accelerator\Debug/../firmware/CMSIS/startup_gcc/startup_m2sxxx.S:225
20000220:	600a      	str	r2, [r1, #0]
E:\Github_Repos\SF2_FFT_Accelerator\Softconsole\FFT_Accelerator\Debug/../firmware/CMSIS/startup_gcc/startup_m2sxxx.S:226
20000222:	f8df 121a 	ldr.w	r1, [pc, #538]	; 2000043e <SF2_ESRAM_CR>
E:\Github_Repos\SF2_FFT_Accelerator\Softconsole\FFT_Accelerator\Debug/../firmware/CMSIS/startup_gcc/startup_m2sxxx.S:227
20000226:	600b      	str	r3, [r1, #0]

20000228 <check_mirrored_nvm>:
check_mirrored_nvm():
E:\Github_Repos\SF2_FFT_Accelerator\Softconsole\FFT_Accelerator\Debug/../firmware/CMSIS/startup_gcc/startup_m2sxxx.S:236
20000228:	4890      	ldr	r0, [pc, #576]	; (2000046c <SF2_MDDR_MODE_CR+0x16>)
E:\Github_Repos\SF2_FFT_Accelerator\Softconsole\FFT_Accelerator\Debug/../firmware/CMSIS/startup_gcc/startup_m2sxxx.S:237
2000022a:	2800      	cmp	r0, #0
E:\Github_Repos\SF2_FFT_Accelerator\Softconsole\FFT_Accelerator\Debug/../firmware/CMSIS/startup_gcc/startup_m2sxxx.S:238
2000022c:	d109      	bne.n	20000242 <copy_data>
E:\Github_Repos\SF2_FFT_Accelerator\Softconsole\FFT_Accelerator\Debug/../firmware/CMSIS/startup_gcc/startup_m2sxxx.S:243
2000022e:	4890      	ldr	r0, [pc, #576]	; (20000470 <SF2_MDDR_MODE_CR+0x1a>)
E:\Github_Repos\SF2_FFT_Accelerator\Softconsole\FFT_Accelerator\Debug/../firmware/CMSIS/startup_gcc/startup_m2sxxx.S:244
20000230:	4990      	ldr	r1, [pc, #576]	; (20000474 <SF2_MDDR_MODE_CR+0x1e>)
E:\Github_Repos\SF2_FFT_Accelerator\Softconsole\FFT_Accelerator\Debug/../firmware/CMSIS/startup_gcc/startup_m2sxxx.S:245
20000232:	4a91      	ldr	r2, [pc, #580]	; (20000478 <SF2_MDDR_MODE_CR+0x22>)
E:\Github_Repos\SF2_FFT_Accelerator\Softconsole\FFT_Accelerator\Debug/../firmware/CMSIS/startup_gcc/startup_m2sxxx.S:246
20000234:	f000 f830 	bl	20000298 <block_copy>

20000238 <copy_text>:
copy_text():
E:\Github_Repos\SF2_FFT_Accelerator\Softconsole\FFT_Accelerator\Debug/../firmware/CMSIS/startup_gcc/startup_m2sxxx.S:252
20000238:	4890      	ldr	r0, [pc, #576]	; (2000047c <SF2_MDDR_MODE_CR+0x26>)
E:\Github_Repos\SF2_FFT_Accelerator\Softconsole\FFT_Accelerator\Debug/../firmware/CMSIS/startup_gcc/startup_m2sxxx.S:253
2000023a:	4991      	ldr	r1, [pc, #580]	; (20000480 <SF2_MDDR_MODE_CR+0x2a>)
E:\Github_Repos\SF2_FFT_Accelerator\Softconsole\FFT_Accelerator\Debug/../firmware/CMSIS/startup_gcc/startup_m2sxxx.S:254
2000023c:	4a91      	ldr	r2, [pc, #580]	; (20000484 <SF2_MDDR_MODE_CR+0x2e>)
E:\Github_Repos\SF2_FFT_Accelerator\Softconsole\FFT_Accelerator\Debug/../firmware/CMSIS/startup_gcc/startup_m2sxxx.S:255
2000023e:	f000 f82b 	bl	20000298 <block_copy>

20000242 <copy_data>:
copy_data():
E:\Github_Repos\SF2_FFT_Accelerator\Softconsole\FFT_Accelerator\Debug/../firmware/CMSIS/startup_gcc/startup_m2sxxx.S:262
20000242:	4891      	ldr	r0, [pc, #580]	; (20000488 <SF2_MDDR_MODE_CR+0x32>)
E:\Github_Repos\SF2_FFT_Accelerator\Softconsole\FFT_Accelerator\Debug/../firmware/CMSIS/startup_gcc/startup_m2sxxx.S:263
20000244:	4991      	ldr	r1, [pc, #580]	; (2000048c <SF2_MDDR_MODE_CR+0x36>)
E:\Github_Repos\SF2_FFT_Accelerator\Softconsole\FFT_Accelerator\Debug/../firmware/CMSIS/startup_gcc/startup_m2sxxx.S:264
20000246:	4a92      	ldr	r2, [pc, #584]	; (20000490 <SF2_MDDR_MODE_CR+0x3a>)
E:\Github_Repos\SF2_FFT_Accelerator\Softconsole\FFT_Accelerator\Debug/../firmware/CMSIS/startup_gcc/startup_m2sxxx.S:265
20000248:	f000 f826 	bl	20000298 <block_copy>

2000024c <clear_bss>:
clear_bss():
E:\Github_Repos\SF2_FFT_Accelerator\Softconsole\FFT_Accelerator\Debug/../firmware/CMSIS/startup_gcc/startup_m2sxxx.S:271
2000024c:	4891      	ldr	r0, [pc, #580]	; (20000494 <SF2_MDDR_MODE_CR+0x3e>)
E:\Github_Repos\SF2_FFT_Accelerator\Softconsole\FFT_Accelerator\Debug/../firmware/CMSIS/startup_gcc/startup_m2sxxx.S:272
2000024e:	4992      	ldr	r1, [pc, #584]	; (20000498 <SF2_MDDR_MODE_CR+0x42>)
E:\Github_Repos\SF2_FFT_Accelerator\Softconsole\FFT_Accelerator\Debug/../firmware/CMSIS/startup_gcc/startup_m2sxxx.S:273
20000250:	f8df 21e2 	ldr.w	r2, [pc, #482]	; 20000436 <RAM_INIT_PATTERN>
E:\Github_Repos\SF2_FFT_Accelerator\Softconsole\FFT_Accelerator\Debug/../firmware/CMSIS/startup_gcc/startup_m2sxxx.S:274
20000254:	f000 f858 	bl	20000308 <fill_memory>

20000258 <clear_heap>:
clear_heap():
E:\Github_Repos\SF2_FFT_Accelerator\Softconsole\FFT_Accelerator\Debug/../firmware/CMSIS/startup_gcc/startup_m2sxxx.S:287
20000258:	f1bb 0f00 	cmp.w	fp, #0
E:\Github_Repos\SF2_FFT_Accelerator\Softconsole\FFT_Accelerator\Debug/../firmware/CMSIS/startup_gcc/startup_m2sxxx.S:288
2000025c:	d010      	beq.n	20000280 <call_glob_ctor>
E:\Github_Repos\SF2_FFT_Accelerator\Softconsole\FFT_Accelerator\Debug/../firmware/CMSIS/startup_gcc/startup_m2sxxx.S:289
2000025e:	488f      	ldr	r0, [pc, #572]	; (2000049c <SF2_MDDR_MODE_CR+0x46>)
E:\Github_Repos\SF2_FFT_Accelerator\Softconsole\FFT_Accelerator\Debug/../firmware/CMSIS/startup_gcc/startup_m2sxxx.S:290
20000260:	498f      	ldr	r1, [pc, #572]	; (200004a0 <SF2_MDDR_MODE_CR+0x4a>)
E:\Github_Repos\SF2_FFT_Accelerator\Softconsole\FFT_Accelerator\Debug/../firmware/CMSIS/startup_gcc/startup_m2sxxx.S:291
20000262:	f8df 21d6 	ldr.w	r2, [pc, #470]	; 2000043a <HEAP_INIT_PATTERN>
E:\Github_Repos\SF2_FFT_Accelerator\Softconsole\FFT_Accelerator\Debug/../firmware/CMSIS/startup_gcc/startup_m2sxxx.S:292
20000266:	f000 f84f 	bl	20000308 <fill_memory>
E:\Github_Repos\SF2_FFT_Accelerator\Softconsole\FFT_Accelerator\Debug/../firmware/CMSIS/startup_gcc/startup_m2sxxx.S:297
2000026a:	f00b 0a02 	and.w	sl, fp, #2
E:\Github_Repos\SF2_FFT_Accelerator\Softconsole\FFT_Accelerator\Debug/../firmware/CMSIS/startup_gcc/startup_m2sxxx.S:298
2000026e:	f1ba 0f00 	cmp.w	sl, #0
E:\Github_Repos\SF2_FFT_Accelerator\Softconsole\FFT_Accelerator\Debug/../firmware/CMSIS/startup_gcc/startup_m2sxxx.S:299
20000272:	d005      	beq.n	20000280 <call_glob_ctor>
E:\Github_Repos\SF2_FFT_Accelerator\Softconsole\FFT_Accelerator\Debug/../firmware/CMSIS/startup_gcc/startup_m2sxxx.S:300
20000274:	bc0f      	pop	{r0, r1, r2, r3}
E:\Github_Repos\SF2_FFT_Accelerator\Softconsole\FFT_Accelerator\Debug/../firmware/CMSIS/startup_gcc/startup_m2sxxx.S:301
20000276:	6002      	str	r2, [r0, #0]
E:\Github_Repos\SF2_FFT_Accelerator\Softconsole\FFT_Accelerator\Debug/../firmware/CMSIS/startup_gcc/startup_m2sxxx.S:302
20000278:	600b      	str	r3, [r1, #0]
2000027a:	bf00      	nop
2000027c:	f3af 8000 	nop.w

20000280 <call_glob_ctor>:
call_glob_ctor():
E:\Github_Repos\SF2_FFT_Accelerator\Softconsole\FFT_Accelerator\Debug/../firmware/CMSIS/startup_gcc/startup_m2sxxx.S:313
20000280:	f8df 0220 	ldr.w	r0, [pc, #544]	; 200004a4 <SF2_MDDR_MODE_CR+0x4e>
E:\Github_Repos\SF2_FFT_Accelerator\Softconsole\FFT_Accelerator\Debug/../firmware/CMSIS/startup_gcc/startup_m2sxxx.S:314
20000284:	f20f 0e03 	addw	lr, pc, #3
E:\Github_Repos\SF2_FFT_Accelerator\Softconsole\FFT_Accelerator\Debug/../firmware/CMSIS/startup_gcc/startup_m2sxxx.S:315
20000288:	4700      	bx	r0

2000028a <branch_to_main>:
branch_to_main():
E:\Github_Repos\SF2_FFT_Accelerator\Softconsole\FFT_Accelerator\Debug/../firmware/CMSIS/startup_gcc/startup_m2sxxx.S:321
2000028a:	f04f 0000 	mov.w	r0, #0
E:\Github_Repos\SF2_FFT_Accelerator\Softconsole\FFT_Accelerator\Debug/../firmware/CMSIS/startup_gcc/startup_m2sxxx.S:322
2000028e:	f04f 0100 	mov.w	r1, #0
E:\Github_Repos\SF2_FFT_Accelerator\Softconsole\FFT_Accelerator\Debug/../firmware/CMSIS/startup_gcc/startup_m2sxxx.S:323
20000292:	f8df f214 	ldr.w	pc, [pc, #532]	; 200004a8 <SF2_MDDR_MODE_CR+0x52>

20000296 <ExitLoop>:
ExitLoop():
E:\Github_Repos\SF2_FFT_Accelerator\Softconsole\FFT_Accelerator\Debug/../firmware/CMSIS/startup_gcc/startup_m2sxxx.S:326
20000296:	e7fe      	b.n	20000296 <ExitLoop>

20000298 <block_copy>:
block_copy():
E:\Github_Repos\SF2_FFT_Accelerator\Softconsole\FFT_Accelerator\Debug/../firmware/CMSIS/startup_gcc/startup_m2sxxx.S:341
20000298:	e92d 41f8 	stmdb	sp!, {r3, r4, r5, r6, r7, r8, lr}
E:\Github_Repos\SF2_FFT_Accelerator\Softconsole\FFT_Accelerator\Debug/../firmware/CMSIS/startup_gcc/startup_m2sxxx.S:342
2000029c:	4288      	cmp	r0, r1
E:\Github_Repos\SF2_FFT_Accelerator\Softconsole\FFT_Accelerator\Debug/../firmware/CMSIS/startup_gcc/startup_m2sxxx.S:343
2000029e:	d025      	beq.n	200002ec <block_copy_exit>
E:\Github_Repos\SF2_FFT_Accelerator\Softconsole\FFT_Accelerator\Debug/../firmware/CMSIS/startup_gcc/startup_m2sxxx.S:344
200002a0:	ebb2 0201 	subs.w	r2, r2, r1
E:\Github_Repos\SF2_FFT_Accelerator\Softconsole\FFT_Accelerator\Debug/../firmware/CMSIS/startup_gcc/startup_m2sxxx.S:345
200002a4:	d500      	bpl.n	200002a8 <block_copy_address_ok>
E:\Github_Repos\SF2_FFT_Accelerator\Softconsole\FFT_Accelerator\Debug/../firmware/CMSIS/startup_gcc/startup_m2sxxx.S:346
200002a6:	e7fe      	b.n	200002a6 <block_copy+0xe>

200002a8 <block_copy_address_ok>:
block_copy_address_ok():
E:\Github_Repos\SF2_FFT_Accelerator\Softconsole\FFT_Accelerator\Debug/../firmware/CMSIS/startup_gcc/startup_m2sxxx.S:349
200002a8:	ea40 0301 	orr.w	r3, r0, r1
E:\Github_Repos\SF2_FFT_Accelerator\Softconsole\FFT_Accelerator\Debug/../firmware/CMSIS/startup_gcc/startup_m2sxxx.S:350
200002ac:	f013 0303 	ands.w	r3, r3, #3
E:\Github_Repos\SF2_FFT_Accelerator\Softconsole\FFT_Accelerator\Debug/../firmware/CMSIS/startup_gcc/startup_m2sxxx.S:351
200002b0:	d002      	beq.n	200002b8 <block_copy_continue>

200002b2 <block_copy_byte_copy>:
block_copy_byte_copy():
E:\Github_Repos\SF2_FFT_Accelerator\Softconsole\FFT_Accelerator\Debug/../firmware/CMSIS/startup_gcc/startup_m2sxxx.S:353
200002b2:	f000 f81d 	bl	200002f0 <block_copy_byte>
E:\Github_Repos\SF2_FFT_Accelerator\Softconsole\FFT_Accelerator\Debug/../firmware/CMSIS/startup_gcc/startup_m2sxxx.S:354
200002b6:	e019      	b.n	200002ec <block_copy_exit>

200002b8 <block_copy_continue>:
block_copy_continue():
E:\Github_Repos\SF2_FFT_Accelerator\Softconsole\FFT_Accelerator\Debug/../firmware/CMSIS/startup_gcc/startup_m2sxxx.S:356
200002b8:	f04f 0300 	mov.w	r3, #0
E:\Github_Repos\SF2_FFT_Accelerator\Softconsole\FFT_Accelerator\Debug/../firmware/CMSIS/startup_gcc/startup_m2sxxx.S:357
200002bc:	4690      	mov	r8, r2
E:\Github_Repos\SF2_FFT_Accelerator\Softconsole\FFT_Accelerator\Debug/../firmware/CMSIS/startup_gcc/startup_m2sxxx.S:358
200002be:	1112      	asrs	r2, r2, #4
E:\Github_Repos\SF2_FFT_Accelerator\Softconsole\FFT_Accelerator\Debug/../firmware/CMSIS/startup_gcc/startup_m2sxxx.S:359
200002c0:	d0f7      	beq.n	200002b2 <block_copy_byte_copy>

200002c2 <block_copy_loop>:
block_copy_loop():
E:\Github_Repos\SF2_FFT_Accelerator\Softconsole\FFT_Accelerator\Debug/../firmware/CMSIS/startup_gcc/startup_m2sxxx.S:361
200002c2:	429a      	cmp	r2, r3
E:\Github_Repos\SF2_FFT_Accelerator\Softconsole\FFT_Accelerator\Debug/../firmware/CMSIS/startup_gcc/startup_m2sxxx.S:362
200002c4:	bf1c      	itt	ne
E:\Github_Repos\SF2_FFT_Accelerator\Softconsole\FFT_Accelerator\Debug/../firmware/CMSIS/startup_gcc/startup_m2sxxx.S:363
200002c6:	c8f0      	ldmiane	r0!, {r4, r5, r6, r7}
E:\Github_Repos\SF2_FFT_Accelerator\Softconsole\FFT_Accelerator\Debug/../firmware/CMSIS/startup_gcc/startup_m2sxxx.S:364
200002c8:	c1f0      	stmiane	r1!, {r4, r5, r6, r7}
E:\Github_Repos\SF2_FFT_Accelerator\Softconsole\FFT_Accelerator\Debug/../firmware/CMSIS/startup_gcc/startup_m2sxxx.S:365
200002ca:	f103 0301 	add.w	r3, r3, #1
E:\Github_Repos\SF2_FFT_Accelerator\Softconsole\FFT_Accelerator\Debug/../firmware/CMSIS/startup_gcc/startup_m2sxxx.S:366
200002ce:	d1f8      	bne.n	200002c2 <block_copy_loop>
E:\Github_Repos\SF2_FFT_Accelerator\Softconsole\FFT_Accelerator\Debug/../firmware/CMSIS/startup_gcc/startup_m2sxxx.S:368
200002d0:	f008 080f 	and.w	r8, r8, #15
E:\Github_Repos\SF2_FFT_Accelerator\Softconsole\FFT_Accelerator\Debug/../firmware/CMSIS/startup_gcc/startup_m2sxxx.S:369
200002d4:	f1b8 0f00 	cmp.w	r8, #0
E:\Github_Repos\SF2_FFT_Accelerator\Softconsole\FFT_Accelerator\Debug/../firmware/CMSIS/startup_gcc/startup_m2sxxx.S:370
200002d8:	d008      	beq.n	200002ec <block_copy_exit>

200002da <copy_spare_bytes>:
copy_spare_bytes():
E:\Github_Repos\SF2_FFT_Accelerator\Softconsole\FFT_Accelerator\Debug/../firmware/CMSIS/startup_gcc/startup_m2sxxx.S:372
200002da:	7804      	ldrb	r4, [r0, #0]
E:\Github_Repos\SF2_FFT_Accelerator\Softconsole\FFT_Accelerator\Debug/../firmware/CMSIS/startup_gcc/startup_m2sxxx.S:373
200002dc:	700c      	strb	r4, [r1, #0]
E:\Github_Repos\SF2_FFT_Accelerator\Softconsole\FFT_Accelerator\Debug/../firmware/CMSIS/startup_gcc/startup_m2sxxx.S:374
200002de:	f100 0001 	add.w	r0, r0, #1
E:\Github_Repos\SF2_FFT_Accelerator\Softconsole\FFT_Accelerator\Debug/../firmware/CMSIS/startup_gcc/startup_m2sxxx.S:375
200002e2:	f101 0101 	add.w	r1, r1, #1
E:\Github_Repos\SF2_FFT_Accelerator\Softconsole\FFT_Accelerator\Debug/../firmware/CMSIS/startup_gcc/startup_m2sxxx.S:376
200002e6:	f1b8 0801 	subs.w	r8, r8, #1
E:\Github_Repos\SF2_FFT_Accelerator\Softconsole\FFT_Accelerator\Debug/../firmware/CMSIS/startup_gcc/startup_m2sxxx.S:377
200002ea:	d1f6      	bne.n	200002da <copy_spare_bytes>

200002ec <block_copy_exit>:
block_copy_exit():
E:\Github_Repos\SF2_FFT_Accelerator\Softconsole\FFT_Accelerator\Debug/../firmware/CMSIS/startup_gcc/startup_m2sxxx.S:379
200002ec:	e8bd 81f8 	ldmia.w	sp!, {r3, r4, r5, r6, r7, r8, pc}

200002f0 <block_copy_byte>:
block_copy_byte():
E:\Github_Repos\SF2_FFT_Accelerator\Softconsole\FFT_Accelerator\Debug/../firmware/CMSIS/startup_gcc/startup_m2sxxx.S:388
200002f0:	b508      	push	{r3, lr}
E:\Github_Repos\SF2_FFT_Accelerator\Softconsole\FFT_Accelerator\Debug/../firmware/CMSIS/startup_gcc/startup_m2sxxx.S:389
200002f2:	f04f 0300 	mov.w	r3, #0

200002f6 <block_copy_byte_loop>:
block_copy_byte_loop():
E:\Github_Repos\SF2_FFT_Accelerator\Softconsole\FFT_Accelerator\Debug/../firmware/CMSIS/startup_gcc/startup_m2sxxx.S:391
200002f6:	7803      	ldrb	r3, [r0, #0]
E:\Github_Repos\SF2_FFT_Accelerator\Softconsole\FFT_Accelerator\Debug/../firmware/CMSIS/startup_gcc/startup_m2sxxx.S:392
200002f8:	700b      	strb	r3, [r1, #0]
E:\Github_Repos\SF2_FFT_Accelerator\Softconsole\FFT_Accelerator\Debug/../firmware/CMSIS/startup_gcc/startup_m2sxxx.S:393
200002fa:	f100 0001 	add.w	r0, r0, #1
E:\Github_Repos\SF2_FFT_Accelerator\Softconsole\FFT_Accelerator\Debug/../firmware/CMSIS/startup_gcc/startup_m2sxxx.S:394
200002fe:	f101 0101 	add.w	r1, r1, #1
E:\Github_Repos\SF2_FFT_Accelerator\Softconsole\FFT_Accelerator\Debug/../firmware/CMSIS/startup_gcc/startup_m2sxxx.S:395
20000302:	3a01      	subs	r2, #1
E:\Github_Repos\SF2_FFT_Accelerator\Softconsole\FFT_Accelerator\Debug/../firmware/CMSIS/startup_gcc/startup_m2sxxx.S:396
20000304:	d1f7      	bne.n	200002f6 <block_copy_byte_loop>
E:\Github_Repos\SF2_FFT_Accelerator\Softconsole\FFT_Accelerator\Debug/../firmware/CMSIS/startup_gcc/startup_m2sxxx.S:397
20000306:	bd08      	pop	{r3, pc}

20000308 <fill_memory>:
fill_memory():
E:\Github_Repos\SF2_FFT_Accelerator\Softconsole\FFT_Accelerator\Debug/../firmware/CMSIS/startup_gcc/startup_m2sxxx.S:419
20000308:	4288      	cmp	r0, r1
E:\Github_Repos\SF2_FFT_Accelerator\Softconsole\FFT_Accelerator\Debug/../firmware/CMSIS/startup_gcc/startup_m2sxxx.S:420
2000030a:	d037      	beq.n	2000037c <fill_memory_exit>
E:\Github_Repos\SF2_FFT_Accelerator\Softconsole\FFT_Accelerator\Debug/../firmware/CMSIS/startup_gcc/startup_m2sxxx.S:422
2000030c:	f000 0603 	and.w	r6, r0, #3
E:\Github_Repos\SF2_FFT_Accelerator\Softconsole\FFT_Accelerator\Debug/../firmware/CMSIS/startup_gcc/startup_m2sxxx.S:423
20000310:	2e00      	cmp	r6, #0
E:\Github_Repos\SF2_FFT_Accelerator\Softconsole\FFT_Accelerator\Debug/../firmware/CMSIS/startup_gcc/startup_m2sxxx.S:424
20000312:	d014      	beq.n	2000033e <fill_memory_end_start>
E:\Github_Repos\SF2_FFT_Accelerator\Softconsole\FFT_Accelerator\Debug/../firmware/CMSIS/startup_gcc/startup_m2sxxx.S:425
20000314:	f04f 0504 	mov.w	r5, #4
E:\Github_Repos\SF2_FFT_Accelerator\Softconsole\FFT_Accelerator\Debug/../firmware/CMSIS/startup_gcc/startup_m2sxxx.S:426
20000318:	eba5 0406 	sub.w	r4, r5, r6
E:\Github_Repos\SF2_FFT_Accelerator\Softconsole\FFT_Accelerator\Debug/../firmware/CMSIS/startup_gcc/startup_m2sxxx.S:427
2000031c:	f04f 0708 	mov.w	r7, #8
E:\Github_Repos\SF2_FFT_Accelerator\Softconsole\FFT_Accelerator\Debug/../firmware/CMSIS/startup_gcc/startup_m2sxxx.S:428
20000320:	fb07 f806 	mul.w	r8, r7, r6
E:\Github_Repos\SF2_FFT_Accelerator\Softconsole\FFT_Accelerator\Debug/../firmware/CMSIS/startup_gcc/startup_m2sxxx.S:429
20000324:	4691      	mov	r9, r2
E:\Github_Repos\SF2_FFT_Accelerator\Softconsole\FFT_Accelerator\Debug/../firmware/CMSIS/startup_gcc/startup_m2sxxx.S:430
20000326:	fa69 f908 	ror.w	r9, r9, r8

2000032a <fill_memory_spare_bytes_start>:
fill_memory_spare_bytes_start():
E:\Github_Repos\SF2_FFT_Accelerator\Softconsole\FFT_Accelerator\Debug/../firmware/CMSIS/startup_gcc/startup_m2sxxx.S:432
2000032a:	2c00      	cmp	r4, #0
E:\Github_Repos\SF2_FFT_Accelerator\Softconsole\FFT_Accelerator\Debug/../firmware/CMSIS/startup_gcc/startup_m2sxxx.S:433
2000032c:	d007      	beq.n	2000033e <fill_memory_end_start>
E:\Github_Repos\SF2_FFT_Accelerator\Softconsole\FFT_Accelerator\Debug/../firmware/CMSIS/startup_gcc/startup_m2sxxx.S:434
2000032e:	f880 9000 	strb.w	r9, [r0]
E:\Github_Repos\SF2_FFT_Accelerator\Softconsole\FFT_Accelerator\Debug/../firmware/CMSIS/startup_gcc/startup_m2sxxx.S:435
20000332:	fa69 f907 	ror.w	r9, r9, r7
E:\Github_Repos\SF2_FFT_Accelerator\Softconsole\FFT_Accelerator\Debug/../firmware/CMSIS/startup_gcc/startup_m2sxxx.S:436
20000336:	f100 0001 	add.w	r0, r0, #1
E:\Github_Repos\SF2_FFT_Accelerator\Softconsole\FFT_Accelerator\Debug/../firmware/CMSIS/startup_gcc/startup_m2sxxx.S:437
2000033a:	3c01      	subs	r4, #1
E:\Github_Repos\SF2_FFT_Accelerator\Softconsole\FFT_Accelerator\Debug/../firmware/CMSIS/startup_gcc/startup_m2sxxx.S:438
2000033c:	e7f5      	b.n	2000032a <fill_memory_spare_bytes_start>

2000033e <fill_memory_end_start>:
fill_memory_end_start():
E:\Github_Repos\SF2_FFT_Accelerator\Softconsole\FFT_Accelerator\Debug/../firmware/CMSIS/startup_gcc/startup_m2sxxx.S:440
2000033e:	f04f 0600 	mov.w	r6, #0
E:\Github_Repos\SF2_FFT_Accelerator\Softconsole\FFT_Accelerator\Debug/../firmware/CMSIS/startup_gcc/startup_m2sxxx.S:441
20000342:	460f      	mov	r7, r1
E:\Github_Repos\SF2_FFT_Accelerator\Softconsole\FFT_Accelerator\Debug/../firmware/CMSIS/startup_gcc/startup_m2sxxx.S:442
20000344:	1a09      	subs	r1, r1, r0
E:\Github_Repos\SF2_FFT_Accelerator\Softconsole\FFT_Accelerator\Debug/../firmware/CMSIS/startup_gcc/startup_m2sxxx.S:443
20000346:	4688      	mov	r8, r1
E:\Github_Repos\SF2_FFT_Accelerator\Softconsole\FFT_Accelerator\Debug/../firmware/CMSIS/startup_gcc/startup_m2sxxx.S:444
20000348:	1109      	asrs	r1, r1, #4
E:\Github_Repos\SF2_FFT_Accelerator\Softconsole\FFT_Accelerator\Debug/../firmware/CMSIS/startup_gcc/startup_m2sxxx.S:445
2000034a:	4691      	mov	r9, r2
E:\Github_Repos\SF2_FFT_Accelerator\Softconsole\FFT_Accelerator\Debug/../firmware/CMSIS/startup_gcc/startup_m2sxxx.S:446
2000034c:	4614      	mov	r4, r2
E:\Github_Repos\SF2_FFT_Accelerator\Softconsole\FFT_Accelerator\Debug/../firmware/CMSIS/startup_gcc/startup_m2sxxx.S:447
2000034e:	4615      	mov	r5, r2
E:\Github_Repos\SF2_FFT_Accelerator\Softconsole\FFT_Accelerator\Debug/../firmware/CMSIS/startup_gcc/startup_m2sxxx.S:448
20000350:	42b1      	cmp	r1, r6
E:\Github_Repos\SF2_FFT_Accelerator\Softconsole\FFT_Accelerator\Debug/../firmware/CMSIS/startup_gcc/startup_m2sxxx.S:449
20000352:	d006      	beq.n	20000362 <fill_memory_spare_bytes_end>

20000354 <fill_memory_loop>:
fill_memory_loop():
E:\Github_Repos\SF2_FFT_Accelerator\Softconsole\FFT_Accelerator\Debug/../firmware/CMSIS/startup_gcc/startup_m2sxxx.S:451
20000354:	bf18      	it	ne
E:\Github_Repos\SF2_FFT_Accelerator\Softconsole\FFT_Accelerator\Debug/../firmware/CMSIS/startup_gcc/startup_m2sxxx.S:452
20000356:	e8a0 0234 	stmiane.w	r0!, {r2, r4, r5, r9}
E:\Github_Repos\SF2_FFT_Accelerator\Softconsole\FFT_Accelerator\Debug/../firmware/CMSIS/startup_gcc/startup_m2sxxx.S:453
2000035a:	f106 0601 	add.w	r6, r6, #1
E:\Github_Repos\SF2_FFT_Accelerator\Softconsole\FFT_Accelerator\Debug/../firmware/CMSIS/startup_gcc/startup_m2sxxx.S:454
2000035e:	42b1      	cmp	r1, r6
E:\Github_Repos\SF2_FFT_Accelerator\Softconsole\FFT_Accelerator\Debug/../firmware/CMSIS/startup_gcc/startup_m2sxxx.S:455
20000360:	d1f8      	bne.n	20000354 <fill_memory_loop>

20000362 <fill_memory_spare_bytes_end>:
fill_memory_spare_bytes_end():
E:\Github_Repos\SF2_FFT_Accelerator\Softconsole\FFT_Accelerator\Debug/../firmware/CMSIS/startup_gcc/startup_m2sxxx.S:457
20000362:	f008 080f 	and.w	r8, r8, #15

20000366 <fill_memory_spare_end_loop>:
fill_memory_spare_end_loop():
E:\Github_Repos\SF2_FFT_Accelerator\Softconsole\FFT_Accelerator\Debug/../firmware/CMSIS/startup_gcc/startup_m2sxxx.S:459
20000366:	f1b8 0f00 	cmp.w	r8, #0
E:\Github_Repos\SF2_FFT_Accelerator\Softconsole\FFT_Accelerator\Debug/../firmware/CMSIS/startup_gcc/startup_m2sxxx.S:460
2000036a:	d007      	beq.n	2000037c <fill_memory_exit>
E:\Github_Repos\SF2_FFT_Accelerator\Softconsole\FFT_Accelerator\Debug/../firmware/CMSIS/startup_gcc/startup_m2sxxx.S:461
2000036c:	7002      	strb	r2, [r0, #0]
E:\Github_Repos\SF2_FFT_Accelerator\Softconsole\FFT_Accelerator\Debug/../firmware/CMSIS/startup_gcc/startup_m2sxxx.S:462
2000036e:	ea4f 2232 	mov.w	r2, r2, ror #8
E:\Github_Repos\SF2_FFT_Accelerator\Softconsole\FFT_Accelerator\Debug/../firmware/CMSIS/startup_gcc/startup_m2sxxx.S:463
20000372:	f100 0001 	add.w	r0, r0, #1
E:\Github_Repos\SF2_FFT_Accelerator\Softconsole\FFT_Accelerator\Debug/../firmware/CMSIS/startup_gcc/startup_m2sxxx.S:464
20000376:	f1b8 0801 	subs.w	r8, r8, #1
E:\Github_Repos\SF2_FFT_Accelerator\Softconsole\FFT_Accelerator\Debug/../firmware/CMSIS/startup_gcc/startup_m2sxxx.S:465
2000037a:	e7f4      	b.n	20000366 <fill_memory_spare_end_loop>

2000037c <fill_memory_exit>:
fill_memory_exit():
E:\Github_Repos\SF2_FFT_Accelerator\Softconsole\FFT_Accelerator\Debug/../firmware/CMSIS/startup_gcc/startup_m2sxxx.S:467
2000037c:	4770      	bx	lr

2000037e <NMI_Handler>:
NMI_Handler():
E:\Github_Repos\SF2_FFT_Accelerator\Softconsole\FFT_Accelerator\Debug/../firmware/CMSIS/startup_gcc/startup_m2sxxx.S:554
2000037e:	e7fe      	b.n	2000037e <NMI_Handler>

20000380 <HardFault_Handler>:
HardFault_Handler():
E:\Github_Repos\SF2_FFT_Accelerator\Softconsole\FFT_Accelerator\Debug/../firmware/CMSIS/startup_gcc/startup_m2sxxx.S:562
20000380:	e7fe      	b.n	20000380 <HardFault_Handler>

20000382 <MemManage_Handler>:
MemManage_Handler():
E:\Github_Repos\SF2_FFT_Accelerator\Softconsole\FFT_Accelerator\Debug/../firmware/CMSIS/startup_gcc/startup_m2sxxx.S:570
20000382:	e7fe      	b.n	20000382 <MemManage_Handler>

20000384 <BusFault_Handler>:
BusFault_Handler():
E:\Github_Repos\SF2_FFT_Accelerator\Softconsole\FFT_Accelerator\Debug/../firmware/CMSIS/startup_gcc/startup_m2sxxx.S:578
20000384:	e7fe      	b.n	20000384 <BusFault_Handler>

20000386 <UsageFault_Handler>:
UsageFault_Handler():
E:\Github_Repos\SF2_FFT_Accelerator\Softconsole\FFT_Accelerator\Debug/../firmware/CMSIS/startup_gcc/startup_m2sxxx.S:586
20000386:	e7fe      	b.n	20000386 <UsageFault_Handler>

20000388 <SVC_Handler>:
SVC_Handler():
E:\Github_Repos\SF2_FFT_Accelerator\Softconsole\FFT_Accelerator\Debug/../firmware/CMSIS/startup_gcc/startup_m2sxxx.S:594
20000388:	e7fe      	b.n	20000388 <SVC_Handler>

2000038a <DebugMon_Handler>:
DebugMon_Handler():
E:\Github_Repos\SF2_FFT_Accelerator\Softconsole\FFT_Accelerator\Debug/../firmware/CMSIS/startup_gcc/startup_m2sxxx.S:602
2000038a:	e7fe      	b.n	2000038a <DebugMon_Handler>

2000038c <PendSV_Handler>:
PendSV_Handler():
E:\Github_Repos\SF2_FFT_Accelerator\Softconsole\FFT_Accelerator\Debug/../firmware/CMSIS/startup_gcc/startup_m2sxxx.S:610
2000038c:	e7fe      	b.n	2000038c <PendSV_Handler>

2000038e <SysTick_Handler>:
SysTick_Handler():
E:\Github_Repos\SF2_FFT_Accelerator\Softconsole\FFT_Accelerator\Debug/../firmware/CMSIS/startup_gcc/startup_m2sxxx.S:618
2000038e:	e7fe      	b.n	2000038e <SysTick_Handler>

20000390 <WdogWakeup_IRQHandler>:
WdogWakeup_IRQHandler():
E:\Github_Repos\SF2_FFT_Accelerator\Softconsole\FFT_Accelerator\Debug/../firmware/CMSIS/startup_gcc/startup_m2sxxx.S:626
20000390:	e7fe      	b.n	20000390 <WdogWakeup_IRQHandler>

20000392 <RTC_Wakeup_IRQHandler>:
RTC_Wakeup_IRQHandler():
E:\Github_Repos\SF2_FFT_Accelerator\Softconsole\FFT_Accelerator\Debug/../firmware/CMSIS/startup_gcc/startup_m2sxxx.S:634
20000392:	e7fe      	b.n	20000392 <RTC_Wakeup_IRQHandler>

20000394 <SPI0_IRQHandler>:
SPI0_IRQHandler():
E:\Github_Repos\SF2_FFT_Accelerator\Softconsole\FFT_Accelerator\Debug/../firmware/CMSIS/startup_gcc/startup_m2sxxx.S:642
20000394:	e7fe      	b.n	20000394 <SPI0_IRQHandler>

20000396 <SPI1_IRQHandler>:
SPI1_IRQHandler():
E:\Github_Repos\SF2_FFT_Accelerator\Softconsole\FFT_Accelerator\Debug/../firmware/CMSIS/startup_gcc/startup_m2sxxx.S:650
20000396:	e7fe      	b.n	20000396 <SPI1_IRQHandler>

20000398 <I2C0_IRQHandler>:
I2C0_IRQHandler():
E:\Github_Repos\SF2_FFT_Accelerator\Softconsole\FFT_Accelerator\Debug/../firmware/CMSIS/startup_gcc/startup_m2sxxx.S:658
20000398:	e7fe      	b.n	20000398 <I2C0_IRQHandler>

2000039a <I2C0_SMBAlert_IRQHandler>:
I2C0_SMBAlert_IRQHandler():
E:\Github_Repos\SF2_FFT_Accelerator\Softconsole\FFT_Accelerator\Debug/../firmware/CMSIS/startup_gcc/startup_m2sxxx.S:666
2000039a:	e7fe      	b.n	2000039a <I2C0_SMBAlert_IRQHandler>

2000039c <I2C0_SMBus_IRQHandler>:
I2C0_SMBus_IRQHandler():
E:\Github_Repos\SF2_FFT_Accelerator\Softconsole\FFT_Accelerator\Debug/../firmware/CMSIS/startup_gcc/startup_m2sxxx.S:674
2000039c:	e7fe      	b.n	2000039c <I2C0_SMBus_IRQHandler>

2000039e <I2C1_IRQHandler>:
I2C1_IRQHandler():
E:\Github_Repos\SF2_FFT_Accelerator\Softconsole\FFT_Accelerator\Debug/../firmware/CMSIS/startup_gcc/startup_m2sxxx.S:682
2000039e:	e7fe      	b.n	2000039e <I2C1_IRQHandler>

200003a0 <I2C1_SMBAlert_IRQHandler>:
I2C1_SMBAlert_IRQHandler():
E:\Github_Repos\SF2_FFT_Accelerator\Softconsole\FFT_Accelerator\Debug/../firmware/CMSIS/startup_gcc/startup_m2sxxx.S:690
200003a0:	e7fe      	b.n	200003a0 <I2C1_SMBAlert_IRQHandler>

200003a2 <I2C1_SMBus_IRQHandler>:
I2C1_SMBus_IRQHandler():
E:\Github_Repos\SF2_FFT_Accelerator\Softconsole\FFT_Accelerator\Debug/../firmware/CMSIS/startup_gcc/startup_m2sxxx.S:698
200003a2:	e7fe      	b.n	200003a2 <I2C1_SMBus_IRQHandler>
E:\Github_Repos\SF2_FFT_Accelerator\Softconsole\FFT_Accelerator\Debug/../firmware/CMSIS/startup_gcc/startup_m2sxxx.S:706
200003a4:	e7fe      	b.n	200003a4 <I2C1_SMBus_IRQHandler+0x2>
E:\Github_Repos\SF2_FFT_Accelerator\Softconsole\FFT_Accelerator\Debug/../firmware/CMSIS/startup_gcc/startup_m2sxxx.S:714
200003a6:	e7fe      	b.n	200003a6 <I2C1_SMBus_IRQHandler+0x4>
E:\Github_Repos\SF2_FFT_Accelerator\Softconsole\FFT_Accelerator\Debug/../firmware/CMSIS/startup_gcc/startup_m2sxxx.S:722
200003a8:	e7fe      	b.n	200003a8 <I2C1_SMBus_IRQHandler+0x6>

200003aa <DMA_IRQHandler>:
DMA_IRQHandler():
E:\Github_Repos\SF2_FFT_Accelerator\Softconsole\FFT_Accelerator\Debug/../firmware/CMSIS/startup_gcc/startup_m2sxxx.S:730
200003aa:	e7fe      	b.n	200003aa <DMA_IRQHandler>

200003ac <Timer1_IRQHandler>:
Timer1_IRQHandler():
E:\Github_Repos\SF2_FFT_Accelerator\Softconsole\FFT_Accelerator\Debug/../firmware/CMSIS/startup_gcc/startup_m2sxxx.S:738
200003ac:	e7fe      	b.n	200003ac <Timer1_IRQHandler>

200003ae <Timer2_IRQHandler>:
Timer2_IRQHandler():
E:\Github_Repos\SF2_FFT_Accelerator\Softconsole\FFT_Accelerator\Debug/../firmware/CMSIS/startup_gcc/startup_m2sxxx.S:746
200003ae:	e7fe      	b.n	200003ae <Timer2_IRQHandler>

200003b0 <CAN_IRQHandler>:
CAN_IRQHandler():
E:\Github_Repos\SF2_FFT_Accelerator\Softconsole\FFT_Accelerator\Debug/../firmware/CMSIS/startup_gcc/startup_m2sxxx.S:754
200003b0:	e7fe      	b.n	200003b0 <CAN_IRQHandler>

200003b2 <ENVM0_IRQHandler>:
ENVM0_IRQHandler():
E:\Github_Repos\SF2_FFT_Accelerator\Softconsole\FFT_Accelerator\Debug/../firmware/CMSIS/startup_gcc/startup_m2sxxx.S:762
200003b2:	e7fe      	b.n	200003b2 <ENVM0_IRQHandler>

200003b4 <ENVM1_IRQHandler>:
ENVM1_IRQHandler():
E:\Github_Repos\SF2_FFT_Accelerator\Softconsole\FFT_Accelerator\Debug/../firmware/CMSIS/startup_gcc/startup_m2sxxx.S:770
200003b4:	e7fe      	b.n	200003b4 <ENVM1_IRQHandler>
E:\Github_Repos\SF2_FFT_Accelerator\Softconsole\FFT_Accelerator\Debug/../firmware/CMSIS/startup_gcc/startup_m2sxxx.S:778
200003b6:	e7fe      	b.n	200003b6 <ENVM1_IRQHandler+0x2>

200003b8 <USB_IRQHandler>:
USB_IRQHandler():
E:\Github_Repos\SF2_FFT_Accelerator\Softconsole\FFT_Accelerator\Debug/../firmware/CMSIS/startup_gcc/startup_m2sxxx.S:786
200003b8:	e7fe      	b.n	200003b8 <USB_IRQHandler>

200003ba <USB_DMA_IRQHandler>:
USB_DMA_IRQHandler():
E:\Github_Repos\SF2_FFT_Accelerator\Softconsole\FFT_Accelerator\Debug/../firmware/CMSIS/startup_gcc/startup_m2sxxx.S:794
200003ba:	e7fe      	b.n	200003ba <USB_DMA_IRQHandler>

200003bc <PLL_Lock_IRQHandler>:
PLL_Lock_IRQHandler():
E:\Github_Repos\SF2_FFT_Accelerator\Softconsole\FFT_Accelerator\Debug/../firmware/CMSIS/startup_gcc/startup_m2sxxx.S:802
200003bc:	e7fe      	b.n	200003bc <PLL_Lock_IRQHandler>

200003be <PLL_LockLost_IRQHandler>:
PLL_LockLost_IRQHandler():
E:\Github_Repos\SF2_FFT_Accelerator\Softconsole\FFT_Accelerator\Debug/../firmware/CMSIS/startup_gcc/startup_m2sxxx.S:810
200003be:	e7fe      	b.n	200003be <PLL_LockLost_IRQHandler>

200003c0 <CommSwitchError_IRQHandler>:
CommSwitchError_IRQHandler():
E:\Github_Repos\SF2_FFT_Accelerator\Softconsole\FFT_Accelerator\Debug/../firmware/CMSIS/startup_gcc/startup_m2sxxx.S:818
200003c0:	e7fe      	b.n	200003c0 <CommSwitchError_IRQHandler>

200003c2 <CacheError_IRQHandler>:
CacheError_IRQHandler():
E:\Github_Repos\SF2_FFT_Accelerator\Softconsole\FFT_Accelerator\Debug/../firmware/CMSIS/startup_gcc/startup_m2sxxx.S:826
200003c2:	e7fe      	b.n	200003c2 <CacheError_IRQHandler>

200003c4 <DDR_IRQHandler>:
DDR_IRQHandler():
E:\Github_Repos\SF2_FFT_Accelerator\Softconsole\FFT_Accelerator\Debug/../firmware/CMSIS/startup_gcc/startup_m2sxxx.S:834
200003c4:	e7fe      	b.n	200003c4 <DDR_IRQHandler>
E:\Github_Repos\SF2_FFT_Accelerator\Softconsole\FFT_Accelerator\Debug/../firmware/CMSIS/startup_gcc/startup_m2sxxx.S:842
200003c6:	e7fe      	b.n	200003c6 <DDR_IRQHandler+0x2>
E:\Github_Repos\SF2_FFT_Accelerator\Softconsole\FFT_Accelerator\Debug/../firmware/CMSIS/startup_gcc/startup_m2sxxx.S:850
200003c8:	e7fe      	b.n	200003c8 <DDR_IRQHandler+0x4>

200003ca <ECC_Error_IRQHandler>:
ECC_Error_IRQHandler():
E:\Github_Repos\SF2_FFT_Accelerator\Softconsole\FFT_Accelerator\Debug/../firmware/CMSIS/startup_gcc/startup_m2sxxx.S:858
200003ca:	e7fe      	b.n	200003ca <ECC_Error_IRQHandler>

200003cc <MDDR_IOCalib_IRQHandler>:
MDDR_IOCalib_IRQHandler():
E:\Github_Repos\SF2_FFT_Accelerator\Softconsole\FFT_Accelerator\Debug/../firmware/CMSIS/startup_gcc/startup_m2sxxx.S:866
200003cc:	e7fe      	b.n	200003cc <MDDR_IOCalib_IRQHandler>

200003ce <FAB_PLL_Lock_IRQHandler>:
FAB_PLL_Lock_IRQHandler():
E:\Github_Repos\SF2_FFT_Accelerator\Softconsole\FFT_Accelerator\Debug/../firmware/CMSIS/startup_gcc/startup_m2sxxx.S:874
200003ce:	e7fe      	b.n	200003ce <FAB_PLL_Lock_IRQHandler>

200003d0 <FAB_PLL_LockLost_IRQHandler>:
FAB_PLL_LockLost_IRQHandler():
E:\Github_Repos\SF2_FFT_Accelerator\Softconsole\FFT_Accelerator\Debug/../firmware/CMSIS/startup_gcc/startup_m2sxxx.S:882
200003d0:	e7fe      	b.n	200003d0 <FAB_PLL_LockLost_IRQHandler>

200003d2 <FIC64_IRQHandler>:
FIC64_IRQHandler():
E:\Github_Repos\SF2_FFT_Accelerator\Softconsole\FFT_Accelerator\Debug/../firmware/CMSIS/startup_gcc/startup_m2sxxx.S:890
200003d2:	e7fe      	b.n	200003d2 <FIC64_IRQHandler>
E:\Github_Repos\SF2_FFT_Accelerator\Softconsole\FFT_Accelerator\Debug/../firmware/CMSIS/startup_gcc/startup_m2sxxx.S:898
200003d4:	e7fe      	b.n	200003d4 <FIC64_IRQHandler+0x2>
E:\Github_Repos\SF2_FFT_Accelerator\Softconsole\FFT_Accelerator\Debug/../firmware/CMSIS/startup_gcc/startup_m2sxxx.S:906
200003d6:	e7fe      	b.n	200003d6 <FIC64_IRQHandler+0x4>

200003d8 <FabricIrq2_IRQHandler>:
FabricIrq2_IRQHandler():
E:\Github_Repos\SF2_FFT_Accelerator\Softconsole\FFT_Accelerator\Debug/../firmware/CMSIS/startup_gcc/startup_m2sxxx.S:914
200003d8:	e7fe      	b.n	200003d8 <FabricIrq2_IRQHandler>

200003da <FabricIrq3_IRQHandler>:
FabricIrq3_IRQHandler():
E:\Github_Repos\SF2_FFT_Accelerator\Softconsole\FFT_Accelerator\Debug/../firmware/CMSIS/startup_gcc/startup_m2sxxx.S:922
200003da:	e7fe      	b.n	200003da <FabricIrq3_IRQHandler>

200003dc <FabricIrq4_IRQHandler>:
FabricIrq4_IRQHandler():
E:\Github_Repos\SF2_FFT_Accelerator\Softconsole\FFT_Accelerator\Debug/../firmware/CMSIS/startup_gcc/startup_m2sxxx.S:930
200003dc:	e7fe      	b.n	200003dc <FabricIrq4_IRQHandler>

200003de <FabricIrq5_IRQHandler>:
FabricIrq5_IRQHandler():
E:\Github_Repos\SF2_FFT_Accelerator\Softconsole\FFT_Accelerator\Debug/../firmware/CMSIS/startup_gcc/startup_m2sxxx.S:938
200003de:	e7fe      	b.n	200003de <FabricIrq5_IRQHandler>

200003e0 <FabricIrq6_IRQHandler>:
FabricIrq6_IRQHandler():
E:\Github_Repos\SF2_FFT_Accelerator\Softconsole\FFT_Accelerator\Debug/../firmware/CMSIS/startup_gcc/startup_m2sxxx.S:946
200003e0:	e7fe      	b.n	200003e0 <FabricIrq6_IRQHandler>

200003e2 <FabricIrq7_IRQHandler>:
FabricIrq7_IRQHandler():
E:\Github_Repos\SF2_FFT_Accelerator\Softconsole\FFT_Accelerator\Debug/../firmware/CMSIS/startup_gcc/startup_m2sxxx.S:954
200003e2:	e7fe      	b.n	200003e2 <FabricIrq7_IRQHandler>

200003e4 <FabricIrq8_IRQHandler>:
FabricIrq8_IRQHandler():
E:\Github_Repos\SF2_FFT_Accelerator\Softconsole\FFT_Accelerator\Debug/../firmware/CMSIS/startup_gcc/startup_m2sxxx.S:962
200003e4:	e7fe      	b.n	200003e4 <FabricIrq8_IRQHandler>

200003e6 <FabricIrq9_IRQHandler>:
FabricIrq9_IRQHandler():
E:\Github_Repos\SF2_FFT_Accelerator\Softconsole\FFT_Accelerator\Debug/../firmware/CMSIS/startup_gcc/startup_m2sxxx.S:970
200003e6:	e7fe      	b.n	200003e6 <FabricIrq9_IRQHandler>

200003e8 <FabricIrq10_IRQHandler>:
FabricIrq10_IRQHandler():
E:\Github_Repos\SF2_FFT_Accelerator\Softconsole\FFT_Accelerator\Debug/../firmware/CMSIS/startup_gcc/startup_m2sxxx.S:978
200003e8:	e7fe      	b.n	200003e8 <FabricIrq10_IRQHandler>

200003ea <FabricIrq11_IRQHandler>:
FabricIrq11_IRQHandler():
E:\Github_Repos\SF2_FFT_Accelerator\Softconsole\FFT_Accelerator\Debug/../firmware/CMSIS/startup_gcc/startup_m2sxxx.S:986
200003ea:	e7fe      	b.n	200003ea <FabricIrq11_IRQHandler>

200003ec <FabricIrq12_IRQHandler>:
FabricIrq12_IRQHandler():
E:\Github_Repos\SF2_FFT_Accelerator\Softconsole\FFT_Accelerator\Debug/../firmware/CMSIS/startup_gcc/startup_m2sxxx.S:994
200003ec:	e7fe      	b.n	200003ec <FabricIrq12_IRQHandler>

200003ee <FabricIrq13_IRQHandler>:
FabricIrq13_IRQHandler():
E:\Github_Repos\SF2_FFT_Accelerator\Softconsole\FFT_Accelerator\Debug/../firmware/CMSIS/startup_gcc/startup_m2sxxx.S:1002
200003ee:	e7fe      	b.n	200003ee <FabricIrq13_IRQHandler>

200003f0 <FabricIrq14_IRQHandler>:
FabricIrq14_IRQHandler():
E:\Github_Repos\SF2_FFT_Accelerator\Softconsole\FFT_Accelerator\Debug/../firmware/CMSIS/startup_gcc/startup_m2sxxx.S:1010
200003f0:	e7fe      	b.n	200003f0 <FabricIrq14_IRQHandler>

200003f2 <FabricIrq15_IRQHandler>:
FabricIrq15_IRQHandler():
E:\Github_Repos\SF2_FFT_Accelerator\Softconsole\FFT_Accelerator\Debug/../firmware/CMSIS/startup_gcc/startup_m2sxxx.S:1018
200003f2:	e7fe      	b.n	200003f2 <FabricIrq15_IRQHandler>

200003f4 <GPIO0_IRQHandler>:
GPIO0_IRQHandler():
E:\Github_Repos\SF2_FFT_Accelerator\Softconsole\FFT_Accelerator\Debug/../firmware/CMSIS/startup_gcc/startup_m2sxxx.S:1026
200003f4:	e7fe      	b.n	200003f4 <GPIO0_IRQHandler>

200003f6 <GPIO1_IRQHandler>:
GPIO1_IRQHandler():
E:\Github_Repos\SF2_FFT_Accelerator\Softconsole\FFT_Accelerator\Debug/../firmware/CMSIS/startup_gcc/startup_m2sxxx.S:1034
200003f6:	e7fe      	b.n	200003f6 <GPIO1_IRQHandler>

200003f8 <GPIO2_IRQHandler>:
GPIO2_IRQHandler():
E:\Github_Repos\SF2_FFT_Accelerator\Softconsole\FFT_Accelerator\Debug/../firmware/CMSIS/startup_gcc/startup_m2sxxx.S:1042
200003f8:	e7fe      	b.n	200003f8 <GPIO2_IRQHandler>

200003fa <GPIO3_IRQHandler>:
GPIO3_IRQHandler():
E:\Github_Repos\SF2_FFT_Accelerator\Softconsole\FFT_Accelerator\Debug/../firmware/CMSIS/startup_gcc/startup_m2sxxx.S:1050
200003fa:	e7fe      	b.n	200003fa <GPIO3_IRQHandler>

200003fc <GPIO4_IRQHandler>:
GPIO4_IRQHandler():
E:\Github_Repos\SF2_FFT_Accelerator\Softconsole\FFT_Accelerator\Debug/../firmware/CMSIS/startup_gcc/startup_m2sxxx.S:1058
200003fc:	e7fe      	b.n	200003fc <GPIO4_IRQHandler>

200003fe <GPIO5_IRQHandler>:
GPIO5_IRQHandler():
E:\Github_Repos\SF2_FFT_Accelerator\Softconsole\FFT_Accelerator\Debug/../firmware/CMSIS/startup_gcc/startup_m2sxxx.S:1066
200003fe:	e7fe      	b.n	200003fe <GPIO5_IRQHandler>

20000400 <GPIO6_IRQHandler>:
GPIO6_IRQHandler():
E:\Github_Repos\SF2_FFT_Accelerator\Softconsole\FFT_Accelerator\Debug/../firmware/CMSIS/startup_gcc/startup_m2sxxx.S:1074
20000400:	e7fe      	b.n	20000400 <GPIO6_IRQHandler>

20000402 <GPIO7_IRQHandler>:
GPIO7_IRQHandler():
E:\Github_Repos\SF2_FFT_Accelerator\Softconsole\FFT_Accelerator\Debug/../firmware/CMSIS/startup_gcc/startup_m2sxxx.S:1082
20000402:	e7fe      	b.n	20000402 <GPIO7_IRQHandler>
E:\Github_Repos\SF2_FFT_Accelerator\Softconsole\FFT_Accelerator\Debug/../firmware/CMSIS/startup_gcc/startup_m2sxxx.S:1090
20000404:	e7fe      	b.n	20000404 <GPIO7_IRQHandler+0x2>
E:\Github_Repos\SF2_FFT_Accelerator\Softconsole\FFT_Accelerator\Debug/../firmware/CMSIS/startup_gcc/startup_m2sxxx.S:1098
20000406:	e7fe      	b.n	20000406 <GPIO7_IRQHandler+0x4>

20000408 <GPIO10_IRQHandler>:
GPIO10_IRQHandler():
E:\Github_Repos\SF2_FFT_Accelerator\Softconsole\FFT_Accelerator\Debug/../firmware/CMSIS/startup_gcc/startup_m2sxxx.S:1106
20000408:	e7fe      	b.n	20000408 <GPIO10_IRQHandler>

2000040a <GPIO11_IRQHandler>:
GPIO11_IRQHandler():
E:\Github_Repos\SF2_FFT_Accelerator\Softconsole\FFT_Accelerator\Debug/../firmware/CMSIS/startup_gcc/startup_m2sxxx.S:1114
2000040a:	e7fe      	b.n	2000040a <GPIO11_IRQHandler>

2000040c <GPIO12_IRQHandler>:
GPIO12_IRQHandler():
E:\Github_Repos\SF2_FFT_Accelerator\Softconsole\FFT_Accelerator\Debug/../firmware/CMSIS/startup_gcc/startup_m2sxxx.S:1122
2000040c:	e7fe      	b.n	2000040c <GPIO12_IRQHandler>

2000040e <GPIO13_IRQHandler>:
GPIO13_IRQHandler():
E:\Github_Repos\SF2_FFT_Accelerator\Softconsole\FFT_Accelerator\Debug/../firmware/CMSIS/startup_gcc/startup_m2sxxx.S:1130
2000040e:	e7fe      	b.n	2000040e <GPIO13_IRQHandler>

20000410 <GPIO14_IRQHandler>:
GPIO14_IRQHandler():
E:\Github_Repos\SF2_FFT_Accelerator\Softconsole\FFT_Accelerator\Debug/../firmware/CMSIS/startup_gcc/startup_m2sxxx.S:1138
20000410:	e7fe      	b.n	20000410 <GPIO14_IRQHandler>

20000412 <GPIO15_IRQHandler>:
GPIO15_IRQHandler():
E:\Github_Repos\SF2_FFT_Accelerator\Softconsole\FFT_Accelerator\Debug/../firmware/CMSIS/startup_gcc/startup_m2sxxx.S:1146
20000412:	e7fe      	b.n	20000412 <GPIO15_IRQHandler>

20000414 <GPIO16_IRQHandler>:
GPIO16_IRQHandler():
E:\Github_Repos\SF2_FFT_Accelerator\Softconsole\FFT_Accelerator\Debug/../firmware/CMSIS/startup_gcc/startup_m2sxxx.S:1154
20000414:	e7fe      	b.n	20000414 <GPIO16_IRQHandler>

20000416 <GPIO17_IRQHandler>:
GPIO17_IRQHandler():
E:\Github_Repos\SF2_FFT_Accelerator\Softconsole\FFT_Accelerator\Debug/../firmware/CMSIS/startup_gcc/startup_m2sxxx.S:1162
20000416:	e7fe      	b.n	20000416 <GPIO17_IRQHandler>

20000418 <GPIO18_IRQHandler>:
GPIO18_IRQHandler():
E:\Github_Repos\SF2_FFT_Accelerator\Softconsole\FFT_Accelerator\Debug/../firmware/CMSIS/startup_gcc/startup_m2sxxx.S:1170
20000418:	e7fe      	b.n	20000418 <GPIO18_IRQHandler>

2000041a <GPIO19_IRQHandler>:
GPIO19_IRQHandler():
E:\Github_Repos\SF2_FFT_Accelerator\Softconsole\FFT_Accelerator\Debug/../firmware/CMSIS/startup_gcc/startup_m2sxxx.S:1178
2000041a:	e7fe      	b.n	2000041a <GPIO19_IRQHandler>

2000041c <GPIO20_IRQHandler>:
GPIO20_IRQHandler():
E:\Github_Repos\SF2_FFT_Accelerator\Softconsole\FFT_Accelerator\Debug/../firmware/CMSIS/startup_gcc/startup_m2sxxx.S:1186
2000041c:	e7fe      	b.n	2000041c <GPIO20_IRQHandler>

2000041e <GPIO21_IRQHandler>:
GPIO21_IRQHandler():
E:\Github_Repos\SF2_FFT_Accelerator\Softconsole\FFT_Accelerator\Debug/../firmware/CMSIS/startup_gcc/startup_m2sxxx.S:1194
2000041e:	e7fe      	b.n	2000041e <GPIO21_IRQHandler>

20000420 <GPIO22_IRQHandler>:
GPIO22_IRQHandler():
E:\Github_Repos\SF2_FFT_Accelerator\Softconsole\FFT_Accelerator\Debug/../firmware/CMSIS/startup_gcc/startup_m2sxxx.S:1202
20000420:	e7fe      	b.n	20000420 <GPIO22_IRQHandler>

20000422 <GPIO23_IRQHandler>:
GPIO23_IRQHandler():
E:\Github_Repos\SF2_FFT_Accelerator\Softconsole\FFT_Accelerator\Debug/../firmware/CMSIS/startup_gcc/startup_m2sxxx.S:1210
20000422:	e7fe      	b.n	20000422 <GPIO23_IRQHandler>

20000424 <GPIO24_IRQHandler>:
GPIO24_IRQHandler():
E:\Github_Repos\SF2_FFT_Accelerator\Softconsole\FFT_Accelerator\Debug/../firmware/CMSIS/startup_gcc/startup_m2sxxx.S:1218
20000424:	e7fe      	b.n	20000424 <GPIO24_IRQHandler>

20000426 <GPIO25_IRQHandler>:
GPIO25_IRQHandler():
E:\Github_Repos\SF2_FFT_Accelerator\Softconsole\FFT_Accelerator\Debug/../firmware/CMSIS/startup_gcc/startup_m2sxxx.S:1226
20000426:	e7fe      	b.n	20000426 <GPIO25_IRQHandler>

20000428 <GPIO26_IRQHandler>:
GPIO26_IRQHandler():
E:\Github_Repos\SF2_FFT_Accelerator\Softconsole\FFT_Accelerator\Debug/../firmware/CMSIS/startup_gcc/startup_m2sxxx.S:1234
20000428:	e7fe      	b.n	20000428 <GPIO26_IRQHandler>

2000042a <GPIO27_IRQHandler>:
GPIO27_IRQHandler():
E:\Github_Repos\SF2_FFT_Accelerator\Softconsole\FFT_Accelerator\Debug/../firmware/CMSIS/startup_gcc/startup_m2sxxx.S:1242
2000042a:	e7fe      	b.n	2000042a <GPIO27_IRQHandler>

2000042c <GPIO28_IRQHandler>:
GPIO28_IRQHandler():
E:\Github_Repos\SF2_FFT_Accelerator\Softconsole\FFT_Accelerator\Debug/../firmware/CMSIS/startup_gcc/startup_m2sxxx.S:1250
2000042c:	e7fe      	b.n	2000042c <GPIO28_IRQHandler>

2000042e <GPIO29_IRQHandler>:
GPIO29_IRQHandler():
E:\Github_Repos\SF2_FFT_Accelerator\Softconsole\FFT_Accelerator\Debug/../firmware/CMSIS/startup_gcc/startup_m2sxxx.S:1258
2000042e:	e7fe      	b.n	2000042e <GPIO29_IRQHandler>

20000430 <GPIO30_IRQHandler>:
GPIO30_IRQHandler():
E:\Github_Repos\SF2_FFT_Accelerator\Softconsole\FFT_Accelerator\Debug/../firmware/CMSIS/startup_gcc/startup_m2sxxx.S:1266
20000430:	e7fe      	b.n	20000430 <GPIO30_IRQHandler>

20000432 <GPIO31_IRQHandler>:
GPIO31_IRQHandler():
E:\Github_Repos\SF2_FFT_Accelerator\Softconsole\FFT_Accelerator\Debug/../firmware/CMSIS/startup_gcc/startup_m2sxxx.S:1274
20000432:	e7fe      	b.n	20000432 <GPIO31_IRQHandler>

20000434 <mscc_post_hw_cfg_init>:
mscc_post_hw_cfg_init():
E:\Github_Repos\SF2_FFT_Accelerator\Softconsole\FFT_Accelerator\Debug/../firmware/CMSIS/startup_gcc/startup_m2sxxx.S:1282
20000434:	4770      	bx	lr

20000436 <RAM_INIT_PATTERN>:
RAM_INIT_PATTERN():
E:\Github_Repos\SF2_FFT_Accelerator\Softconsole\FFT_Accelerator\Debug/../firmware/CMSIS/startup_gcc/startup_m2sxxx.S:1282
20000436:	0000      	.short	0x0000
	...

2000043a <HEAP_INIT_PATTERN>:
HEAP_INIT_PATTERN():
E:\Github_Repos\SF2_FFT_Accelerator\Softconsole\FFT_Accelerator\Debug/../firmware/CMSIS/startup_gcc/startup_m2sxxx.S:1282
2000043a:	a2a2      	.short	0xa2a2
2000043c:	a2a2      	.short	0xa2a2

2000043e <SF2_ESRAM_CR>:
SF2_ESRAM_CR():
E:\Github_Repos\SF2_FFT_Accelerator\Softconsole\FFT_Accelerator\Debug/../firmware/CMSIS/startup_gcc/startup_m2sxxx.S:1282
2000043e:	8000      	.short	0x8000
20000440:	4003      	.short	0x4003

20000442 <SF2_DDR_CR>:
SF2_DDR_CR():
E:\Github_Repos\SF2_FFT_Accelerator\Softconsole\FFT_Accelerator\Debug/../firmware/CMSIS/startup_gcc/startup_m2sxxx.S:1282
20000442:	8008      	.short	0x8008
20000444:	4003      	.short	0x4003

20000446 <SF2_ENVM_REMAP_CR>:
SF2_ENVM_REMAP_CR():
E:\Github_Repos\SF2_FFT_Accelerator\Softconsole\FFT_Accelerator\Debug/../firmware/CMSIS/startup_gcc/startup_m2sxxx.S:1282
20000446:	8010      	.short	0x8010
20000448:	4003      	.short	0x4003

2000044a <SF2_DDRB_NB_SIZE>:
SF2_DDRB_NB_SIZE():
E:\Github_Repos\SF2_FFT_Accelerator\Softconsole\FFT_Accelerator\Debug/../firmware/CMSIS/startup_gcc/startup_m2sxxx.S:1282
2000044a:	8030      	.short	0x8030
2000044c:	4003      	.short	0x4003

2000044e <SF2_DDRB_CR>:
SF2_DDRB_CR():
E:\Github_Repos\SF2_FFT_Accelerator\Softconsole\FFT_Accelerator\Debug/../firmware/CMSIS/startup_gcc/startup_m2sxxx.S:1282
2000044e:	8034      	.short	0x8034
20000450:	4003      	.short	0x4003

20000452 <SF2_EDAC_CR>:
SF2_EDAC_CR():
E:\Github_Repos\SF2_FFT_Accelerator\Softconsole\FFT_Accelerator\Debug/../firmware/CMSIS/startup_gcc/startup_m2sxxx.S:1282
20000452:	8038      	.short	0x8038
20000454:	4003      	.short	0x4003

20000456 <SF2_MDDR_MODE_CR>:
SF2_MDDR_MODE_CR():
E:\Github_Repos\SF2_FFT_Accelerator\Softconsole\FFT_Accelerator\Debug/../firmware/CMSIS/startup_gcc/startup_m2sxxx.S:1282
20000456:	0818      	.short	0x0818
20000458:	00004002 	.word	0x00004002
E:\Github_Repos\SF2_FFT_Accelerator\Softconsole\FFT_Accelerator\Debug/../firmware/CMSIS/startup_gcc/startup_m2sxxx.S:168
2000045c:	2000f000 	.word	0x2000f000
E:\Github_Repos\SF2_FFT_Accelerator\Softconsole\FFT_Accelerator\Debug/../firmware/CMSIS/startup_gcc/startup_m2sxxx.S:169
20000460:	20010000 	.word	0x20010000
E:\Github_Repos\SF2_FFT_Accelerator\Softconsole\FFT_Accelerator\Debug/../firmware/CMSIS/startup_gcc/startup_m2sxxx.S:177
20000464:	20003bb9 	.word	0x20003bb9
	...
E:\Github_Repos\SF2_FFT_Accelerator\Softconsole\FFT_Accelerator\Debug/../firmware/CMSIS/startup_gcc/startup_m2sxxx.S:243
20000470:	20000000 	.word	0x20000000
E:\Github_Repos\SF2_FFT_Accelerator\Softconsole\FFT_Accelerator\Debug/../firmware/CMSIS/startup_gcc/startup_m2sxxx.S:244
20000474:	20000000 	.word	0x20000000
E:\Github_Repos\SF2_FFT_Accelerator\Softconsole\FFT_Accelerator\Debug/../firmware/CMSIS/startup_gcc/startup_m2sxxx.S:245
20000478:	20000190 	.word	0x20000190
E:\Github_Repos\SF2_FFT_Accelerator\Softconsole\FFT_Accelerator\Debug/../firmware/CMSIS/startup_gcc/startup_m2sxxx.S:252
2000047c:	200004b0 	.word	0x200004b0
E:\Github_Repos\SF2_FFT_Accelerator\Softconsole\FFT_Accelerator\Debug/../firmware/CMSIS/startup_gcc/startup_m2sxxx.S:253
20000480:	200004b0 	.word	0x200004b0
E:\Github_Repos\SF2_FFT_Accelerator\Softconsole\FFT_Accelerator\Debug/../firmware/CMSIS/startup_gcc/startup_m2sxxx.S:254
20000484:	20004a30 	.word	0x20004a30
E:\Github_Repos\SF2_FFT_Accelerator\Softconsole\FFT_Accelerator\Debug/../firmware/CMSIS/startup_gcc/startup_m2sxxx.S:262
20000488:	20004a30 	.word	0x20004a30
E:\Github_Repos\SF2_FFT_Accelerator\Softconsole\FFT_Accelerator\Debug/../firmware/CMSIS/startup_gcc/startup_m2sxxx.S:263
2000048c:	20004a30 	.word	0x20004a30
E:\Github_Repos\SF2_FFT_Accelerator\Softconsole\FFT_Accelerator\Debug/../firmware/CMSIS/startup_gcc/startup_m2sxxx.S:264
20000490:	200050d0 	.word	0x200050d0
E:\Github_Repos\SF2_FFT_Accelerator\Softconsole\FFT_Accelerator\Debug/../firmware/CMSIS/startup_gcc/startup_m2sxxx.S:271
20000494:	200050d0 	.word	0x200050d0
E:\Github_Repos\SF2_FFT_Accelerator\Softconsole\FFT_Accelerator\Debug/../firmware/CMSIS/startup_gcc/startup_m2sxxx.S:272
20000498:	200081f0 	.word	0x200081f0
E:\Github_Repos\SF2_FFT_Accelerator\Softconsole\FFT_Accelerator\Debug/../firmware/CMSIS/startup_gcc/startup_m2sxxx.S:289
2000049c:	200081f0 	.word	0x200081f0
E:\Github_Repos\SF2_FFT_Accelerator\Softconsole\FFT_Accelerator\Debug/../firmware/CMSIS/startup_gcc/startup_m2sxxx.S:290
200004a0:	2000f000 	.word	0x2000f000
E:\Github_Repos\SF2_FFT_Accelerator\Softconsole\FFT_Accelerator\Debug/../firmware/CMSIS/startup_gcc/startup_m2sxxx.S:313
200004a4:	20003e05 	.word	0x20003e05
E:\Github_Repos\SF2_FFT_Accelerator\Softconsole\FFT_Accelerator\Debug/../firmware/CMSIS/startup_gcc/startup_m2sxxx.S:323
200004a8:	20000c69 	.word	0x20000c69
200004ac:	00000000 	.word	0x00000000

Disassembly of section .text:

200004b0 <deregister_tm_clones>:
__text_start():
200004b0:	4803      	ldr	r0, [pc, #12]	; (200004c0 <__text_load+0x10>)
200004b2:	4b04      	ldr	r3, [pc, #16]	; (200004c4 <__text_load+0x14>)
200004b4:	4283      	cmp	r3, r0
200004b6:	d002      	beq.n	200004be <deregister_tm_clones+0xe>
200004b8:	4b03      	ldr	r3, [pc, #12]	; (200004c8 <__text_load+0x18>)
200004ba:	b103      	cbz	r3, 200004be <deregister_tm_clones+0xe>
200004bc:	4718      	bx	r3
200004be:	4770      	bx	lr
200004c0:	200050d0 	.word	0x200050d0
200004c4:	200050d0 	.word	0x200050d0
200004c8:	00000000 	.word	0x00000000

200004cc <register_tm_clones>:
register_tm_clones():
200004cc:	4805      	ldr	r0, [pc, #20]	; (200004e4 <register_tm_clones+0x18>)
200004ce:	4906      	ldr	r1, [pc, #24]	; (200004e8 <register_tm_clones+0x1c>)
200004d0:	1a09      	subs	r1, r1, r0
200004d2:	1089      	asrs	r1, r1, #2
200004d4:	eb01 71d1 	add.w	r1, r1, r1, lsr #31
200004d8:	1049      	asrs	r1, r1, #1
200004da:	d002      	beq.n	200004e2 <register_tm_clones+0x16>
200004dc:	4b03      	ldr	r3, [pc, #12]	; (200004ec <register_tm_clones+0x20>)
200004de:	b103      	cbz	r3, 200004e2 <register_tm_clones+0x16>
200004e0:	4718      	bx	r3
200004e2:	4770      	bx	lr
200004e4:	200050d0 	.word	0x200050d0
200004e8:	200050d0 	.word	0x200050d0
200004ec:	00000000 	.word	0x00000000

200004f0 <__do_global_dtors_aux>:
__do_global_dtors_aux():
200004f0:	b510      	push	{r4, lr}
200004f2:	4c06      	ldr	r4, [pc, #24]	; (2000050c <__do_global_dtors_aux+0x1c>)
200004f4:	7823      	ldrb	r3, [r4, #0]
200004f6:	b943      	cbnz	r3, 2000050a <__do_global_dtors_aux+0x1a>
200004f8:	f7ff ffda 	bl	200004b0 <deregister_tm_clones>
200004fc:	4b04      	ldr	r3, [pc, #16]	; (20000510 <__do_global_dtors_aux+0x20>)
200004fe:	b113      	cbz	r3, 20000506 <__do_global_dtors_aux+0x16>
20000500:	4804      	ldr	r0, [pc, #16]	; (20000514 <__do_global_dtors_aux+0x24>)
20000502:	f3af 8000 	nop.w
20000506:	2301      	movs	r3, #1
20000508:	7023      	strb	r3, [r4, #0]
2000050a:	bd10      	pop	{r4, pc}
2000050c:	200050d0 	.word	0x200050d0
20000510:	00000000 	.word	0x00000000
20000514:	20004a0c 	.word	0x20004a0c

20000518 <frame_dummy>:
frame_dummy():
20000518:	b508      	push	{r3, lr}
2000051a:	4b05      	ldr	r3, [pc, #20]	; (20000530 <frame_dummy+0x18>)
2000051c:	b11b      	cbz	r3, 20000526 <frame_dummy+0xe>
2000051e:	4905      	ldr	r1, [pc, #20]	; (20000534 <frame_dummy+0x1c>)
20000520:	4805      	ldr	r0, [pc, #20]	; (20000538 <frame_dummy+0x20>)
20000522:	f3af 8000 	nop.w
20000526:	e8bd 4008 	ldmia.w	sp!, {r3, lr}
2000052a:	f7ff bfcf 	b.w	200004cc <register_tm_clones>
2000052e:	bf00      	nop
20000530:	00000000 	.word	0x00000000
20000534:	200050d4 	.word	0x200050d4
20000538:	20004a0c 	.word	0x20004a0c

2000053c <ARP_init>:
ARP_init():
E:\Github_Repos\SF2_Eth_FFT\Softconsole\FFT_Accelerator\Debug/../src/ARP_protocol.c:33
(
    //ARP_instance_t my_ARP,
    uint8_t * my_mac,
    const uint8_t * my_ip
)
{
2000053c:	b480      	push	{r7}
2000053e:	b083      	sub	sp, #12
20000540:	af00      	add	r7, sp, #0
20000542:	6078      	str	r0, [r7, #4]
20000544:	6039      	str	r1, [r7, #0]
E:\Github_Repos\SF2_Eth_FFT\Softconsole\FFT_Accelerator\Debug/../src/ARP_protocol.c:34
    ARP_stuff.my_mac_addr[0] = my_mac[0];
20000546:	687b      	ldr	r3, [r7, #4]
20000548:	781a      	ldrb	r2, [r3, #0]
2000054a:	4b35      	ldr	r3, [pc, #212]	; (20000620 <ARP_init+0xe4>)
2000054c:	701a      	strb	r2, [r3, #0]
E:\Github_Repos\SF2_Eth_FFT\Softconsole\FFT_Accelerator\Debug/../src/ARP_protocol.c:35
    ARP_stuff.my_mac_addr[1] = my_mac[1];
2000054e:	687b      	ldr	r3, [r7, #4]
20000550:	785a      	ldrb	r2, [r3, #1]
20000552:	4b33      	ldr	r3, [pc, #204]	; (20000620 <ARP_init+0xe4>)
20000554:	705a      	strb	r2, [r3, #1]
E:\Github_Repos\SF2_Eth_FFT\Softconsole\FFT_Accelerator\Debug/../src/ARP_protocol.c:36
    ARP_stuff.my_mac_addr[2] = my_mac[2];
20000556:	687b      	ldr	r3, [r7, #4]
20000558:	789a      	ldrb	r2, [r3, #2]
2000055a:	4b31      	ldr	r3, [pc, #196]	; (20000620 <ARP_init+0xe4>)
2000055c:	709a      	strb	r2, [r3, #2]
E:\Github_Repos\SF2_Eth_FFT\Softconsole\FFT_Accelerator\Debug/../src/ARP_protocol.c:37
    ARP_stuff.my_mac_addr[3] = my_mac[3];
2000055e:	687b      	ldr	r3, [r7, #4]
20000560:	78da      	ldrb	r2, [r3, #3]
20000562:	4b2f      	ldr	r3, [pc, #188]	; (20000620 <ARP_init+0xe4>)
20000564:	70da      	strb	r2, [r3, #3]
E:\Github_Repos\SF2_Eth_FFT\Softconsole\FFT_Accelerator\Debug/../src/ARP_protocol.c:38
    ARP_stuff.my_mac_addr[4] = my_mac[4];
20000566:	687b      	ldr	r3, [r7, #4]
20000568:	791a      	ldrb	r2, [r3, #4]
2000056a:	4b2d      	ldr	r3, [pc, #180]	; (20000620 <ARP_init+0xe4>)
2000056c:	711a      	strb	r2, [r3, #4]
E:\Github_Repos\SF2_Eth_FFT\Softconsole\FFT_Accelerator\Debug/../src/ARP_protocol.c:39
    ARP_stuff.my_mac_addr[5] = my_mac[5];
2000056e:	687b      	ldr	r3, [r7, #4]
20000570:	795a      	ldrb	r2, [r3, #5]
20000572:	4b2b      	ldr	r3, [pc, #172]	; (20000620 <ARP_init+0xe4>)
20000574:	715a      	strb	r2, [r3, #5]
E:\Github_Repos\SF2_Eth_FFT\Softconsole\FFT_Accelerator\Debug/../src/ARP_protocol.c:41

    ARP_stuff.my_ip_addr[0] = my_ip[0];
20000576:	683b      	ldr	r3, [r7, #0]
20000578:	781a      	ldrb	r2, [r3, #0]
2000057a:	4b29      	ldr	r3, [pc, #164]	; (20000620 <ARP_init+0xe4>)
2000057c:	719a      	strb	r2, [r3, #6]
E:\Github_Repos\SF2_Eth_FFT\Softconsole\FFT_Accelerator\Debug/../src/ARP_protocol.c:42
    ARP_stuff.my_ip_addr[1] = my_ip[1];
2000057e:	683b      	ldr	r3, [r7, #0]
20000580:	785a      	ldrb	r2, [r3, #1]
20000582:	4b27      	ldr	r3, [pc, #156]	; (20000620 <ARP_init+0xe4>)
20000584:	71da      	strb	r2, [r3, #7]
E:\Github_Repos\SF2_Eth_FFT\Softconsole\FFT_Accelerator\Debug/../src/ARP_protocol.c:43
    ARP_stuff.my_ip_addr[2] = my_ip[2];
20000586:	683b      	ldr	r3, [r7, #0]
20000588:	789a      	ldrb	r2, [r3, #2]
2000058a:	4b25      	ldr	r3, [pc, #148]	; (20000620 <ARP_init+0xe4>)
2000058c:	721a      	strb	r2, [r3, #8]
E:\Github_Repos\SF2_Eth_FFT\Softconsole\FFT_Accelerator\Debug/../src/ARP_protocol.c:44
    ARP_stuff.my_ip_addr[3] = my_ip[3];
2000058e:	683b      	ldr	r3, [r7, #0]
20000590:	78da      	ldrb	r2, [r3, #3]
20000592:	4b23      	ldr	r3, [pc, #140]	; (20000620 <ARP_init+0xe4>)
20000594:	725a      	strb	r2, [r3, #9]
E:\Github_Repos\SF2_Eth_FFT\Softconsole\FFT_Accelerator\Debug/../src/ARP_protocol.c:47

    /* set source MAC to init value */
    arp_buffer[6] = ARP_stuff.my_mac_addr[0];
20000596:	4b22      	ldr	r3, [pc, #136]	; (20000620 <ARP_init+0xe4>)
20000598:	781a      	ldrb	r2, [r3, #0]
2000059a:	4b22      	ldr	r3, [pc, #136]	; (20000624 <ARP_init+0xe8>)
2000059c:	719a      	strb	r2, [r3, #6]
E:\Github_Repos\SF2_Eth_FFT\Softconsole\FFT_Accelerator\Debug/../src/ARP_protocol.c:48
    arp_buffer[7] = ARP_stuff.my_mac_addr[1];
2000059e:	4b20      	ldr	r3, [pc, #128]	; (20000620 <ARP_init+0xe4>)
200005a0:	785a      	ldrb	r2, [r3, #1]
200005a2:	4b20      	ldr	r3, [pc, #128]	; (20000624 <ARP_init+0xe8>)
200005a4:	71da      	strb	r2, [r3, #7]
E:\Github_Repos\SF2_Eth_FFT\Softconsole\FFT_Accelerator\Debug/../src/ARP_protocol.c:49
    arp_buffer[8] = ARP_stuff.my_mac_addr[2];
200005a6:	4b1e      	ldr	r3, [pc, #120]	; (20000620 <ARP_init+0xe4>)
200005a8:	789a      	ldrb	r2, [r3, #2]
200005aa:	4b1e      	ldr	r3, [pc, #120]	; (20000624 <ARP_init+0xe8>)
200005ac:	721a      	strb	r2, [r3, #8]
E:\Github_Repos\SF2_Eth_FFT\Softconsole\FFT_Accelerator\Debug/../src/ARP_protocol.c:50
    arp_buffer[9] = ARP_stuff.my_mac_addr[3];
200005ae:	4b1c      	ldr	r3, [pc, #112]	; (20000620 <ARP_init+0xe4>)
200005b0:	78da      	ldrb	r2, [r3, #3]
200005b2:	4b1c      	ldr	r3, [pc, #112]	; (20000624 <ARP_init+0xe8>)
200005b4:	725a      	strb	r2, [r3, #9]
E:\Github_Repos\SF2_Eth_FFT\Softconsole\FFT_Accelerator\Debug/../src/ARP_protocol.c:51
    arp_buffer[10] = ARP_stuff.my_mac_addr[4];
200005b6:	4b1a      	ldr	r3, [pc, #104]	; (20000620 <ARP_init+0xe4>)
200005b8:	791a      	ldrb	r2, [r3, #4]
200005ba:	4b1a      	ldr	r3, [pc, #104]	; (20000624 <ARP_init+0xe8>)
200005bc:	729a      	strb	r2, [r3, #10]
E:\Github_Repos\SF2_Eth_FFT\Softconsole\FFT_Accelerator\Debug/../src/ARP_protocol.c:52
    arp_buffer[11] = ARP_stuff.my_mac_addr[5];
200005be:	4b18      	ldr	r3, [pc, #96]	; (20000620 <ARP_init+0xe4>)
200005c0:	795a      	ldrb	r2, [r3, #5]
200005c2:	4b18      	ldr	r3, [pc, #96]	; (20000624 <ARP_init+0xe8>)
200005c4:	72da      	strb	r2, [r3, #11]
E:\Github_Repos\SF2_Eth_FFT\Softconsole\FFT_Accelerator\Debug/../src/ARP_protocol.c:55

    /* set sender MAC to init value */
    arp_buffer[22] = ARP_stuff.my_mac_addr[0];
200005c6:	4b16      	ldr	r3, [pc, #88]	; (20000620 <ARP_init+0xe4>)
200005c8:	781a      	ldrb	r2, [r3, #0]
200005ca:	4b16      	ldr	r3, [pc, #88]	; (20000624 <ARP_init+0xe8>)
200005cc:	759a      	strb	r2, [r3, #22]
E:\Github_Repos\SF2_Eth_FFT\Softconsole\FFT_Accelerator\Debug/../src/ARP_protocol.c:56
    arp_buffer[23] = ARP_stuff.my_mac_addr[1];
200005ce:	4b14      	ldr	r3, [pc, #80]	; (20000620 <ARP_init+0xe4>)
200005d0:	785a      	ldrb	r2, [r3, #1]
200005d2:	4b14      	ldr	r3, [pc, #80]	; (20000624 <ARP_init+0xe8>)
200005d4:	75da      	strb	r2, [r3, #23]
E:\Github_Repos\SF2_Eth_FFT\Softconsole\FFT_Accelerator\Debug/../src/ARP_protocol.c:57
    arp_buffer[24] = ARP_stuff.my_mac_addr[2];
200005d6:	4b12      	ldr	r3, [pc, #72]	; (20000620 <ARP_init+0xe4>)
200005d8:	789a      	ldrb	r2, [r3, #2]
200005da:	4b12      	ldr	r3, [pc, #72]	; (20000624 <ARP_init+0xe8>)
200005dc:	761a      	strb	r2, [r3, #24]
E:\Github_Repos\SF2_Eth_FFT\Softconsole\FFT_Accelerator\Debug/../src/ARP_protocol.c:58
    arp_buffer[25] = ARP_stuff.my_mac_addr[3];
200005de:	4b10      	ldr	r3, [pc, #64]	; (20000620 <ARP_init+0xe4>)
200005e0:	78da      	ldrb	r2, [r3, #3]
200005e2:	4b10      	ldr	r3, [pc, #64]	; (20000624 <ARP_init+0xe8>)
200005e4:	765a      	strb	r2, [r3, #25]
E:\Github_Repos\SF2_Eth_FFT\Softconsole\FFT_Accelerator\Debug/../src/ARP_protocol.c:59
    arp_buffer[26] = ARP_stuff.my_mac_addr[4];
200005e6:	4b0e      	ldr	r3, [pc, #56]	; (20000620 <ARP_init+0xe4>)
200005e8:	791a      	ldrb	r2, [r3, #4]
200005ea:	4b0e      	ldr	r3, [pc, #56]	; (20000624 <ARP_init+0xe8>)
200005ec:	769a      	strb	r2, [r3, #26]
E:\Github_Repos\SF2_Eth_FFT\Softconsole\FFT_Accelerator\Debug/../src/ARP_protocol.c:60
    arp_buffer[27] = ARP_stuff.my_mac_addr[5];
200005ee:	4b0c      	ldr	r3, [pc, #48]	; (20000620 <ARP_init+0xe4>)
200005f0:	795a      	ldrb	r2, [r3, #5]
200005f2:	4b0c      	ldr	r3, [pc, #48]	; (20000624 <ARP_init+0xe8>)
200005f4:	76da      	strb	r2, [r3, #27]
E:\Github_Repos\SF2_Eth_FFT\Softconsole\FFT_Accelerator\Debug/../src/ARP_protocol.c:63

    /* set sender IP to init value */
    arp_buffer[28] = ARP_stuff.my_ip_addr[0];
200005f6:	4b0a      	ldr	r3, [pc, #40]	; (20000620 <ARP_init+0xe4>)
200005f8:	799a      	ldrb	r2, [r3, #6]
200005fa:	4b0a      	ldr	r3, [pc, #40]	; (20000624 <ARP_init+0xe8>)
200005fc:	771a      	strb	r2, [r3, #28]
E:\Github_Repos\SF2_Eth_FFT\Softconsole\FFT_Accelerator\Debug/../src/ARP_protocol.c:64
    arp_buffer[29] = ARP_stuff.my_ip_addr[1];
200005fe:	4b08      	ldr	r3, [pc, #32]	; (20000620 <ARP_init+0xe4>)
20000600:	79da      	ldrb	r2, [r3, #7]
20000602:	4b08      	ldr	r3, [pc, #32]	; (20000624 <ARP_init+0xe8>)
20000604:	775a      	strb	r2, [r3, #29]
E:\Github_Repos\SF2_Eth_FFT\Softconsole\FFT_Accelerator\Debug/../src/ARP_protocol.c:65
    arp_buffer[30] = ARP_stuff.my_ip_addr[2];
20000606:	4b06      	ldr	r3, [pc, #24]	; (20000620 <ARP_init+0xe4>)
20000608:	7a1a      	ldrb	r2, [r3, #8]
2000060a:	4b06      	ldr	r3, [pc, #24]	; (20000624 <ARP_init+0xe8>)
2000060c:	779a      	strb	r2, [r3, #30]
E:\Github_Repos\SF2_Eth_FFT\Softconsole\FFT_Accelerator\Debug/../src/ARP_protocol.c:66
    arp_buffer[31] = ARP_stuff.my_ip_addr[3];
2000060e:	4b04      	ldr	r3, [pc, #16]	; (20000620 <ARP_init+0xe4>)
20000610:	7a5a      	ldrb	r2, [r3, #9]
20000612:	4b04      	ldr	r3, [pc, #16]	; (20000624 <ARP_init+0xe8>)
20000614:	77da      	strb	r2, [r3, #31]
E:\Github_Repos\SF2_Eth_FFT\Softconsole\FFT_Accelerator\Debug/../src/ARP_protocol.c:67
}
20000616:	bf00      	nop
20000618:	370c      	adds	r7, #12
2000061a:	46bd      	mov	sp, r7
2000061c:	bc80      	pop	{r7}
2000061e:	4770      	bx	lr
20000620:	2000811c 	.word	0x2000811c
20000624:	20004a30 	.word	0x20004a30

20000628 <ARP_get_response>:
ARP_get_response():
E:\Github_Repos\SF2_Eth_FFT\Softconsole\FFT_Accelerator\Debug/../src/ARP_protocol.c:111
int ARP_get_response
(
    uint8_t * arp_buf_return,
    uint8_t * inc_ARP_pkt
)
{
20000628:	b480      	push	{r7}
2000062a:	b083      	sub	sp, #12
2000062c:	af00      	add	r7, sp, #0
2000062e:	6078      	str	r0, [r7, #4]
20000630:	6039      	str	r1, [r7, #0]
E:\Github_Repos\SF2_Eth_FFT\Softconsole\FFT_Accelerator\Debug/../src/ARP_protocol.c:113
    /* set destination MAC to sender of request */
    arp_buffer[0] = inc_ARP_pkt[22];
20000632:	683b      	ldr	r3, [r7, #0]
20000634:	7d9a      	ldrb	r2, [r3, #22]
20000636:	4b2b      	ldr	r3, [pc, #172]	; (200006e4 <ARP_get_response+0xbc>)
20000638:	701a      	strb	r2, [r3, #0]
E:\Github_Repos\SF2_Eth_FFT\Softconsole\FFT_Accelerator\Debug/../src/ARP_protocol.c:114
    arp_buffer[1] = inc_ARP_pkt[23];
2000063a:	683b      	ldr	r3, [r7, #0]
2000063c:	7dda      	ldrb	r2, [r3, #23]
2000063e:	4b29      	ldr	r3, [pc, #164]	; (200006e4 <ARP_get_response+0xbc>)
20000640:	705a      	strb	r2, [r3, #1]
E:\Github_Repos\SF2_Eth_FFT\Softconsole\FFT_Accelerator\Debug/../src/ARP_protocol.c:115
    arp_buffer[2] = inc_ARP_pkt[24];
20000642:	683b      	ldr	r3, [r7, #0]
20000644:	7e1a      	ldrb	r2, [r3, #24]
20000646:	4b27      	ldr	r3, [pc, #156]	; (200006e4 <ARP_get_response+0xbc>)
20000648:	709a      	strb	r2, [r3, #2]
E:\Github_Repos\SF2_Eth_FFT\Softconsole\FFT_Accelerator\Debug/../src/ARP_protocol.c:116
    arp_buffer[3] = inc_ARP_pkt[25];
2000064a:	683b      	ldr	r3, [r7, #0]
2000064c:	7e5a      	ldrb	r2, [r3, #25]
2000064e:	4b25      	ldr	r3, [pc, #148]	; (200006e4 <ARP_get_response+0xbc>)
20000650:	70da      	strb	r2, [r3, #3]
E:\Github_Repos\SF2_Eth_FFT\Softconsole\FFT_Accelerator\Debug/../src/ARP_protocol.c:117
    arp_buffer[4] = inc_ARP_pkt[26];
20000652:	683b      	ldr	r3, [r7, #0]
20000654:	7e9a      	ldrb	r2, [r3, #26]
20000656:	4b23      	ldr	r3, [pc, #140]	; (200006e4 <ARP_get_response+0xbc>)
20000658:	711a      	strb	r2, [r3, #4]
E:\Github_Repos\SF2_Eth_FFT\Softconsole\FFT_Accelerator\Debug/../src/ARP_protocol.c:118
    arp_buffer[5] = inc_ARP_pkt[27];
2000065a:	683b      	ldr	r3, [r7, #0]
2000065c:	7eda      	ldrb	r2, [r3, #27]
2000065e:	4b21      	ldr	r3, [pc, #132]	; (200006e4 <ARP_get_response+0xbc>)
20000660:	715a      	strb	r2, [r3, #5]
E:\Github_Repos\SF2_Eth_FFT\Softconsole\FFT_Accelerator\Debug/../src/ARP_protocol.c:121

    /* set ARP opcode to Replay (2) */
    arp_buffer[20] = 0x00;
20000662:	4b20      	ldr	r3, [pc, #128]	; (200006e4 <ARP_get_response+0xbc>)
20000664:	2200      	movs	r2, #0
20000666:	751a      	strb	r2, [r3, #20]
E:\Github_Repos\SF2_Eth_FFT\Softconsole\FFT_Accelerator\Debug/../src/ARP_protocol.c:122
    arp_buffer[21] = 0x02;
20000668:	4b1e      	ldr	r3, [pc, #120]	; (200006e4 <ARP_get_response+0xbc>)
2000066a:	2202      	movs	r2, #2
2000066c:	755a      	strb	r2, [r3, #21]
E:\Github_Repos\SF2_Eth_FFT\Softconsole\FFT_Accelerator\Debug/../src/ARP_protocol.c:125

    /* set target MAC to sender of request */
    arp_buffer[32] = inc_ARP_pkt[22];
2000066e:	683b      	ldr	r3, [r7, #0]
20000670:	7d9a      	ldrb	r2, [r3, #22]
20000672:	4b1c      	ldr	r3, [pc, #112]	; (200006e4 <ARP_get_response+0xbc>)
20000674:	f883 2020 	strb.w	r2, [r3, #32]
E:\Github_Repos\SF2_Eth_FFT\Softconsole\FFT_Accelerator\Debug/../src/ARP_protocol.c:126
    arp_buffer[33] = inc_ARP_pkt[23];
20000678:	683b      	ldr	r3, [r7, #0]
2000067a:	7dda      	ldrb	r2, [r3, #23]
2000067c:	4b19      	ldr	r3, [pc, #100]	; (200006e4 <ARP_get_response+0xbc>)
2000067e:	f883 2021 	strb.w	r2, [r3, #33]	; 0x21
E:\Github_Repos\SF2_Eth_FFT\Softconsole\FFT_Accelerator\Debug/../src/ARP_protocol.c:127
    arp_buffer[34] = inc_ARP_pkt[24];
20000682:	683b      	ldr	r3, [r7, #0]
20000684:	7e1a      	ldrb	r2, [r3, #24]
20000686:	4b17      	ldr	r3, [pc, #92]	; (200006e4 <ARP_get_response+0xbc>)
20000688:	f883 2022 	strb.w	r2, [r3, #34]	; 0x22
E:\Github_Repos\SF2_Eth_FFT\Softconsole\FFT_Accelerator\Debug/../src/ARP_protocol.c:128
    arp_buffer[35] = inc_ARP_pkt[25];
2000068c:	683b      	ldr	r3, [r7, #0]
2000068e:	7e5a      	ldrb	r2, [r3, #25]
20000690:	4b14      	ldr	r3, [pc, #80]	; (200006e4 <ARP_get_response+0xbc>)
20000692:	f883 2023 	strb.w	r2, [r3, #35]	; 0x23
E:\Github_Repos\SF2_Eth_FFT\Softconsole\FFT_Accelerator\Debug/../src/ARP_protocol.c:129
    arp_buffer[36] = inc_ARP_pkt[26];
20000696:	683b      	ldr	r3, [r7, #0]
20000698:	7e9a      	ldrb	r2, [r3, #26]
2000069a:	4b12      	ldr	r3, [pc, #72]	; (200006e4 <ARP_get_response+0xbc>)
2000069c:	f883 2024 	strb.w	r2, [r3, #36]	; 0x24
E:\Github_Repos\SF2_Eth_FFT\Softconsole\FFT_Accelerator\Debug/../src/ARP_protocol.c:130
    arp_buffer[37] = inc_ARP_pkt[27];
200006a0:	683b      	ldr	r3, [r7, #0]
200006a2:	7eda      	ldrb	r2, [r3, #27]
200006a4:	4b0f      	ldr	r3, [pc, #60]	; (200006e4 <ARP_get_response+0xbc>)
200006a6:	f883 2025 	strb.w	r2, [r3, #37]	; 0x25
E:\Github_Repos\SF2_Eth_FFT\Softconsole\FFT_Accelerator\Debug/../src/ARP_protocol.c:133

    /* set target IP to sender of request */
    arp_buffer[38] = inc_ARP_pkt[28];
200006aa:	683b      	ldr	r3, [r7, #0]
200006ac:	7f1a      	ldrb	r2, [r3, #28]
200006ae:	4b0d      	ldr	r3, [pc, #52]	; (200006e4 <ARP_get_response+0xbc>)
200006b0:	f883 2026 	strb.w	r2, [r3, #38]	; 0x26
E:\Github_Repos\SF2_Eth_FFT\Softconsole\FFT_Accelerator\Debug/../src/ARP_protocol.c:134
    arp_buffer[39] = inc_ARP_pkt[29];
200006b4:	683b      	ldr	r3, [r7, #0]
200006b6:	7f5a      	ldrb	r2, [r3, #29]
200006b8:	4b0a      	ldr	r3, [pc, #40]	; (200006e4 <ARP_get_response+0xbc>)
200006ba:	f883 2027 	strb.w	r2, [r3, #39]	; 0x27
E:\Github_Repos\SF2_Eth_FFT\Softconsole\FFT_Accelerator\Debug/../src/ARP_protocol.c:135
    arp_buffer[40] = inc_ARP_pkt[30];
200006be:	683b      	ldr	r3, [r7, #0]
200006c0:	7f9a      	ldrb	r2, [r3, #30]
200006c2:	4b08      	ldr	r3, [pc, #32]	; (200006e4 <ARP_get_response+0xbc>)
200006c4:	f883 2028 	strb.w	r2, [r3, #40]	; 0x28
E:\Github_Repos\SF2_Eth_FFT\Softconsole\FFT_Accelerator\Debug/../src/ARP_protocol.c:136
    arp_buffer[41] = inc_ARP_pkt[31];
200006c8:	683b      	ldr	r3, [r7, #0]
200006ca:	7fda      	ldrb	r2, [r3, #31]
200006cc:	4b05      	ldr	r3, [pc, #20]	; (200006e4 <ARP_get_response+0xbc>)
200006ce:	f883 2029 	strb.w	r2, [r3, #41]	; 0x29
E:\Github_Repos\SF2_Eth_FFT\Softconsole\FFT_Accelerator\Debug/../src/ARP_protocol.c:138

    arp_buf_return = arp_buffer;
200006d2:	4b04      	ldr	r3, [pc, #16]	; (200006e4 <ARP_get_response+0xbc>)
200006d4:	607b      	str	r3, [r7, #4]
E:\Github_Repos\SF2_Eth_FFT\Softconsole\FFT_Accelerator\Debug/../src/ARP_protocol.c:139
    return ARP_BUF_LEN;
200006d6:	232a      	movs	r3, #42	; 0x2a
E:\Github_Repos\SF2_Eth_FFT\Softconsole\FFT_Accelerator\Debug/../src/ARP_protocol.c:140
}
200006d8:	4618      	mov	r0, r3
200006da:	370c      	adds	r7, #12
200006dc:	46bd      	mov	sp, r7
200006de:	bc80      	pop	{r7}
200006e0:	4770      	bx	lr
200006e2:	bf00      	nop
200006e4:	20004a30 	.word	0x20004a30

200006e8 <ARP_get_announce>:
ARP_get_announce():
E:\Github_Repos\SF2_Eth_FFT\Softconsole\FFT_Accelerator\Debug/../src/ARP_protocol.c:224

int ARP_get_announce
(
    uint8_t * arp_buf_return
)
{
200006e8:	b480      	push	{r7}
200006ea:	b083      	sub	sp, #12
200006ec:	af00      	add	r7, sp, #0
200006ee:	6078      	str	r0, [r7, #4]
E:\Github_Repos\SF2_Eth_FFT\Softconsole\FFT_Accelerator\Debug/../src/ARP_protocol.c:226
    /* set destination MAC to broadcast */
    arp_buffer[0] = 0xff;
200006f0:	4b2d      	ldr	r3, [pc, #180]	; (200007a8 <ARP_get_announce+0xc0>)
200006f2:	22ff      	movs	r2, #255	; 0xff
200006f4:	701a      	strb	r2, [r3, #0]
E:\Github_Repos\SF2_Eth_FFT\Softconsole\FFT_Accelerator\Debug/../src/ARP_protocol.c:227
    arp_buffer[1] = 0xff;
200006f6:	4b2c      	ldr	r3, [pc, #176]	; (200007a8 <ARP_get_announce+0xc0>)
200006f8:	22ff      	movs	r2, #255	; 0xff
200006fa:	705a      	strb	r2, [r3, #1]
E:\Github_Repos\SF2_Eth_FFT\Softconsole\FFT_Accelerator\Debug/../src/ARP_protocol.c:228
    arp_buffer[2] = 0xff;
200006fc:	4b2a      	ldr	r3, [pc, #168]	; (200007a8 <ARP_get_announce+0xc0>)
200006fe:	22ff      	movs	r2, #255	; 0xff
20000700:	709a      	strb	r2, [r3, #2]
E:\Github_Repos\SF2_Eth_FFT\Softconsole\FFT_Accelerator\Debug/../src/ARP_protocol.c:229
    arp_buffer[3] = 0xff;
20000702:	4b29      	ldr	r3, [pc, #164]	; (200007a8 <ARP_get_announce+0xc0>)
20000704:	22ff      	movs	r2, #255	; 0xff
20000706:	70da      	strb	r2, [r3, #3]
E:\Github_Repos\SF2_Eth_FFT\Softconsole\FFT_Accelerator\Debug/../src/ARP_protocol.c:230
    arp_buffer[4] = 0xff;
20000708:	4b27      	ldr	r3, [pc, #156]	; (200007a8 <ARP_get_announce+0xc0>)
2000070a:	22ff      	movs	r2, #255	; 0xff
2000070c:	711a      	strb	r2, [r3, #4]
E:\Github_Repos\SF2_Eth_FFT\Softconsole\FFT_Accelerator\Debug/../src/ARP_protocol.c:231
    arp_buffer[5] = 0xff;
2000070e:	4b26      	ldr	r3, [pc, #152]	; (200007a8 <ARP_get_announce+0xc0>)
20000710:	22ff      	movs	r2, #255	; 0xff
20000712:	715a      	strb	r2, [r3, #5]
E:\Github_Repos\SF2_Eth_FFT\Softconsole\FFT_Accelerator\Debug/../src/ARP_protocol.c:234

    /* set ARP opcode to Request (1) */
    arp_buffer[20] = 0x00;
20000714:	4b24      	ldr	r3, [pc, #144]	; (200007a8 <ARP_get_announce+0xc0>)
20000716:	2200      	movs	r2, #0
20000718:	751a      	strb	r2, [r3, #20]
E:\Github_Repos\SF2_Eth_FFT\Softconsole\FFT_Accelerator\Debug/../src/ARP_protocol.c:235
    arp_buffer[21] = 0x01;
2000071a:	4b23      	ldr	r3, [pc, #140]	; (200007a8 <ARP_get_announce+0xc0>)
2000071c:	2201      	movs	r2, #1
2000071e:	755a      	strb	r2, [r3, #21]
E:\Github_Repos\SF2_Eth_FFT\Softconsole\FFT_Accelerator\Debug/../src/ARP_protocol.c:238

    /* set sender IP to IP I'm claiming */
    arp_buffer[29] = ARP_stuff.my_ip_addr[0];
20000720:	4b22      	ldr	r3, [pc, #136]	; (200007ac <ARP_get_announce+0xc4>)
20000722:	799a      	ldrb	r2, [r3, #6]
20000724:	4b20      	ldr	r3, [pc, #128]	; (200007a8 <ARP_get_announce+0xc0>)
20000726:	775a      	strb	r2, [r3, #29]
E:\Github_Repos\SF2_Eth_FFT\Softconsole\FFT_Accelerator\Debug/../src/ARP_protocol.c:239
    arp_buffer[28] = ARP_stuff.my_ip_addr[1];
20000728:	4b20      	ldr	r3, [pc, #128]	; (200007ac <ARP_get_announce+0xc4>)
2000072a:	79da      	ldrb	r2, [r3, #7]
2000072c:	4b1e      	ldr	r3, [pc, #120]	; (200007a8 <ARP_get_announce+0xc0>)
2000072e:	771a      	strb	r2, [r3, #28]
E:\Github_Repos\SF2_Eth_FFT\Softconsole\FFT_Accelerator\Debug/../src/ARP_protocol.c:240
    arp_buffer[30] = ARP_stuff.my_ip_addr[2];
20000730:	4b1e      	ldr	r3, [pc, #120]	; (200007ac <ARP_get_announce+0xc4>)
20000732:	7a1a      	ldrb	r2, [r3, #8]
20000734:	4b1c      	ldr	r3, [pc, #112]	; (200007a8 <ARP_get_announce+0xc0>)
20000736:	779a      	strb	r2, [r3, #30]
E:\Github_Repos\SF2_Eth_FFT\Softconsole\FFT_Accelerator\Debug/../src/ARP_protocol.c:241
    arp_buffer[31] = ARP_stuff.my_ip_addr[3];
20000738:	4b1c      	ldr	r3, [pc, #112]	; (200007ac <ARP_get_announce+0xc4>)
2000073a:	7a5a      	ldrb	r2, [r3, #9]
2000073c:	4b1a      	ldr	r3, [pc, #104]	; (200007a8 <ARP_get_announce+0xc0>)
2000073e:	77da      	strb	r2, [r3, #31]
E:\Github_Repos\SF2_Eth_FFT\Softconsole\FFT_Accelerator\Debug/../src/ARP_protocol.c:244

    /* set target MAC to broadcast */
    arp_buffer[32] = 0xff;
20000740:	4b19      	ldr	r3, [pc, #100]	; (200007a8 <ARP_get_announce+0xc0>)
20000742:	22ff      	movs	r2, #255	; 0xff
20000744:	f883 2020 	strb.w	r2, [r3, #32]
E:\Github_Repos\SF2_Eth_FFT\Softconsole\FFT_Accelerator\Debug/../src/ARP_protocol.c:245
    arp_buffer[33] = 0xff;
20000748:	4b17      	ldr	r3, [pc, #92]	; (200007a8 <ARP_get_announce+0xc0>)
2000074a:	22ff      	movs	r2, #255	; 0xff
2000074c:	f883 2021 	strb.w	r2, [r3, #33]	; 0x21
E:\Github_Repos\SF2_Eth_FFT\Softconsole\FFT_Accelerator\Debug/../src/ARP_protocol.c:246
    arp_buffer[34] = 0xff;
20000750:	4b15      	ldr	r3, [pc, #84]	; (200007a8 <ARP_get_announce+0xc0>)
20000752:	22ff      	movs	r2, #255	; 0xff
20000754:	f883 2022 	strb.w	r2, [r3, #34]	; 0x22
E:\Github_Repos\SF2_Eth_FFT\Softconsole\FFT_Accelerator\Debug/../src/ARP_protocol.c:247
    arp_buffer[35] = 0xff;
20000758:	4b13      	ldr	r3, [pc, #76]	; (200007a8 <ARP_get_announce+0xc0>)
2000075a:	22ff      	movs	r2, #255	; 0xff
2000075c:	f883 2023 	strb.w	r2, [r3, #35]	; 0x23
E:\Github_Repos\SF2_Eth_FFT\Softconsole\FFT_Accelerator\Debug/../src/ARP_protocol.c:248
    arp_buffer[36] = 0xff;
20000760:	4b11      	ldr	r3, [pc, #68]	; (200007a8 <ARP_get_announce+0xc0>)
20000762:	22ff      	movs	r2, #255	; 0xff
20000764:	f883 2024 	strb.w	r2, [r3, #36]	; 0x24
E:\Github_Repos\SF2_Eth_FFT\Softconsole\FFT_Accelerator\Debug/../src/ARP_protocol.c:249
    arp_buffer[37] = 0xff;
20000768:	4b0f      	ldr	r3, [pc, #60]	; (200007a8 <ARP_get_announce+0xc0>)
2000076a:	22ff      	movs	r2, #255	; 0xff
2000076c:	f883 2025 	strb.w	r2, [r3, #37]	; 0x25
E:\Github_Repos\SF2_Eth_FFT\Softconsole\FFT_Accelerator\Debug/../src/ARP_protocol.c:252

    /* set target IP to IP I'm claiming */
    arp_buffer[38] = ARP_stuff.my_ip_addr[0];
20000770:	4b0e      	ldr	r3, [pc, #56]	; (200007ac <ARP_get_announce+0xc4>)
20000772:	799a      	ldrb	r2, [r3, #6]
20000774:	4b0c      	ldr	r3, [pc, #48]	; (200007a8 <ARP_get_announce+0xc0>)
20000776:	f883 2026 	strb.w	r2, [r3, #38]	; 0x26
E:\Github_Repos\SF2_Eth_FFT\Softconsole\FFT_Accelerator\Debug/../src/ARP_protocol.c:253
    arp_buffer[39] = ARP_stuff.my_ip_addr[1];
2000077a:	4b0c      	ldr	r3, [pc, #48]	; (200007ac <ARP_get_announce+0xc4>)
2000077c:	79da      	ldrb	r2, [r3, #7]
2000077e:	4b0a      	ldr	r3, [pc, #40]	; (200007a8 <ARP_get_announce+0xc0>)
20000780:	f883 2027 	strb.w	r2, [r3, #39]	; 0x27
E:\Github_Repos\SF2_Eth_FFT\Softconsole\FFT_Accelerator\Debug/../src/ARP_protocol.c:254
    arp_buffer[40] = ARP_stuff.my_ip_addr[2];
20000784:	4b09      	ldr	r3, [pc, #36]	; (200007ac <ARP_get_announce+0xc4>)
20000786:	7a1a      	ldrb	r2, [r3, #8]
20000788:	4b07      	ldr	r3, [pc, #28]	; (200007a8 <ARP_get_announce+0xc0>)
2000078a:	f883 2028 	strb.w	r2, [r3, #40]	; 0x28
E:\Github_Repos\SF2_Eth_FFT\Softconsole\FFT_Accelerator\Debug/../src/ARP_protocol.c:255
    arp_buffer[41] = ARP_stuff.my_ip_addr[3];
2000078e:	4b07      	ldr	r3, [pc, #28]	; (200007ac <ARP_get_announce+0xc4>)
20000790:	7a5a      	ldrb	r2, [r3, #9]
20000792:	4b05      	ldr	r3, [pc, #20]	; (200007a8 <ARP_get_announce+0xc0>)
20000794:	f883 2029 	strb.w	r2, [r3, #41]	; 0x29
E:\Github_Repos\SF2_Eth_FFT\Softconsole\FFT_Accelerator\Debug/../src/ARP_protocol.c:257

    arp_buf_return = arp_buffer;
20000798:	4b03      	ldr	r3, [pc, #12]	; (200007a8 <ARP_get_announce+0xc0>)
2000079a:	607b      	str	r3, [r7, #4]
E:\Github_Repos\SF2_Eth_FFT\Softconsole\FFT_Accelerator\Debug/../src/ARP_protocol.c:258
    return ARP_BUF_LEN;
2000079c:	232a      	movs	r3, #42	; 0x2a
E:\Github_Repos\SF2_Eth_FFT\Softconsole\FFT_Accelerator\Debug/../src/ARP_protocol.c:259
2000079e:	4618      	mov	r0, r3
200007a0:	370c      	adds	r7, #12
200007a2:	46bd      	mov	sp, r7
200007a4:	bc80      	pop	{r7}
200007a6:	4770      	bx	lr
200007a8:	20004a30 	.word	0x20004a30
200007ac:	2000811c 	.word	0x2000811c

200007b0 <fft_init>:
fft_init():
E:\Github_Repos\SF2_Eth_FFT\Softconsole\FFT_Accelerator\Debug/../src/FFT_apb.c:12
void fft_init
(
    fft_instance_t * fft_inst,
    addr_t base_addr
)
{
200007b0:	b480      	push	{r7}
200007b2:	b083      	sub	sp, #12
200007b4:	af00      	add	r7, sp, #0
200007b6:	6078      	str	r0, [r7, #4]
200007b8:	6039      	str	r1, [r7, #0]
E:\Github_Repos\SF2_Eth_FFT\Softconsole\FFT_Accelerator\Debug/../src/FFT_apb.c:13
    fft_inst->address = base_addr;
200007ba:	687b      	ldr	r3, [r7, #4]
200007bc:	683a      	ldr	r2, [r7, #0]
200007be:	601a      	str	r2, [r3, #0]
E:\Github_Repos\SF2_Eth_FFT\Softconsole\FFT_Accelerator\Debug/../src/FFT_apb.c:14
}
200007c0:	bf00      	nop
200007c2:	370c      	adds	r7, #12
200007c4:	46bd      	mov	sp, r7
200007c6:	bc80      	pop	{r7}
200007c8:	4770      	bx	lr

200007ca <fft_get_status>:
fft_get_status():
E:\Github_Repos\SF2_Eth_FFT\Softconsole\FFT_Accelerator\Debug/../src/FFT_apb.c:17

uint8_t fft_get_status(fft_instance_t * fft_inst)
{
200007ca:	b580      	push	{r7, lr}
200007cc:	b082      	sub	sp, #8
200007ce:	af00      	add	r7, sp, #0
200007d0:	6078      	str	r0, [r7, #4]
E:\Github_Repos\SF2_Eth_FFT\Softconsole\FFT_Accelerator\Debug/../src/FFT_apb.c:18
    return HW_get_8bit_reg(fft_inst->address + FFT_STAT_ADDR);
200007d2:	687b      	ldr	r3, [r7, #4]
200007d4:	681b      	ldr	r3, [r3, #0]
200007d6:	3304      	adds	r3, #4
200007d8:	4618      	mov	r0, r3
200007da:	f000 ff43 	bl	20001664 <HW_get_8bit_reg>
200007de:	4603      	mov	r3, r0
E:\Github_Repos\SF2_Eth_FFT\Softconsole\FFT_Accelerator\Debug/../src/FFT_apb.c:19
}
200007e0:	4618      	mov	r0, r3
200007e2:	3708      	adds	r7, #8
200007e4:	46bd      	mov	sp, r7
200007e6:	bd80      	pop	{r7, pc}

200007e8 <fft_load_smpl>:
fft_load_smpl():
E:\Github_Repos\SF2_Eth_FFT\Softconsole\FFT_Accelerator\Debug/../src/FFT_apb.c:27
(
    fft_instance_t * fft_inst,
    uint16_t real,
    uint16_t imag
)
{
200007e8:	b580      	push	{r7, lr}
200007ea:	b084      	sub	sp, #16
200007ec:	af00      	add	r7, sp, #0
200007ee:	6078      	str	r0, [r7, #4]
200007f0:	460b      	mov	r3, r1
200007f2:	807b      	strh	r3, [r7, #2]
200007f4:	4613      	mov	r3, r2
200007f6:	803b      	strh	r3, [r7, #0]
E:\Github_Repos\SF2_Eth_FFT\Softconsole\FFT_Accelerator\Debug/../src/FFT_apb.c:30
    uint8_t ctrl_val;

    HW_set_16bit_reg(fft_inst->address + FFT_DIN_R_ADDR, real);
200007f8:	687b      	ldr	r3, [r7, #4]
200007fa:	681b      	ldr	r3, [r3, #0]
200007fc:	3308      	adds	r3, #8
200007fe:	887a      	ldrh	r2, [r7, #2]
20000800:	4611      	mov	r1, r2
20000802:	4618      	mov	r0, r3
20000804:	f000 ff14 	bl	20001630 <HW_set_16bit_reg>
E:\Github_Repos\SF2_Eth_FFT\Softconsole\FFT_Accelerator\Debug/../src/FFT_apb.c:31
    HW_set_16bit_reg(fft_inst->address + FFT_DIN_I_ADDR, imag);
20000808:	687b      	ldr	r3, [r7, #4]
2000080a:	681b      	ldr	r3, [r3, #0]
2000080c:	330c      	adds	r3, #12
2000080e:	883a      	ldrh	r2, [r7, #0]
20000810:	4611      	mov	r1, r2
20000812:	4618      	mov	r0, r3
20000814:	f000 ff0c 	bl	20001630 <HW_set_16bit_reg>
E:\Github_Repos\SF2_Eth_FFT\Softconsole\FFT_Accelerator\Debug/../src/FFT_apb.c:33

    ctrl_val = HW_get_8bit_reg(fft_inst->address + FFT_CTRL_ADDR);
20000818:	687b      	ldr	r3, [r7, #4]
2000081a:	681b      	ldr	r3, [r3, #0]
2000081c:	4618      	mov	r0, r3
2000081e:	f000 ff21 	bl	20001664 <HW_get_8bit_reg>
20000822:	4603      	mov	r3, r0
20000824:	73fb      	strb	r3, [r7, #15]
E:\Github_Repos\SF2_Eth_FFT\Softconsole\FFT_Accelerator\Debug/../src/FFT_apb.c:35

    ctrl_val |= CTRL_WRITE_EN;
20000826:	7bfb      	ldrb	r3, [r7, #15]
20000828:	f043 0301 	orr.w	r3, r3, #1
2000082c:	73fb      	strb	r3, [r7, #15]
E:\Github_Repos\SF2_Eth_FFT\Softconsole\FFT_Accelerator\Debug/../src/FFT_apb.c:36
    HW_set_8bit_reg(fft_inst->address + FFT_CTRL_ADDR, ctrl_val);
2000082e:	687b      	ldr	r3, [r7, #4]
20000830:	681b      	ldr	r3, [r3, #0]
20000832:	7bfa      	ldrb	r2, [r7, #15]
20000834:	4611      	mov	r1, r2
20000836:	4618      	mov	r0, r3
20000838:	f000 ff12 	bl	20001660 <HW_set_8bit_reg>
E:\Github_Repos\SF2_Eth_FFT\Softconsole\FFT_Accelerator\Debug/../src/FFT_apb.c:37
}
2000083c:	bf00      	nop
2000083e:	3710      	adds	r7, #16
20000840:	46bd      	mov	sp, r7
20000842:	bd80      	pop	{r7, pc}

20000844 <fft_get_ctrl>:
fft_get_ctrl():
E:\Github_Repos\SF2_Eth_FFT\Softconsole\FFT_Accelerator\Debug/../src/FFT_apb.c:44

uint8_t fft_get_ctrl
(
    fft_instance_t * fft_inst
)
{
20000844:	b580      	push	{r7, lr}
20000846:	b082      	sub	sp, #8
20000848:	af00      	add	r7, sp, #0
2000084a:	6078      	str	r0, [r7, #4]
E:\Github_Repos\SF2_Eth_FFT\Softconsole\FFT_Accelerator\Debug/../src/FFT_apb.c:45
    return HW_get_8bit_reg(fft_inst->address + FFT_CTRL_ADDR);
2000084c:	687b      	ldr	r3, [r7, #4]
2000084e:	681b      	ldr	r3, [r3, #0]
20000850:	4618      	mov	r0, r3
20000852:	f000 ff07 	bl	20001664 <HW_get_8bit_reg>
20000856:	4603      	mov	r3, r0
E:\Github_Repos\SF2_Eth_FFT\Softconsole\FFT_Accelerator\Debug/../src/FFT_apb.c:46
}
20000858:	4618      	mov	r0, r3
2000085a:	3708      	adds	r7, #8
2000085c:	46bd      	mov	sp, r7
2000085e:	bd80      	pop	{r7, pc}

20000860 <fft_load_done>:
fft_load_done():
E:\Github_Repos\SF2_Eth_FFT\Softconsole\FFT_Accelerator\Debug/../src/FFT_apb.c:49

void fft_load_done(fft_instance_t * fft_inst)
{
20000860:	b580      	push	{r7, lr}
20000862:	b084      	sub	sp, #16
20000864:	af00      	add	r7, sp, #0
20000866:	6078      	str	r0, [r7, #4]
E:\Github_Repos\SF2_Eth_FFT\Softconsole\FFT_Accelerator\Debug/../src/FFT_apb.c:52
    uint8_t ctrl_val;

    ctrl_val = HW_get_8bit_reg(fft_inst->address + FFT_CTRL_ADDR);
20000868:	687b      	ldr	r3, [r7, #4]
2000086a:	681b      	ldr	r3, [r3, #0]
2000086c:	4618      	mov	r0, r3
2000086e:	f000 fef9 	bl	20001664 <HW_get_8bit_reg>
20000872:	4603      	mov	r3, r0
20000874:	73fb      	strb	r3, [r7, #15]
E:\Github_Repos\SF2_Eth_FFT\Softconsole\FFT_Accelerator\Debug/../src/FFT_apb.c:54

    ctrl_val |= CTRL_LOAD_DONE;
20000876:	7bfb      	ldrb	r3, [r7, #15]
20000878:	f043 0302 	orr.w	r3, r3, #2
2000087c:	73fb      	strb	r3, [r7, #15]
E:\Github_Repos\SF2_Eth_FFT\Softconsole\FFT_Accelerator\Debug/../src/FFT_apb.c:55
    HW_set_8bit_reg(fft_inst->address + FFT_CTRL_ADDR, ctrl_val);
2000087e:	687b      	ldr	r3, [r7, #4]
20000880:	681b      	ldr	r3, [r3, #0]
20000882:	7bfa      	ldrb	r2, [r7, #15]
20000884:	4611      	mov	r1, r2
20000886:	4618      	mov	r0, r3
20000888:	f000 feea 	bl	20001660 <HW_set_8bit_reg>
E:\Github_Repos\SF2_Eth_FFT\Softconsole\FFT_Accelerator\Debug/../src/FFT_apb.c:56
}
2000088c:	bf00      	nop
2000088e:	3710      	adds	r7, #16
20000890:	46bd      	mov	sp, r7
20000892:	bd80      	pop	{r7, pc}

20000894 <fft_read_done>:
fft_read_done():
E:\Github_Repos\SF2_Eth_FFT\Softconsole\FFT_Accelerator\Debug/../src/FFT_apb.c:59

void fft_read_done(fft_instance_t * fft_inst)
{
20000894:	b580      	push	{r7, lr}
20000896:	b084      	sub	sp, #16
20000898:	af00      	add	r7, sp, #0
2000089a:	6078      	str	r0, [r7, #4]
E:\Github_Repos\SF2_Eth_FFT\Softconsole\FFT_Accelerator\Debug/../src/FFT_apb.c:62
    uint8_t ctrl_val;

    ctrl_val = HW_get_8bit_reg(fft_inst->address + FFT_CTRL_ADDR);
2000089c:	687b      	ldr	r3, [r7, #4]
2000089e:	681b      	ldr	r3, [r3, #0]
200008a0:	4618      	mov	r0, r3
200008a2:	f000 fedf 	bl	20001664 <HW_get_8bit_reg>
200008a6:	4603      	mov	r3, r0
200008a8:	73fb      	strb	r3, [r7, #15]
E:\Github_Repos\SF2_Eth_FFT\Softconsole\FFT_Accelerator\Debug/../src/FFT_apb.c:64

    ctrl_val |= CTRL_READ_DONE;
200008aa:	7bfb      	ldrb	r3, [r7, #15]
200008ac:	f043 0304 	orr.w	r3, r3, #4
200008b0:	73fb      	strb	r3, [r7, #15]
E:\Github_Repos\SF2_Eth_FFT\Softconsole\FFT_Accelerator\Debug/../src/FFT_apb.c:65
    HW_set_8bit_reg(fft_inst->address + FFT_CTRL_ADDR, ctrl_val);
200008b2:	687b      	ldr	r3, [r7, #4]
200008b4:	681b      	ldr	r3, [r3, #0]
200008b6:	7bfa      	ldrb	r2, [r7, #15]
200008b8:	4611      	mov	r1, r2
200008ba:	4618      	mov	r0, r3
200008bc:	f000 fed0 	bl	20001660 <HW_set_8bit_reg>
E:\Github_Repos\SF2_Eth_FFT\Softconsole\FFT_Accelerator\Debug/../src/FFT_apb.c:66
}
200008c0:	bf00      	nop
200008c2:	3710      	adds	r7, #16
200008c4:	46bd      	mov	sp, r7
200008c6:	bd80      	pop	{r7, pc}

200008c8 <fft_int_clr>:
fft_int_clr():
E:\Github_Repos\SF2_Eth_FFT\Softconsole\FFT_Accelerator\Debug/../src/FFT_apb.c:69

void fft_int_clr(fft_instance_t * fft_inst)
{
200008c8:	b580      	push	{r7, lr}
200008ca:	b084      	sub	sp, #16
200008cc:	af00      	add	r7, sp, #0
200008ce:	6078      	str	r0, [r7, #4]
E:\Github_Repos\SF2_Eth_FFT\Softconsole\FFT_Accelerator\Debug/../src/FFT_apb.c:72
    uint8_t ctrl_val;

    ctrl_val = HW_get_8bit_reg(fft_inst->address + FFT_CTRL_ADDR);
200008d0:	687b      	ldr	r3, [r7, #4]
200008d2:	681b      	ldr	r3, [r3, #0]
200008d4:	4618      	mov	r0, r3
200008d6:	f000 fec5 	bl	20001664 <HW_get_8bit_reg>
200008da:	4603      	mov	r3, r0
200008dc:	73fb      	strb	r3, [r7, #15]
E:\Github_Repos\SF2_Eth_FFT\Softconsole\FFT_Accelerator\Debug/../src/FFT_apb.c:74

    ctrl_val |= CTRL_INT_CLR;
200008de:	7bfb      	ldrb	r3, [r7, #15]
200008e0:	f043 0308 	orr.w	r3, r3, #8
200008e4:	73fb      	strb	r3, [r7, #15]
E:\Github_Repos\SF2_Eth_FFT\Softconsole\FFT_Accelerator\Debug/../src/FFT_apb.c:75
    HW_set_8bit_reg(fft_inst->address + FFT_CTRL_ADDR, ctrl_val);
200008e6:	687b      	ldr	r3, [r7, #4]
200008e8:	681b      	ldr	r3, [r3, #0]
200008ea:	7bfa      	ldrb	r2, [r7, #15]
200008ec:	4611      	mov	r1, r2
200008ee:	4618      	mov	r0, r3
200008f0:	f000 feb6 	bl	20001660 <HW_set_8bit_reg>
E:\Github_Repos\SF2_Eth_FFT\Softconsole\FFT_Accelerator\Debug/../src/FFT_apb.c:76
}
200008f4:	bf00      	nop
200008f6:	3710      	adds	r7, #16
200008f8:	46bd      	mov	sp, r7
200008fa:	bd80      	pop	{r7, pc}

200008fc <fft_set_output_smpl>:
fft_set_output_smpl():
E:\Github_Repos\SF2_Eth_FFT\Softconsole\FFT_Accelerator\Debug/../src/FFT_apb.c:83
void fft_set_output_smpl
(
    fft_instance_t * fft_inst,
    uint16_t smpl_addr
)
{
200008fc:	b580      	push	{r7, lr}
200008fe:	b082      	sub	sp, #8
20000900:	af00      	add	r7, sp, #0
20000902:	6078      	str	r0, [r7, #4]
20000904:	460b      	mov	r3, r1
20000906:	807b      	strh	r3, [r7, #2]
E:\Github_Repos\SF2_Eth_FFT\Softconsole\FFT_Accelerator\Debug/../src/FFT_apb.c:84
    HW_set_16bit_reg(fft_inst->address + FFT_DOUT_ADR_ADDR, smpl_addr);
20000908:	687b      	ldr	r3, [r7, #4]
2000090a:	681b      	ldr	r3, [r3, #0]
2000090c:	331c      	adds	r3, #28
2000090e:	887a      	ldrh	r2, [r7, #2]
20000910:	4611      	mov	r1, r2
20000912:	4618      	mov	r0, r3
20000914:	f000 fe8c 	bl	20001630 <HW_set_16bit_reg>
E:\Github_Repos\SF2_Eth_FFT\Softconsole\FFT_Accelerator\Debug/../src/FFT_apb.c:85
}
20000918:	bf00      	nop
2000091a:	3708      	adds	r7, #8
2000091c:	46bd      	mov	sp, r7
2000091e:	bd80      	pop	{r7, pc}

20000920 <fft_get_abs_val_out>:
fft_get_abs_val_out():
E:\Github_Repos\SF2_Eth_FFT\Softconsole\FFT_Accelerator\Debug/../src/FFT_apb.c:107

uint16_t fft_get_abs_val_out
(
    fft_instance_t * fft_inst
)
{
20000920:	b580      	push	{r7, lr}
20000922:	b082      	sub	sp, #8
20000924:	af00      	add	r7, sp, #0
20000926:	6078      	str	r0, [r7, #4]
E:\Github_Repos\SF2_Eth_FFT\Softconsole\FFT_Accelerator\Debug/../src/FFT_apb.c:108
    return HW_get_16bit_reg(fft_inst->address + ABS_VAL_ADDR);
20000928:	687b      	ldr	r3, [r7, #4]
2000092a:	681b      	ldr	r3, [r3, #0]
2000092c:	3318      	adds	r3, #24
2000092e:	4618      	mov	r0, r3
20000930:	f000 fe80 	bl	20001634 <HW_get_16bit_reg>
20000934:	4603      	mov	r3, r0
E:\Github_Repos\SF2_Eth_FFT\Softconsole\FFT_Accelerator\Debug/../src/FFT_apb.c:109
}
20000936:	4618      	mov	r0, r3
20000938:	3708      	adds	r7, #8
2000093a:	46bd      	mov	sp, r7
2000093c:	bd80      	pop	{r7, pc}
	...

20000940 <MSS_MAC_phy_init>:
MSS_MAC_phy_init():
E:\Github_Repos\SF2_Eth_FFT\Softconsole\FFT_Accelerator\Debug/../src/VSC8541_01_phy.c:33

/***************************************************************************//**
 * 
 */
void MSS_MAC_phy_init(uint8_t phy_addr)
{
20000940:	b580      	push	{r7, lr}
20000942:	b084      	sub	sp, #16
20000944:	af00      	add	r7, sp, #0
20000946:	4603      	mov	r3, r0
20000948:	71fb      	strb	r3, [r7, #7]
E:\Github_Repos\SF2_Eth_FFT\Softconsole\FFT_Accelerator\Debug/../src/VSC8541_01_phy.c:36
    uint16_t phy_reg;
    
    g_phy_addr = phy_addr;
2000094a:	4a17      	ldr	r2, [pc, #92]	; (200009a8 <MSS_MAC_phy_init+0x68>)
2000094c:	79fb      	ldrb	r3, [r7, #7]
2000094e:	7013      	strb	r3, [r2, #0]
E:\Github_Repos\SF2_Eth_FFT\Softconsole\FFT_Accelerator\Debug/../src/VSC8541_01_phy.c:39
    
    /* Reset the PHY. */
    phy_reg = MSS_MAC_read_phy_reg(g_phy_addr, MII_BMCR);
20000950:	4b15      	ldr	r3, [pc, #84]	; (200009a8 <MSS_MAC_phy_init+0x68>)
20000952:	781b      	ldrb	r3, [r3, #0]
20000954:	2100      	movs	r1, #0
20000956:	4618      	mov	r0, r3
20000958:	f002 fd30 	bl	200033bc <MSS_MAC_read_phy_reg>
2000095c:	4603      	mov	r3, r0
2000095e:	81fb      	strh	r3, [r7, #14]
E:\Github_Repos\SF2_Eth_FFT\Softconsole\FFT_Accelerator\Debug/../src/VSC8541_01_phy.c:40
    phy_reg |= BMCR_RESET;
20000960:	89fb      	ldrh	r3, [r7, #14]
20000962:	ea6f 4343 	mvn.w	r3, r3, lsl #17
20000966:	ea6f 4353 	mvn.w	r3, r3, lsr #17
2000096a:	81fb      	strh	r3, [r7, #14]
E:\Github_Repos\SF2_Eth_FFT\Softconsole\FFT_Accelerator\Debug/../src/VSC8541_01_phy.c:41
    MSS_MAC_write_phy_reg(g_phy_addr, MII_BMCR, phy_reg);
2000096c:	4b0e      	ldr	r3, [pc, #56]	; (200009a8 <MSS_MAC_phy_init+0x68>)
2000096e:	781b      	ldrb	r3, [r3, #0]
20000970:	89fa      	ldrh	r2, [r7, #14]
20000972:	2100      	movs	r1, #0
20000974:	4618      	mov	r0, r3
20000976:	f002 fcef 	bl	20003358 <MSS_MAC_write_phy_reg>
E:\Github_Repos\SF2_Eth_FFT\Softconsole\FFT_Accelerator\Debug/../src/VSC8541_01_phy.c:44

    /* Power up the PHY. */
    phy_reg = MSS_MAC_read_phy_reg(g_phy_addr, MII_BMCR);
2000097a:	4b0b      	ldr	r3, [pc, #44]	; (200009a8 <MSS_MAC_phy_init+0x68>)
2000097c:	781b      	ldrb	r3, [r3, #0]
2000097e:	2100      	movs	r1, #0
20000980:	4618      	mov	r0, r3
20000982:	f002 fd1b 	bl	200033bc <MSS_MAC_read_phy_reg>
20000986:	4603      	mov	r3, r0
20000988:	81fb      	strh	r3, [r7, #14]
E:\Github_Repos\SF2_Eth_FFT\Softconsole\FFT_Accelerator\Debug/../src/VSC8541_01_phy.c:45
    phy_reg &= ~BMCR_PDOWN;
2000098a:	89fb      	ldrh	r3, [r7, #14]
2000098c:	f423 6300 	bic.w	r3, r3, #2048	; 0x800
20000990:	81fb      	strh	r3, [r7, #14]
E:\Github_Repos\SF2_Eth_FFT\Softconsole\FFT_Accelerator\Debug/../src/VSC8541_01_phy.c:46
    MSS_MAC_write_phy_reg(g_phy_addr, MII_BMCR, phy_reg);
20000992:	4b05      	ldr	r3, [pc, #20]	; (200009a8 <MSS_MAC_phy_init+0x68>)
20000994:	781b      	ldrb	r3, [r3, #0]
20000996:	89fa      	ldrh	r2, [r7, #14]
20000998:	2100      	movs	r1, #0
2000099a:	4618      	mov	r0, r3
2000099c:	f002 fcdc 	bl	20003358 <MSS_MAC_write_phy_reg>
E:\Github_Repos\SF2_Eth_FFT\Softconsole\FFT_Accelerator\Debug/../src/VSC8541_01_phy.c:47
}
200009a0:	bf00      	nop
200009a2:	3710      	adds	r7, #16
200009a4:	46bd      	mov	sp, r7
200009a6:	bd80      	pop	{r7, pc}
200009a8:	200050ec 	.word	0x200050ec

200009ac <MSS_MAC_phy_set_link_speed>:
MSS_MAC_phy_set_link_speed():
E:\Github_Repos\SF2_Eth_FFT\Softconsole\FFT_Accelerator\Debug/../src/VSC8541_01_phy.c:54

/***************************************************************************//**
 * 
 */
void MSS_MAC_phy_set_link_speed(uint32_t speed_duplex_select)
{
200009ac:	b580      	push	{r7, lr}
200009ae:	b088      	sub	sp, #32
200009b0:	af00      	add	r7, sp, #0
200009b2:	6078      	str	r0, [r7, #4]
E:\Github_Repos\SF2_Eth_FFT\Softconsole\FFT_Accelerator\Debug/../src/VSC8541_01_phy.c:58
    uint16_t phy_reg;
    uint32_t inc;
    uint32_t speed_select;
    const uint16_t mii_advertise_bits[4] = {ADVERTISE_10FULL, ADVERTISE_10HALF, ADVERTISE_100FULL, ADVERTISE_100HALF};
200009b4:	4a30      	ldr	r2, [pc, #192]	; (20000a78 <MSS_MAC_phy_set_link_speed+0xcc>)
200009b6:	f107 0308 	add.w	r3, r7, #8
200009ba:	e892 0003 	ldmia.w	r2, {r0, r1}
200009be:	e883 0003 	stmia.w	r3, {r0, r1}
E:\Github_Repos\SF2_Eth_FFT\Softconsole\FFT_Accelerator\Debug/../src/VSC8541_01_phy.c:63
    
    /* Set auto-negotiation advertisement. */
    
    /* Set 10Mbps and 100Mbps advertisement. */
    phy_reg = MSS_MAC_read_phy_reg(g_phy_addr, MII_ADVERTISE);
200009c2:	4b2e      	ldr	r3, [pc, #184]	; (20000a7c <MSS_MAC_phy_set_link_speed+0xd0>)
200009c4:	781b      	ldrb	r3, [r3, #0]
200009c6:	2104      	movs	r1, #4
200009c8:	4618      	mov	r0, r3
200009ca:	f002 fcf7 	bl	200033bc <MSS_MAC_read_phy_reg>
200009ce:	4603      	mov	r3, r0
200009d0:	83fb      	strh	r3, [r7, #30]
E:\Github_Repos\SF2_Eth_FFT\Softconsole\FFT_Accelerator\Debug/../src/VSC8541_01_phy.c:64
    phy_reg &= ~(ADVERTISE_10HALF | ADVERTISE_10FULL |
200009d2:	8bfb      	ldrh	r3, [r7, #30]
200009d4:	f423 73f0 	bic.w	r3, r3, #480	; 0x1e0
200009d8:	83fb      	strh	r3, [r7, #30]
E:\Github_Repos\SF2_Eth_FFT\Softconsole\FFT_Accelerator\Debug/../src/VSC8541_01_phy.c:67
                 ADVERTISE_100HALF | ADVERTISE_100FULL);
                 
    speed_select = speed_duplex_select;
200009da:	687b      	ldr	r3, [r7, #4]
200009dc:	617b      	str	r3, [r7, #20]
E:\Github_Repos\SF2_Eth_FFT\Softconsole\FFT_Accelerator\Debug/../src/VSC8541_01_phy.c:68
    for(inc = 0u; inc < 4u; ++inc)
200009de:	2300      	movs	r3, #0
200009e0:	61bb      	str	r3, [r7, #24]
200009e2:	e016      	b.n	20000a12 <MSS_MAC_phy_set_link_speed+0x66>
E:\Github_Repos\SF2_Eth_FFT\Softconsole\FFT_Accelerator\Debug/../src/VSC8541_01_phy.c:71
    {
        uint32_t advertise;
        advertise = speed_select & 0x00000001u;
200009e4:	697b      	ldr	r3, [r7, #20]
200009e6:	f003 0301 	and.w	r3, r3, #1
200009ea:	613b      	str	r3, [r7, #16]
E:\Github_Repos\SF2_Eth_FFT\Softconsole\FFT_Accelerator\Debug/../src/VSC8541_01_phy.c:72
        if(advertise != 0u)
200009ec:	693b      	ldr	r3, [r7, #16]
200009ee:	2b00      	cmp	r3, #0
200009f0:	d009      	beq.n	20000a06 <MSS_MAC_phy_set_link_speed+0x5a>
E:\Github_Repos\SF2_Eth_FFT\Softconsole\FFT_Accelerator\Debug/../src/VSC8541_01_phy.c:74
        {
            phy_reg |= mii_advertise_bits[inc];
200009f2:	69bb      	ldr	r3, [r7, #24]
200009f4:	005b      	lsls	r3, r3, #1
200009f6:	f107 0220 	add.w	r2, r7, #32
200009fa:	4413      	add	r3, r2
200009fc:	f833 2c18 	ldrh.w	r2, [r3, #-24]
20000a00:	8bfb      	ldrh	r3, [r7, #30]
20000a02:	4313      	orrs	r3, r2
20000a04:	83fb      	strh	r3, [r7, #30]
E:\Github_Repos\SF2_Eth_FFT\Softconsole\FFT_Accelerator\Debug/../src/VSC8541_01_phy.c:76 (discriminator 2)
        }
        speed_select = speed_select >> 1u;
20000a06:	697b      	ldr	r3, [r7, #20]
20000a08:	085b      	lsrs	r3, r3, #1
20000a0a:	617b      	str	r3, [r7, #20]
E:\Github_Repos\SF2_Eth_FFT\Softconsole\FFT_Accelerator\Debug/../src/VSC8541_01_phy.c:68 (discriminator 2)
    for(inc = 0u; inc < 4u; ++inc)
20000a0c:	69bb      	ldr	r3, [r7, #24]
20000a0e:	3301      	adds	r3, #1
20000a10:	61bb      	str	r3, [r7, #24]
E:\Github_Repos\SF2_Eth_FFT\Softconsole\FFT_Accelerator\Debug/../src/VSC8541_01_phy.c:68 (discriminator 1)
20000a12:	69bb      	ldr	r3, [r7, #24]
20000a14:	2b03      	cmp	r3, #3
20000a16:	d9e5      	bls.n	200009e4 <MSS_MAC_phy_set_link_speed+0x38>
E:\Github_Repos\SF2_Eth_FFT\Softconsole\FFT_Accelerator\Debug/../src/VSC8541_01_phy.c:79
    }
    
    MSS_MAC_write_phy_reg(g_phy_addr, MII_ADVERTISE, phy_reg);
20000a18:	4b18      	ldr	r3, [pc, #96]	; (20000a7c <MSS_MAC_phy_set_link_speed+0xd0>)
20000a1a:	781b      	ldrb	r3, [r3, #0]
20000a1c:	8bfa      	ldrh	r2, [r7, #30]
20000a1e:	2104      	movs	r1, #4
20000a20:	4618      	mov	r0, r3
20000a22:	f002 fc99 	bl	20003358 <MSS_MAC_write_phy_reg>
E:\Github_Repos\SF2_Eth_FFT\Softconsole\FFT_Accelerator\Debug/../src/VSC8541_01_phy.c:82
    
    /* Set 1000Mbps advertisement. */
    phy_reg = MSS_MAC_read_phy_reg(g_phy_addr, MII_CTRL1000);
20000a26:	4b15      	ldr	r3, [pc, #84]	; (20000a7c <MSS_MAC_phy_set_link_speed+0xd0>)
20000a28:	781b      	ldrb	r3, [r3, #0]
20000a2a:	2109      	movs	r1, #9
20000a2c:	4618      	mov	r0, r3
20000a2e:	f002 fcc5 	bl	200033bc <MSS_MAC_read_phy_reg>
20000a32:	4603      	mov	r3, r0
20000a34:	83fb      	strh	r3, [r7, #30]
E:\Github_Repos\SF2_Eth_FFT\Softconsole\FFT_Accelerator\Debug/../src/VSC8541_01_phy.c:83
    phy_reg &= ~(ADVERTISE_1000FULL | ADVERTISE_1000HALF);
20000a36:	8bfb      	ldrh	r3, [r7, #30]
20000a38:	f423 7340 	bic.w	r3, r3, #768	; 0x300
20000a3c:	83fb      	strh	r3, [r7, #30]
E:\Github_Repos\SF2_Eth_FFT\Softconsole\FFT_Accelerator\Debug/../src/VSC8541_01_phy.c:85
    
    if((speed_duplex_select & MSS_MAC_ANEG_1000M_FD) != 0u)
20000a3e:	687b      	ldr	r3, [r7, #4]
20000a40:	f003 0310 	and.w	r3, r3, #16
20000a44:	2b00      	cmp	r3, #0
20000a46:	d003      	beq.n	20000a50 <MSS_MAC_phy_set_link_speed+0xa4>
E:\Github_Repos\SF2_Eth_FFT\Softconsole\FFT_Accelerator\Debug/../src/VSC8541_01_phy.c:87
    {
        phy_reg |= ADVERTISE_1000FULL;
20000a48:	8bfb      	ldrh	r3, [r7, #30]
20000a4a:	f443 7300 	orr.w	r3, r3, #512	; 0x200
20000a4e:	83fb      	strh	r3, [r7, #30]
E:\Github_Repos\SF2_Eth_FFT\Softconsole\FFT_Accelerator\Debug/../src/VSC8541_01_phy.c:90
    }
    
    if((speed_duplex_select & MSS_MAC_ANEG_1000M_HD) != 0u)
20000a50:	687b      	ldr	r3, [r7, #4]
20000a52:	f003 0320 	and.w	r3, r3, #32
20000a56:	2b00      	cmp	r3, #0
20000a58:	d003      	beq.n	20000a62 <MSS_MAC_phy_set_link_speed+0xb6>
E:\Github_Repos\SF2_Eth_FFT\Softconsole\FFT_Accelerator\Debug/../src/VSC8541_01_phy.c:92
    {
        phy_reg |= ADVERTISE_1000HALF;
20000a5a:	8bfb      	ldrh	r3, [r7, #30]
20000a5c:	f443 7380 	orr.w	r3, r3, #256	; 0x100
20000a60:	83fb      	strh	r3, [r7, #30]
E:\Github_Repos\SF2_Eth_FFT\Softconsole\FFT_Accelerator\Debug/../src/VSC8541_01_phy.c:95
    }
    
    MSS_MAC_write_phy_reg(g_phy_addr, MII_CTRL1000, phy_reg);
20000a62:	4b06      	ldr	r3, [pc, #24]	; (20000a7c <MSS_MAC_phy_set_link_speed+0xd0>)
20000a64:	781b      	ldrb	r3, [r3, #0]
20000a66:	8bfa      	ldrh	r2, [r7, #30]
20000a68:	2109      	movs	r1, #9
20000a6a:	4618      	mov	r0, r3
20000a6c:	f002 fc74 	bl	20003358 <MSS_MAC_write_phy_reg>
E:\Github_Repos\SF2_Eth_FFT\Softconsole\FFT_Accelerator\Debug/../src/VSC8541_01_phy.c:96
}
20000a70:	bf00      	nop
20000a72:	3720      	adds	r7, #32
20000a74:	46bd      	mov	sp, r7
20000a76:	bd80      	pop	{r7, pc}
20000a78:	200046c4 	.word	0x200046c4
20000a7c:	200050ec 	.word	0x200050ec

20000a80 <MSS_MAC_phy_autonegotiate>:
MSS_MAC_phy_autonegotiate():
E:\Github_Repos\SF2_Eth_FFT\Softconsole\FFT_Accelerator\Debug/../src/VSC8541_01_phy.c:103

/***************************************************************************//**
 * 
 */
void MSS_MAC_phy_autonegotiate(void)
{
20000a80:	b580      	push	{r7, lr}
20000a82:	b082      	sub	sp, #8
20000a84:	af00      	add	r7, sp, #0
E:\Github_Repos\SF2_Eth_FFT\Softconsole\FFT_Accelerator\Debug/../src/VSC8541_01_phy.c:106
    uint16_t phy_reg;
    uint16_t autoneg_complete;
    volatile uint32_t copper_aneg_timeout = 1000000u;
20000a86:	4b1d      	ldr	r3, [pc, #116]	; (20000afc <MSS_MAC_phy_autonegotiate+0x7c>)
20000a88:	603b      	str	r3, [r7, #0]
E:\Github_Repos\SF2_Eth_FFT\Softconsole\FFT_Accelerator\Debug/../src/VSC8541_01_phy.c:109
    
    /* Enable auto-negotiation. */
    MSS_MAC_write_phy_reg(g_phy_addr, VSC8541_EXT_ADDR_PAGE_CR, PAGE_0);
20000a8a:	4b1d      	ldr	r3, [pc, #116]	; (20000b00 <MSS_MAC_phy_autonegotiate+0x80>)
20000a8c:	781b      	ldrb	r3, [r3, #0]
20000a8e:	2200      	movs	r2, #0
20000a90:	211f      	movs	r1, #31
20000a92:	4618      	mov	r0, r3
20000a94:	f002 fc60 	bl	20003358 <MSS_MAC_write_phy_reg>
E:\Github_Repos\SF2_Eth_FFT\Softconsole\FFT_Accelerator\Debug/../src/VSC8541_01_phy.c:111
    
    phy_reg = MSS_MAC_read_phy_reg(g_phy_addr, MII_BMCR);
20000a98:	4b19      	ldr	r3, [pc, #100]	; (20000b00 <MSS_MAC_phy_autonegotiate+0x80>)
20000a9a:	781b      	ldrb	r3, [r3, #0]
20000a9c:	2100      	movs	r1, #0
20000a9e:	4618      	mov	r0, r3
20000aa0:	f002 fc8c 	bl	200033bc <MSS_MAC_read_phy_reg>
20000aa4:	4603      	mov	r3, r0
20000aa6:	80fb      	strh	r3, [r7, #6]
E:\Github_Repos\SF2_Eth_FFT\Softconsole\FFT_Accelerator\Debug/../src/VSC8541_01_phy.c:112
    phy_reg |= (BMCR_ANENABLE | BMCR_ANRESTART);
20000aa8:	88fb      	ldrh	r3, [r7, #6]
20000aaa:	f443 5390 	orr.w	r3, r3, #4608	; 0x1200
20000aae:	80fb      	strh	r3, [r7, #6]
E:\Github_Repos\SF2_Eth_FFT\Softconsole\FFT_Accelerator\Debug/../src/VSC8541_01_phy.c:113
    MSS_MAC_write_phy_reg(g_phy_addr, MII_BMCR, phy_reg);
20000ab0:	4b13      	ldr	r3, [pc, #76]	; (20000b00 <MSS_MAC_phy_autonegotiate+0x80>)
20000ab2:	781b      	ldrb	r3, [r3, #0]
20000ab4:	88fa      	ldrh	r2, [r7, #6]
20000ab6:	2100      	movs	r1, #0
20000ab8:	4618      	mov	r0, r3
20000aba:	f002 fc4d 	bl	20003358 <MSS_MAC_write_phy_reg>
E:\Github_Repos\SF2_Eth_FFT\Softconsole\FFT_Accelerator\Debug/../src/VSC8541_01_phy.c:117 (discriminator 5)
    
    /* Wait for copper auto-negotiation to complete. */
    do {
        phy_reg = MSS_MAC_read_phy_reg(g_phy_addr, MII_BMSR);
20000abe:	4b10      	ldr	r3, [pc, #64]	; (20000b00 <MSS_MAC_phy_autonegotiate+0x80>)
20000ac0:	781b      	ldrb	r3, [r3, #0]
20000ac2:	2101      	movs	r1, #1
20000ac4:	4618      	mov	r0, r3
20000ac6:	f002 fc79 	bl	200033bc <MSS_MAC_read_phy_reg>
20000aca:	4603      	mov	r3, r0
20000acc:	80fb      	strh	r3, [r7, #6]
E:\Github_Repos\SF2_Eth_FFT\Softconsole\FFT_Accelerator\Debug/../src/VSC8541_01_phy.c:118 (discriminator 5)
        autoneg_complete = phy_reg & BMSR_ANEGCOMPLETE;
20000ace:	88fb      	ldrh	r3, [r7, #6]
20000ad0:	f003 0320 	and.w	r3, r3, #32
20000ad4:	80bb      	strh	r3, [r7, #4]
E:\Github_Repos\SF2_Eth_FFT\Softconsole\FFT_Accelerator\Debug/../src/VSC8541_01_phy.c:119 (discriminator 5)
        --copper_aneg_timeout;
20000ad6:	683b      	ldr	r3, [r7, #0]
20000ad8:	3b01      	subs	r3, #1
20000ada:	603b      	str	r3, [r7, #0]
E:\Github_Repos\SF2_Eth_FFT\Softconsole\FFT_Accelerator\Debug/../src/VSC8541_01_phy.c:120 (discriminator 5)
    } while((!autoneg_complete && (copper_aneg_timeout != 0u)) || (0xFFFF == phy_reg));
20000adc:	88bb      	ldrh	r3, [r7, #4]
20000ade:	2b00      	cmp	r3, #0
20000ae0:	d102      	bne.n	20000ae8 <MSS_MAC_phy_autonegotiate+0x68>
E:\Github_Repos\SF2_Eth_FFT\Softconsole\FFT_Accelerator\Debug/../src/VSC8541_01_phy.c:120 (discriminator 1)
20000ae2:	683b      	ldr	r3, [r7, #0]
20000ae4:	2b00      	cmp	r3, #0
20000ae6:	d1ea      	bne.n	20000abe <MSS_MAC_phy_autonegotiate+0x3e>
E:\Github_Repos\SF2_Eth_FFT\Softconsole\FFT_Accelerator\Debug/../src/VSC8541_01_phy.c:120 (discriminator 4)
20000ae8:	88fb      	ldrh	r3, [r7, #6]
20000aea:	f64f 72ff 	movw	r2, #65535	; 0xffff
20000aee:	4293      	cmp	r3, r2
20000af0:	d0e5      	beq.n	20000abe <MSS_MAC_phy_autonegotiate+0x3e>
E:\Github_Repos\SF2_Eth_FFT\Softconsole\FFT_Accelerator\Debug/../src/VSC8541_01_phy.c:122
  
}
20000af2:	bf00      	nop
20000af4:	3708      	adds	r7, #8
20000af6:	46bd      	mov	sp, r7
20000af8:	bd80      	pop	{r7, pc}
20000afa:	bf00      	nop
20000afc:	000f4240 	.word	0x000f4240
20000b00:	200050ec 	.word	0x200050ec

20000b04 <MSS_MAC_phy_get_link_status>:
MSS_MAC_phy_get_link_status():
E:\Github_Repos\SF2_Eth_FFT\Softconsole\FFT_Accelerator\Debug/../src/VSC8541_01_phy.c:133
uint8_t MSS_MAC_phy_get_link_status
(
    mss_mac_speed_t * speed,
    uint8_t *     fullduplex
)
{
20000b04:	b580      	push	{r7, lr}
20000b06:	b086      	sub	sp, #24
20000b08:	af00      	add	r7, sp, #0
20000b0a:	6078      	str	r0, [r7, #4]
20000b0c:	6039      	str	r1, [r7, #0]
E:\Github_Repos\SF2_Eth_FFT\Softconsole\FFT_Accelerator\Debug/../src/VSC8541_01_phy.c:141
    uint8_t link_status;

    /*
     * Find out if link is up between VSC8541_01 PHY and remote device.
     */
    phy_reg = MSS_MAC_read_phy_reg(g_phy_addr, MII_BMSR);
20000b0e:	4b29      	ldr	r3, [pc, #164]	; (20000bb4 <MSS_MAC_phy_get_link_status+0xb0>)
20000b10:	781b      	ldrb	r3, [r3, #0]
20000b12:	2101      	movs	r1, #1
20000b14:	4618      	mov	r0, r3
20000b16:	f002 fc51 	bl	200033bc <MSS_MAC_read_phy_reg>
20000b1a:	4603      	mov	r3, r0
20000b1c:	82bb      	strh	r3, [r7, #20]
E:\Github_Repos\SF2_Eth_FFT\Softconsole\FFT_Accelerator\Debug/../src/VSC8541_01_phy.c:142
    copper_link_up = phy_reg & BMSR_LSTATUS;
20000b1e:	8abb      	ldrh	r3, [r7, #20]
20000b20:	f003 0304 	and.w	r3, r3, #4
20000b24:	827b      	strh	r3, [r7, #18]
E:\Github_Repos\SF2_Eth_FFT\Softconsole\FFT_Accelerator\Debug/../src/VSC8541_01_phy.c:144
    
    if(copper_link_up != MSS_MAC_LINK_DOWN)
20000b26:	8a7b      	ldrh	r3, [r7, #18]
20000b28:	2b00      	cmp	r3, #0
20000b2a:	d03b      	beq.n	20000ba4 <MSS_MAC_phy_get_link_status+0xa0>
E:\Github_Repos\SF2_Eth_FFT\Softconsole\FFT_Accelerator\Debug/../src/VSC8541_01_phy.c:150
    {
        uint16_t duplex;
        uint16_t phy_speed;
        
        /* Link is up. */
        link_status = MSS_MAC_LINK_UP;
20000b2c:	2301      	movs	r3, #1
20000b2e:	75fb      	strb	r3, [r7, #23]
E:\Github_Repos\SF2_Eth_FFT\Softconsole\FFT_Accelerator\Debug/../src/VSC8541_01_phy.c:153


        MSS_MAC_write_phy_reg(g_phy_addr, VSC8541_EXT_ADDR_PAGE_CR, PAGE_0);
20000b30:	4b20      	ldr	r3, [pc, #128]	; (20000bb4 <MSS_MAC_phy_get_link_status+0xb0>)
20000b32:	781b      	ldrb	r3, [r3, #0]
20000b34:	2200      	movs	r2, #0
20000b36:	211f      	movs	r1, #31
20000b38:	4618      	mov	r0, r3
20000b3a:	f002 fc0d 	bl	20003358 <MSS_MAC_write_phy_reg>
E:\Github_Repos\SF2_Eth_FFT\Softconsole\FFT_Accelerator\Debug/../src/VSC8541_01_phy.c:155
        /* check 10MBPS */
        phy_reg = MSS_MAC_read_phy_reg(g_phy_addr, VSC8541_AUX_CTRL_STATUS);
20000b3e:	4b1d      	ldr	r3, [pc, #116]	; (20000bb4 <MSS_MAC_phy_get_link_status+0xb0>)
20000b40:	781b      	ldrb	r3, [r3, #0]
20000b42:	211c      	movs	r1, #28
20000b44:	4618      	mov	r0, r3
20000b46:	f002 fc39 	bl	200033bc <MSS_MAC_read_phy_reg>
20000b4a:	4603      	mov	r3, r0
20000b4c:	82bb      	strh	r3, [r7, #20]
E:\Github_Repos\SF2_Eth_FFT\Softconsole\FFT_Accelerator\Debug/../src/VSC8541_01_phy.c:156
        duplex = phy_reg & AUX_CS_FDX_STATUS;
20000b4e:	8abb      	ldrh	r3, [r7, #20]
20000b50:	f003 0320 	and.w	r3, r3, #32
20000b54:	823b      	strh	r3, [r7, #16]
E:\Github_Repos\SF2_Eth_FFT\Softconsole\FFT_Accelerator\Debug/../src/VSC8541_01_phy.c:157
        phy_speed = phy_reg & AUX_CS_SPEED_STATUS;
20000b56:	8abb      	ldrh	r3, [r7, #20]
20000b58:	f003 0318 	and.w	r3, r3, #24
20000b5c:	81fb      	strh	r3, [r7, #14]
E:\Github_Repos\SF2_Eth_FFT\Softconsole\FFT_Accelerator\Debug/../src/VSC8541_01_phy.c:159
        
        if(MSS_MAC_HALF_DUPLEX == duplex)
20000b5e:	8a3b      	ldrh	r3, [r7, #16]
20000b60:	2b00      	cmp	r3, #0
20000b62:	d103      	bne.n	20000b6c <MSS_MAC_phy_get_link_status+0x68>
E:\Github_Repos\SF2_Eth_FFT\Softconsole\FFT_Accelerator\Debug/../src/VSC8541_01_phy.c:161
        {
            *fullduplex = MSS_MAC_HALF_DUPLEX;
20000b64:	683b      	ldr	r3, [r7, #0]
20000b66:	2200      	movs	r2, #0
20000b68:	701a      	strb	r2, [r3, #0]
20000b6a:	e002      	b.n	20000b72 <MSS_MAC_phy_get_link_status+0x6e>
E:\Github_Repos\SF2_Eth_FFT\Softconsole\FFT_Accelerator\Debug/../src/VSC8541_01_phy.c:165
        }
        else
        {
            *fullduplex = MSS_MAC_FULL_DUPLEX;
20000b6c:	683b      	ldr	r3, [r7, #0]
20000b6e:	2201      	movs	r2, #1
20000b70:	701a      	strb	r2, [r3, #0]
E:\Github_Repos\SF2_Eth_FFT\Softconsole\FFT_Accelerator\Debug/../src/VSC8541_01_phy.c:168
        }
        
        switch(phy_speed) 
20000b72:	89fb      	ldrh	r3, [r7, #14]
20000b74:	2b08      	cmp	r3, #8
20000b76:	d008      	beq.n	20000b8a <MSS_MAC_phy_get_link_status+0x86>
20000b78:	2b10      	cmp	r3, #16
20000b7a:	d002      	beq.n	20000b82 <MSS_MAC_phy_get_link_status+0x7e>
20000b7c:	2b00      	cmp	r3, #0
20000b7e:	d008      	beq.n	20000b92 <MSS_MAC_phy_get_link_status+0x8e>
20000b80:	e00b      	b.n	20000b9a <MSS_MAC_phy_get_link_status+0x96>
E:\Github_Repos\SF2_Eth_FFT\Softconsole\FFT_Accelerator\Debug/../src/VSC8541_01_phy.c:171
        {
            case AUX_CS_SPEED_STATUS_1000:
                *speed = MSS_MAC_1000MBPS;
20000b82:	687b      	ldr	r3, [r7, #4]
20000b84:	2202      	movs	r2, #2
20000b86:	701a      	strb	r2, [r3, #0]
E:\Github_Repos\SF2_Eth_FFT\Softconsole\FFT_Accelerator\Debug/../src/VSC8541_01_phy.c:172
                break;
20000b88:	e00e      	b.n	20000ba8 <MSS_MAC_phy_get_link_status+0xa4>
E:\Github_Repos\SF2_Eth_FFT\Softconsole\FFT_Accelerator\Debug/../src/VSC8541_01_phy.c:175
    
            case AUX_CS_SPEED_STATUS_100:
                *speed = MSS_MAC_100MBPS;
20000b8a:	687b      	ldr	r3, [r7, #4]
20000b8c:	2201      	movs	r2, #1
20000b8e:	701a      	strb	r2, [r3, #0]
E:\Github_Repos\SF2_Eth_FFT\Softconsole\FFT_Accelerator\Debug/../src/VSC8541_01_phy.c:176
                break;
20000b90:	e00a      	b.n	20000ba8 <MSS_MAC_phy_get_link_status+0xa4>
E:\Github_Repos\SF2_Eth_FFT\Softconsole\FFT_Accelerator\Debug/../src/VSC8541_01_phy.c:179
    
            case AUX_CS_SPEED_STATUS_10:
                *speed = MSS_MAC_10MBPS;
20000b92:	687b      	ldr	r3, [r7, #4]
20000b94:	2200      	movs	r2, #0
20000b96:	701a      	strb	r2, [r3, #0]
E:\Github_Repos\SF2_Eth_FFT\Softconsole\FFT_Accelerator\Debug/../src/VSC8541_01_phy.c:180
                break;
20000b98:	e006      	b.n	20000ba8 <MSS_MAC_phy_get_link_status+0xa4>
E:\Github_Repos\SF2_Eth_FFT\Softconsole\FFT_Accelerator\Debug/../src/VSC8541_01_phy.c:182
            default:
                *speed = INVALID_SPEED;
20000b9a:	687b      	ldr	r3, [r7, #4]
20000b9c:	2203      	movs	r2, #3
20000b9e:	701a      	strb	r2, [r3, #0]
E:\Github_Repos\SF2_Eth_FFT\Softconsole\FFT_Accelerator\Debug/../src/VSC8541_01_phy.c:183
                break;
20000ba0:	bf00      	nop
20000ba2:	e001      	b.n	20000ba8 <MSS_MAC_phy_get_link_status+0xa4>
E:\Github_Repos\SF2_Eth_FFT\Softconsole\FFT_Accelerator\Debug/../src/VSC8541_01_phy.c:189
        }
    }
    else
    {
        /* Link is down. */
        link_status = MSS_MAC_LINK_DOWN;
20000ba4:	2300      	movs	r3, #0
20000ba6:	75fb      	strb	r3, [r7, #23]
E:\Github_Repos\SF2_Eth_FFT\Softconsole\FFT_Accelerator\Debug/../src/VSC8541_01_phy.c:192
    }
    
    return link_status;
20000ba8:	7dfb      	ldrb	r3, [r7, #23]
E:\Github_Repos\SF2_Eth_FFT\Softconsole\FFT_Accelerator\Debug/../src/VSC8541_01_phy.c:193
}
20000baa:	4618      	mov	r0, r3
20000bac:	3718      	adds	r7, #24
20000bae:	46bd      	mov	sp, r7
20000bb0:	bd80      	pop	{r7, pc}
20000bb2:	bf00      	nop
20000bb4:	200050ec 	.word	0x200050ec

20000bb8 <NVIC_EnableIRQ>:
NVIC_EnableIRQ():
c:\microsemi\softconsole_v6.2\cmsis\v4.5\include/core_cm3.h:1453
  \brief   Enable External Interrupt
  \details Enables a device-specific interrupt in the NVIC interrupt controller.
  \param [in]      IRQn  External interrupt number. Value cannot be negative.
 */
__STATIC_INLINE void NVIC_EnableIRQ(IRQn_Type IRQn)
{
20000bb8:	b480      	push	{r7}
20000bba:	b083      	sub	sp, #12
20000bbc:	af00      	add	r7, sp, #0
20000bbe:	4603      	mov	r3, r0
20000bc0:	71fb      	strb	r3, [r7, #7]
c:\microsemi\softconsole_v6.2\cmsis\v4.5\include/core_cm3.h:1454
  NVIC->ISER[(((uint32_t)(int32_t)IRQn) >> 5UL)] = (uint32_t)(1UL << (((uint32_t)(int32_t)IRQn) & 0x1FUL));
20000bc2:	79fb      	ldrb	r3, [r7, #7]
20000bc4:	f003 021f 	and.w	r2, r3, #31
20000bc8:	4906      	ldr	r1, [pc, #24]	; (20000be4 <NVIC_EnableIRQ+0x2c>)
20000bca:	f997 3007 	ldrsb.w	r3, [r7, #7]
20000bce:	095b      	lsrs	r3, r3, #5
20000bd0:	2001      	movs	r0, #1
20000bd2:	fa00 f202 	lsl.w	r2, r0, r2
20000bd6:	f841 2023 	str.w	r2, [r1, r3, lsl #2]
c:\microsemi\softconsole_v6.2\cmsis\v4.5\include/core_cm3.h:1455
}
20000bda:	bf00      	nop
20000bdc:	370c      	adds	r7, #12
20000bde:	46bd      	mov	sp, r7
20000be0:	bc80      	pop	{r7}
20000be2:	4770      	bx	lr
20000be4:	e000e100 	.word	0xe000e100

20000be8 <NVIC_DisableIRQ>:
NVIC_DisableIRQ():
c:\microsemi\softconsole_v6.2\cmsis\v4.5\include/core_cm3.h:1464
  \brief   Disable External Interrupt
  \details Disables a device-specific interrupt in the NVIC interrupt controller.
  \param [in]      IRQn  External interrupt number. Value cannot be negative.
 */
__STATIC_INLINE void NVIC_DisableIRQ(IRQn_Type IRQn)
{
20000be8:	b480      	push	{r7}
20000bea:	b083      	sub	sp, #12
20000bec:	af00      	add	r7, sp, #0
20000bee:	4603      	mov	r3, r0
20000bf0:	71fb      	strb	r3, [r7, #7]
c:\microsemi\softconsole_v6.2\cmsis\v4.5\include/core_cm3.h:1465
  NVIC->ICER[(((uint32_t)(int32_t)IRQn) >> 5UL)] = (uint32_t)(1UL << (((uint32_t)(int32_t)IRQn) & 0x1FUL));
20000bf2:	79fb      	ldrb	r3, [r7, #7]
20000bf4:	f003 021f 	and.w	r2, r3, #31
20000bf8:	4907      	ldr	r1, [pc, #28]	; (20000c18 <NVIC_DisableIRQ+0x30>)
20000bfa:	f997 3007 	ldrsb.w	r3, [r7, #7]
20000bfe:	095b      	lsrs	r3, r3, #5
20000c00:	2001      	movs	r0, #1
20000c02:	fa00 f202 	lsl.w	r2, r0, r2
20000c06:	3320      	adds	r3, #32
20000c08:	f841 2023 	str.w	r2, [r1, r3, lsl #2]
c:\microsemi\softconsole_v6.2\cmsis\v4.5\include/core_cm3.h:1466
}
20000c0c:	bf00      	nop
20000c0e:	370c      	adds	r7, #12
20000c10:	46bd      	mov	sp, r7
20000c12:	bc80      	pop	{r7}
20000c14:	4770      	bx	lr
20000c16:	bf00      	nop
20000c18:	e000e100 	.word	0xe000e100

20000c1c <NVIC_ClearPendingIRQ>:
NVIC_ClearPendingIRQ():
c:\microsemi\softconsole_v6.2\cmsis\v4.5\include/core_cm3.h:1499
  \brief   Clear Pending Interrupt
  \details Clears the pending bit of an external interrupt.
  \param [in]      IRQn  External interrupt number. Value cannot be negative.
 */
__STATIC_INLINE void NVIC_ClearPendingIRQ(IRQn_Type IRQn)
{
20000c1c:	b480      	push	{r7}
20000c1e:	b083      	sub	sp, #12
20000c20:	af00      	add	r7, sp, #0
20000c22:	4603      	mov	r3, r0
20000c24:	71fb      	strb	r3, [r7, #7]
c:\microsemi\softconsole_v6.2\cmsis\v4.5\include/core_cm3.h:1500
  NVIC->ICPR[(((uint32_t)(int32_t)IRQn) >> 5UL)] = (uint32_t)(1UL << (((uint32_t)(int32_t)IRQn) & 0x1FUL));
20000c26:	79fb      	ldrb	r3, [r7, #7]
20000c28:	f003 021f 	and.w	r2, r3, #31
20000c2c:	4907      	ldr	r1, [pc, #28]	; (20000c4c <NVIC_ClearPendingIRQ+0x30>)
20000c2e:	f997 3007 	ldrsb.w	r3, [r7, #7]
20000c32:	095b      	lsrs	r3, r3, #5
20000c34:	2001      	movs	r0, #1
20000c36:	fa00 f202 	lsl.w	r2, r0, r2
20000c3a:	3360      	adds	r3, #96	; 0x60
20000c3c:	f841 2023 	str.w	r2, [r1, r3, lsl #2]
c:\microsemi\softconsole_v6.2\cmsis\v4.5\include/core_cm3.h:1501
}
20000c40:	bf00      	nop
20000c42:	370c      	adds	r7, #12
20000c44:	46bd      	mov	sp, r7
20000c46:	bc80      	pop	{r7}
20000c48:	4770      	bx	lr
20000c4a:	bf00      	nop
20000c4c:	e000e100 	.word	0xe000e100

20000c50 <MSS_GPIO_get_inputs>:
MSS_GPIO_get_inputs():
E:\Github_Repos\SF2_Eth_FFT\Softconsole\FFT_Accelerator\Debug/../src/../firmware/drivers/mss_gpio/mss_gpio.h:349
        gpio_inputs = MSS_GPIO_get_inputs();
    @endcode
 */
static __INLINE uint32_t
MSS_GPIO_get_inputs( void )
{
20000c50:	b480      	push	{r7}
20000c52:	af00      	add	r7, sp, #0
E:\Github_Repos\SF2_Eth_FFT\Softconsole\FFT_Accelerator\Debug/../src/../firmware/drivers/mss_gpio/mss_gpio.h:350
    return GPIO->GPIO_IN;
20000c54:	4b03      	ldr	r3, [pc, #12]	; (20000c64 <MSS_GPIO_get_inputs+0x14>)
20000c56:	f8d3 3084 	ldr.w	r3, [r3, #132]	; 0x84
E:\Github_Repos\SF2_Eth_FFT\Softconsole\FFT_Accelerator\Debug/../src/../firmware/drivers/mss_gpio/mss_gpio.h:351
}
20000c5a:	4618      	mov	r0, r3
20000c5c:	46bd      	mov	sp, r7
20000c5e:	bc80      	pop	{r7}
20000c60:	4770      	bx	lr
20000c62:	bf00      	nop
20000c64:	40013000 	.word	0x40013000

20000c68 <main>:
main():
E:\Github_Repos\SF2_Eth_FFT\Softconsole\FFT_Accelerator\Debug/../src/main.c:138


/*------------------------------------------------------------------------------
 * MAIN
 */
int main(){
20000c68:	b580      	push	{r7, lr}
20000c6a:	af00      	add	r7, sp, #0
E:\Github_Repos\SF2_Eth_FFT\Softconsole\FFT_Accelerator\Debug/../src/main.c:139
	init_periph();
20000c6c:	f000 f82a 	bl	20000cc4 <init_periph>
E:\Github_Repos\SF2_Eth_FFT\Softconsole\FFT_Accelerator\Debug/../src/main.c:148
		if(do_big_data != 0){
			eth_send_big_data();
			//do_big_data = 0;
		}
		*/
		switch (port_check)
20000c70:	4b12      	ldr	r3, [pc, #72]	; (20000cbc <main+0x54>)
20000c72:	f993 3000 	ldrsb.w	r3, [r3]
20000c76:	2b02      	cmp	r3, #2
20000c78:	d009      	beq.n	20000c8e <main+0x26>
20000c7a:	2b03      	cmp	r3, #3
20000c7c:	d015      	beq.n	20000caa <main+0x42>
20000c7e:	2b01      	cmp	r3, #1
20000c80:	d119      	bne.n	20000cb6 <main+0x4e>
E:\Github_Repos\SF2_Eth_FFT\Softconsole\FFT_Accelerator\Debug/../src/main.c:151
		{
			case ETH_P_C0DE:
				do_eth_cmd_code();
20000c82:	f000 f8db 	bl	20000e3c <do_eth_cmd_code>
E:\Github_Repos\SF2_Eth_FFT\Softconsole\FFT_Accelerator\Debug/../src/main.c:152
				port_check = 0;
20000c86:	4b0d      	ldr	r3, [pc, #52]	; (20000cbc <main+0x54>)
20000c88:	2200      	movs	r2, #0
20000c8a:	701a      	strb	r2, [r3, #0]
E:\Github_Repos\SF2_Eth_FFT\Softconsole\FFT_Accelerator\Debug/../src/main.c:153
				break;
20000c8c:	e014      	b.n	20000cb8 <main+0x50>
E:\Github_Repos\SF2_Eth_FFT\Softconsole\FFT_Accelerator\Debug/../src/main.c:155
			case ETH_P_DA7A:
				if(data_rx_cnt >= 2){
20000c8e:	4b0c      	ldr	r3, [pc, #48]	; (20000cc0 <main+0x58>)
20000c90:	f993 3000 	ldrsb.w	r3, [r3]
20000c94:	2b01      	cmp	r3, #1
20000c96:	dd04      	ble.n	20000ca2 <main+0x3a>
E:\Github_Repos\SF2_Eth_FFT\Softconsole\FFT_Accelerator\Debug/../src/main.c:156
					data_rx_cnt = 0;
20000c98:	4b09      	ldr	r3, [pc, #36]	; (20000cc0 <main+0x58>)
20000c9a:	2200      	movs	r2, #0
20000c9c:	701a      	strb	r2, [r3, #0]
E:\Github_Repos\SF2_Eth_FFT\Softconsole\FFT_Accelerator\Debug/../src/main.c:157
					load_fft_samples();
20000c9e:	f000 facd 	bl	2000123c <load_fft_samples>
E:\Github_Repos\SF2_Eth_FFT\Softconsole\FFT_Accelerator\Debug/../src/main.c:159
				}
				port_check = 0;
20000ca2:	4b06      	ldr	r3, [pc, #24]	; (20000cbc <main+0x54>)
20000ca4:	2200      	movs	r2, #0
20000ca6:	701a      	strb	r2, [r3, #0]
E:\Github_Repos\SF2_Eth_FFT\Softconsole\FFT_Accelerator\Debug/../src/main.c:160
				break;
20000ca8:	e006      	b.n	20000cb8 <main+0x50>
E:\Github_Repos\SF2_Eth_FFT\Softconsole\FFT_Accelerator\Debug/../src/main.c:162
			case ETH_P_ARP_PROBE:
				eth_arp_announce();
20000caa:	f000 fc3f 	bl	2000152c <eth_arp_announce>
E:\Github_Repos\SF2_Eth_FFT\Softconsole\FFT_Accelerator\Debug/../src/main.c:163
				port_check = 0;
20000cae:	4b03      	ldr	r3, [pc, #12]	; (20000cbc <main+0x54>)
20000cb0:	2200      	movs	r2, #0
20000cb2:	701a      	strb	r2, [r3, #0]
E:\Github_Repos\SF2_Eth_FFT\Softconsole\FFT_Accelerator\Debug/../src/main.c:164
				break;
20000cb4:	e000      	b.n	20000cb8 <main+0x50>
E:\Github_Repos\SF2_Eth_FFT\Softconsole\FFT_Accelerator\Debug/../src/main.c:166
			default:
				break;
20000cb6:	bf00      	nop
E:\Github_Repos\SF2_Eth_FFT\Softconsole\FFT_Accelerator\Debug/../src/main.c:148
		switch (port_check)
20000cb8:	e7da      	b.n	20000c70 <main+0x8>
20000cba:	bf00      	nop
20000cbc:	200050ed 	.word	0x200050ed
20000cc0:	200050f4 	.word	0x200050f4

20000cc4 <init_periph>:
init_periph():
E:\Github_Repos\SF2_Eth_FFT\Softconsole\FFT_Accelerator\Debug/../src/main.c:172
		}
	}
}


void init_periph(void){
20000cc4:	b580      	push	{r7, lr}
20000cc6:	af00      	add	r7, sp, #0
E:\Github_Repos\SF2_Eth_FFT\Softconsole\FFT_Accelerator\Debug/../src/main.c:176
	/*-------------------------------------------------------------------------*//**
	* MSS_UART
	*/
	MSS_UART_init(
20000cc8:	2203      	movs	r2, #3
20000cca:	f44f 2161 	mov.w	r1, #921600	; 0xe1000
20000cce:	4844      	ldr	r0, [pc, #272]	; (20000de0 <init_periph+0x11c>)
20000cd0:	f000 fd66 	bl	200017a0 <MSS_UART_init>
E:\Github_Repos\SF2_Eth_FFT\Softconsole\FFT_Accelerator\Debug/../src/main.c:181
			&g_mss_uart0,
			MSS_UART_921600_BAUD,//MSS_UART_115200_BAUD
			MSS_UART_DATA_8_BITS | MSS_UART_NO_PARITY | MSS_UART_ONE_STOP_BIT
		);
	MSS_UART_enable_irq(
20000cd4:	2101      	movs	r1, #1
20000cd6:	4842      	ldr	r0, [pc, #264]	; (20000de0 <init_periph+0x11c>)
20000cd8:	f000 fe52 	bl	20001980 <MSS_UART_enable_irq>
E:\Github_Repos\SF2_Eth_FFT\Softconsole\FFT_Accelerator\Debug/../src/main.c:185
			&g_mss_uart0,
			MSS_UART_RBF_IRQ
		);
	MSS_UART_set_rx_handler(
20000cdc:	2200      	movs	r2, #0
20000cde:	4941      	ldr	r1, [pc, #260]	; (20000de4 <init_periph+0x120>)
20000ce0:	483f      	ldr	r0, [pc, #252]	; (20000de0 <init_periph+0x11c>)
20000ce2:	f000 fe9f 	bl	20001a24 <MSS_UART_set_rx_handler>
E:\Github_Repos\SF2_Eth_FFT\Softconsole\FFT_Accelerator\Debug/../src/main.c:190
			&g_mss_uart0,
			uart0_rx_int_handler,
			MSS_UART_FIFO_SINGLE_BYTE
		);
	MSS_UART_polled_tx_string(&g_mss_uart0, (const uint8_t *)"uart initialized!\n\r");
20000ce6:	4940      	ldr	r1, [pc, #256]	; (20000de8 <init_periph+0x124>)
20000ce8:	483d      	ldr	r0, [pc, #244]	; (20000de0 <init_periph+0x11c>)
20000cea:	f000 fd91 	bl	20001810 <MSS_UART_polled_tx_string>
E:\Github_Repos\SF2_Eth_FFT\Softconsole\FFT_Accelerator\Debug/../src/main.c:196

	/*-------------------------------------------------------------------------*//**
	* MSS_GPIO
	*/

	MSS_GPIO_init();
20000cee:	f001 fe99 	bl	20002a24 <MSS_GPIO_init>
E:\Github_Repos\SF2_Eth_FFT\Softconsole\FFT_Accelerator\Debug/../src/main.c:198

	MSS_GPIO_config(MSS_GPIO_8, MSS_GPIO_INPUT_MODE | MSS_GPIO_IRQ_EDGE_POSITIVE);
20000cf2:	2142      	movs	r1, #66	; 0x42
20000cf4:	2008      	movs	r0, #8
20000cf6:	f001 fed1 	bl	20002a9c <MSS_GPIO_config>
E:\Github_Repos\SF2_Eth_FFT\Softconsole\FFT_Accelerator\Debug/../src/main.c:199
	MSS_GPIO_config(MSS_GPIO_9, MSS_GPIO_INPUT_MODE | MSS_GPIO_IRQ_EDGE_POSITIVE);
20000cfa:	2142      	movs	r1, #66	; 0x42
20000cfc:	2009      	movs	r0, #9
20000cfe:	f001 fecd 	bl	20002a9c <MSS_GPIO_config>
E:\Github_Repos\SF2_Eth_FFT\Softconsole\FFT_Accelerator\Debug/../src/main.c:200
	MSS_GPIO_enable_irq(MSS_GPIO_8);
20000d02:	2008      	movs	r0, #8
20000d04:	f001 fee6 	bl	20002ad4 <MSS_GPIO_enable_irq>
E:\Github_Repos\SF2_Eth_FFT\Softconsole\FFT_Accelerator\Debug/../src/main.c:201
	MSS_GPIO_enable_irq(MSS_GPIO_9);
20000d08:	2009      	movs	r0, #9
20000d0a:	f001 fee3 	bl	20002ad4 <MSS_GPIO_enable_irq>
E:\Github_Repos\SF2_Eth_FFT\Softconsole\FFT_Accelerator\Debug/../src/main.c:207

	/*-------------------------------------------------------------------------*//**
	* Fabric FFT
	*/

	fft_init(&fft_fab, FFT_AHB_WRAPPER_0);
20000d0e:	f04f 41a0 	mov.w	r1, #1342177280	; 0x50000000
20000d12:	4836      	ldr	r0, [pc, #216]	; (20000dec <init_periph+0x128>)
20000d14:	f7ff fd4c 	bl	200007b0 <fft_init>
E:\Github_Repos\SF2_Eth_FFT\Softconsole\FFT_Accelerator\Debug/../src/main.c:209

	NVIC_EnableIRQ(FabricIrq1_IRQn);
20000d18:	2023      	movs	r0, #35	; 0x23
20000d1a:	f7ff ff4d 	bl	20000bb8 <NVIC_EnableIRQ>
E:\Github_Repos\SF2_Eth_FFT\Softconsole\FFT_Accelerator\Debug/../src/main.c:211

	MSS_UART_polled_tx_string(&g_mss_uart0, (const uint8_t *)"fft initialized!\n\r");
20000d1e:	4934      	ldr	r1, [pc, #208]	; (20000df0 <init_periph+0x12c>)
20000d20:	482f      	ldr	r0, [pc, #188]	; (20000de0 <init_periph+0x11c>)
20000d22:	f000 fd75 	bl	20001810 <MSS_UART_polled_tx_string>
E:\Github_Repos\SF2_Eth_FFT\Softconsole\FFT_Accelerator\Debug/../src/main.c:217

	/*-------------------------------------------------------------------------*//**
	* MSS_MAC, VSC8541 PHY, Ethernet stuff
	*/

	NVIC_DisableIRQ(FabricIrq0_IRQn);
20000d26:	2022      	movs	r0, #34	; 0x22
20000d28:	f7ff ff5e 	bl	20000be8 <NVIC_DisableIRQ>
E:\Github_Repos\SF2_Eth_FFT\Softconsole\FFT_Accelerator\Debug/../src/main.c:219

	MSS_MAC_cfg_struct_def_init(&mac_config);
20000d2c:	4831      	ldr	r0, [pc, #196]	; (20000df4 <init_periph+0x130>)
20000d2e:	f002 f8bb 	bl	20002ea8 <MSS_MAC_cfg_struct_def_init>
E:\Github_Repos\SF2_Eth_FFT\Softconsole\FFT_Accelerator\Debug/../src/main.c:220
	mac_config.mac_addr[0] = mac_address[0];
20000d32:	2222      	movs	r2, #34	; 0x22
20000d34:	4b2f      	ldr	r3, [pc, #188]	; (20000df4 <init_periph+0x130>)
20000d36:	711a      	strb	r2, [r3, #4]
E:\Github_Repos\SF2_Eth_FFT\Softconsole\FFT_Accelerator\Debug/../src/main.c:221
	mac_config.mac_addr[1] = mac_address[1];
20000d38:	2222      	movs	r2, #34	; 0x22
20000d3a:	4b2e      	ldr	r3, [pc, #184]	; (20000df4 <init_periph+0x130>)
20000d3c:	715a      	strb	r2, [r3, #5]
E:\Github_Repos\SF2_Eth_FFT\Softconsole\FFT_Accelerator\Debug/../src/main.c:222
	mac_config.mac_addr[2] = mac_address[2];
20000d3e:	2222      	movs	r2, #34	; 0x22
20000d40:	4b2c      	ldr	r3, [pc, #176]	; (20000df4 <init_periph+0x130>)
20000d42:	719a      	strb	r2, [r3, #6]
E:\Github_Repos\SF2_Eth_FFT\Softconsole\FFT_Accelerator\Debug/../src/main.c:223
	mac_config.mac_addr[3] = mac_address[3];
20000d44:	2222      	movs	r2, #34	; 0x22
20000d46:	4b2b      	ldr	r3, [pc, #172]	; (20000df4 <init_periph+0x130>)
20000d48:	71da      	strb	r2, [r3, #7]
E:\Github_Repos\SF2_Eth_FFT\Softconsole\FFT_Accelerator\Debug/../src/main.c:224
	mac_config.mac_addr[4] = mac_address[4];
20000d4a:	2222      	movs	r2, #34	; 0x22
20000d4c:	4b29      	ldr	r3, [pc, #164]	; (20000df4 <init_periph+0x130>)
20000d4e:	721a      	strb	r2, [r3, #8]
E:\Github_Repos\SF2_Eth_FFT\Softconsole\FFT_Accelerator\Debug/../src/main.c:225
	mac_config.mac_addr[5] = mac_address[5];
20000d50:	2222      	movs	r2, #34	; 0x22
20000d52:	4b28      	ldr	r3, [pc, #160]	; (20000df4 <init_periph+0x130>)
20000d54:	725a      	strb	r2, [r3, #9]
E:\Github_Repos\SF2_Eth_FFT\Softconsole\FFT_Accelerator\Debug/../src/main.c:227
	//mac_config.speed_duplex_select = MSS_MAC_ANEG_100M_FD;
	mac_config.speed_duplex_select = MSS_MAC_ANEG_ALL_SPEEDS;
20000d56:	4b27      	ldr	r3, [pc, #156]	; (20000df4 <init_periph+0x130>)
20000d58:	223f      	movs	r2, #63	; 0x3f
20000d5a:	601a      	str	r2, [r3, #0]
E:\Github_Repos\SF2_Eth_FFT\Softconsole\FFT_Accelerator\Debug/../src/main.c:228
	mac_config.phy_addr = 0x00;
20000d5c:	4b25      	ldr	r3, [pc, #148]	; (20000df4 <init_periph+0x130>)
20000d5e:	2200      	movs	r2, #0
20000d60:	729a      	strb	r2, [r3, #10]
E:\Github_Repos\SF2_Eth_FFT\Softconsole\FFT_Accelerator\Debug/../src/main.c:229
	mac_config.pad_n_CRC = MSS_MAC_PAD_N_CRC_DISABLE;
20000d62:	4b24      	ldr	r3, [pc, #144]	; (20000df4 <init_periph+0x130>)
20000d64:	2200      	movs	r2, #0
20000d66:	741a      	strb	r2, [r3, #16]
E:\Github_Repos\SF2_Eth_FFT\Softconsole\FFT_Accelerator\Debug/../src/main.c:231

	ARP_init(mac_config.mac_addr, my_ip);
20000d68:	4923      	ldr	r1, [pc, #140]	; (20000df8 <init_periph+0x134>)
20000d6a:	4824      	ldr	r0, [pc, #144]	; (20000dfc <init_periph+0x138>)
20000d6c:	f7ff fbe6 	bl	2000053c <ARP_init>
E:\Github_Repos\SF2_Eth_FFT\Softconsole\FFT_Accelerator\Debug/../src/main.c:234


	MSS_MAC_init(&mac_config);
20000d70:	4820      	ldr	r0, [pc, #128]	; (20000df4 <init_periph+0x130>)
20000d72:	f001 ff9b 	bl	20002cac <MSS_MAC_init>
E:\Github_Repos\SF2_Eth_FFT\Softconsole\FFT_Accelerator\Debug/../src/main.c:235
	MSS_MAC_receive_pkt(g_mac_rx_buffer_0, (void *)g_mac_rx_buffer_0);
20000d76:	4922      	ldr	r1, [pc, #136]	; (20000e00 <init_periph+0x13c>)
20000d78:	4821      	ldr	r0, [pc, #132]	; (20000e00 <init_periph+0x13c>)
20000d7a:	f002 fb7d 	bl	20003478 <MSS_MAC_receive_pkt>
E:\Github_Repos\SF2_Eth_FFT\Softconsole\FFT_Accelerator\Debug/../src/main.c:236
	MSS_MAC_receive_pkt(g_mac_rx_buffer_1, (void *)g_mac_rx_buffer_1);
20000d7e:	4921      	ldr	r1, [pc, #132]	; (20000e04 <init_periph+0x140>)
20000d80:	4820      	ldr	r0, [pc, #128]	; (20000e04 <init_periph+0x140>)
20000d82:	f002 fb79 	bl	20003478 <MSS_MAC_receive_pkt>
E:\Github_Repos\SF2_Eth_FFT\Softconsole\FFT_Accelerator\Debug/../src/main.c:237
	MSS_MAC_receive_pkt(g_mac_rx_buffer_2, (void *)g_mac_rx_buffer_2);
20000d86:	4920      	ldr	r1, [pc, #128]	; (20000e08 <init_periph+0x144>)
20000d88:	481f      	ldr	r0, [pc, #124]	; (20000e08 <init_periph+0x144>)
20000d8a:	f002 fb75 	bl	20003478 <MSS_MAC_receive_pkt>
E:\Github_Repos\SF2_Eth_FFT\Softconsole\FFT_Accelerator\Debug/../src/main.c:238
	MSS_MAC_receive_pkt(g_mac_rx_buffer_3, (void *)g_mac_rx_buffer_3);
20000d8e:	491f      	ldr	r1, [pc, #124]	; (20000e0c <init_periph+0x148>)
20000d90:	481e      	ldr	r0, [pc, #120]	; (20000e0c <init_periph+0x148>)
20000d92:	f002 fb71 	bl	20003478 <MSS_MAC_receive_pkt>
E:\Github_Repos\SF2_Eth_FFT\Softconsole\FFT_Accelerator\Debug/../src/main.c:239
	MSS_MAC_receive_pkt(g_mac_rx_buffer_4, (void *)g_mac_rx_buffer_4);
20000d96:	491e      	ldr	r1, [pc, #120]	; (20000e10 <init_periph+0x14c>)
20000d98:	481d      	ldr	r0, [pc, #116]	; (20000e10 <init_periph+0x14c>)
20000d9a:	f002 fb6d 	bl	20003478 <MSS_MAC_receive_pkt>
E:\Github_Repos\SF2_Eth_FFT\Softconsole\FFT_Accelerator\Debug/../src/main.c:240
	MSS_MAC_receive_pkt(g_mac_rx_buffer_5, (void *)g_mac_rx_buffer_5);
20000d9e:	491d      	ldr	r1, [pc, #116]	; (20000e14 <init_periph+0x150>)
20000da0:	481c      	ldr	r0, [pc, #112]	; (20000e14 <init_periph+0x150>)
20000da2:	f002 fb69 	bl	20003478 <MSS_MAC_receive_pkt>
E:\Github_Repos\SF2_Eth_FFT\Softconsole\FFT_Accelerator\Debug/../src/main.c:241
	smpl_pkt_0 = g_mac_rx_buffer_6;
20000da6:	4b1c      	ldr	r3, [pc, #112]	; (20000e18 <init_periph+0x154>)
20000da8:	4a1c      	ldr	r2, [pc, #112]	; (20000e1c <init_periph+0x158>)
20000daa:	601a      	str	r2, [r3, #0]
E:\Github_Repos\SF2_Eth_FFT\Softconsole\FFT_Accelerator\Debug/../src/main.c:242
	smpl_pkt_1 = g_mac_rx_buffer_7;
20000dac:	4b1c      	ldr	r3, [pc, #112]	; (20000e20 <init_periph+0x15c>)
20000dae:	4a1d      	ldr	r2, [pc, #116]	; (20000e24 <init_periph+0x160>)
20000db0:	601a      	str	r2, [r3, #0]
E:\Github_Repos\SF2_Eth_FFT\Softconsole\FFT_Accelerator\Debug/../src/main.c:243
	MSS_MAC_set_tx_callback(eth_tx_callback);
20000db2:	481d      	ldr	r0, [pc, #116]	; (20000e28 <init_periph+0x164>)
20000db4:	f002 fca4 	bl	20003700 <MSS_MAC_set_tx_callback>
E:\Github_Repos\SF2_Eth_FFT\Softconsole\FFT_Accelerator\Debug/../src/main.c:244
	MSS_MAC_set_rx_callback(eth_rx_callback);
20000db8:	481c      	ldr	r0, [pc, #112]	; (20000e2c <init_periph+0x168>)
20000dba:	f002 fcaf 	bl	2000371c <MSS_MAC_set_rx_callback>
E:\Github_Repos\SF2_Eth_FFT\Softconsole\FFT_Accelerator\Debug/../src/main.c:247


	MSS_UART_polled_tx_string(&g_mss_uart0, (const uint8_t *)"mac initialized!\n\r");
20000dbe:	491c      	ldr	r1, [pc, #112]	; (20000e30 <init_periph+0x16c>)
20000dc0:	4807      	ldr	r0, [pc, #28]	; (20000de0 <init_periph+0x11c>)
20000dc2:	f000 fd25 	bl	20001810 <MSS_UART_polled_tx_string>
E:\Github_Repos\SF2_Eth_FFT\Softconsole\FFT_Accelerator\Debug/../src/main.c:249

	eth_arp_announce();
20000dc6:	f000 fbb1 	bl	2000152c <eth_arp_announce>
E:\Github_Repos\SF2_Eth_FFT\Softconsole\FFT_Accelerator\Debug/../src/main.c:251

	MSS_UART_polled_tx_string(&g_mss_uart0, (const uint8_t *)"ARP Sent!\n\r");
20000dca:	491a      	ldr	r1, [pc, #104]	; (20000e34 <init_periph+0x170>)
20000dcc:	4804      	ldr	r0, [pc, #16]	; (20000de0 <init_periph+0x11c>)
20000dce:	f000 fd1f 	bl	20001810 <MSS_UART_polled_tx_string>
E:\Github_Repos\SF2_Eth_FFT\Softconsole\FFT_Accelerator\Debug/../src/main.c:254


	MSS_UART_polled_tx_string(&g_mss_uart0, (const uint8_t *)"== everything is set up! ==\n\r");
20000dd2:	4919      	ldr	r1, [pc, #100]	; (20000e38 <init_periph+0x174>)
20000dd4:	4802      	ldr	r0, [pc, #8]	; (20000de0 <init_periph+0x11c>)
20000dd6:	f000 fd1b 	bl	20001810 <MSS_UART_polled_tx_string>
E:\Github_Repos\SF2_Eth_FFT\Softconsole\FFT_Accelerator\Debug/../src/main.c:256

}
20000dda:	bf00      	nop
20000ddc:	bd80      	pop	{r7, pc}
20000dde:	bf00      	nop
20000de0:	200081a0 	.word	0x200081a0
20000de4:	20000e99 	.word	0x20000e99
20000de8:	200046d0 	.word	0x200046d0
20000dec:	20008154 	.word	0x20008154
20000df0:	200046e4 	.word	0x200046e4
20000df4:	20008128 	.word	0x20008128
20000df8:	200046cc 	.word	0x200046cc
20000dfc:	2000812c 	.word	0x2000812c
20000e00:	200050f8 	.word	0x200050f8
20000e04:	200056e4 	.word	0x200056e4
20000e08:	20005cd0 	.word	0x20005cd0
20000e0c:	200062bc 	.word	0x200062bc
20000e10:	200068a8 	.word	0x200068a8
20000e14:	20006e94 	.word	0x20006e94
20000e18:	20008158 	.word	0x20008158
20000e1c:	20007480 	.word	0x20007480
20000e20:	2000815c 	.word	0x2000815c
20000e24:	20007a6c 	.word	0x20007a6c
20000e28:	20000ebd 	.word	0x20000ebd
20000e2c:	20000ed5 	.word	0x20000ed5
20000e30:	200046f8 	.word	0x200046f8
20000e34:	2000470c 	.word	0x2000470c
20000e38:	20004718 	.word	0x20004718

20000e3c <do_eth_cmd_code>:
do_eth_cmd_code():
E:\Github_Repos\SF2_Eth_FFT\Softconsole\FFT_Accelerator\Debug/../src/main.c:258

void do_eth_cmd_code(void){
20000e3c:	b580      	push	{r7, lr}
20000e3e:	af00      	add	r7, sp, #0
E:\Github_Repos\SF2_Eth_FFT\Softconsole\FFT_Accelerator\Debug/../src/main.c:259
	switch (eth_cmd_code) {
20000e40:	4b13      	ldr	r3, [pc, #76]	; (20000e90 <do_eth_cmd_code+0x54>)
20000e42:	681b      	ldr	r3, [r3, #0]
20000e44:	3b01      	subs	r3, #1
20000e46:	2b04      	cmp	r3, #4
20000e48:	d81c      	bhi.n	20000e84 <do_eth_cmd_code+0x48>
20000e4a:	a201      	add	r2, pc, #4	; (adr r2, 20000e50 <do_eth_cmd_code+0x14>)
20000e4c:	f852 f023 	ldr.w	pc, [r2, r3, lsl #2]
20000e50:	20000e65 	.word	0x20000e65
20000e54:	20000e6b 	.word	0x20000e6b
20000e58:	20000e73 	.word	0x20000e73
20000e5c:	20000e79 	.word	0x20000e79
20000e60:	20000e7f 	.word	0x20000e7f
E:\Github_Repos\SF2_Eth_FFT\Softconsole\FFT_Accelerator\Debug/../src/main.c:261
		case 1:
			read_fft_samples();
20000e64:	f000 fa6c 	bl	20001340 <read_fft_samples>
E:\Github_Repos\SF2_Eth_FFT\Softconsole\FFT_Accelerator\Debug/../src/main.c:262
			break;
20000e68:	e00d      	b.n	20000e86 <do_eth_cmd_code+0x4a>
E:\Github_Repos\SF2_Eth_FFT\Softconsole\FFT_Accelerator\Debug/../src/main.c:264
		case 2:
			fft_read_done(&fft_fab);
20000e6a:	480a      	ldr	r0, [pc, #40]	; (20000e94 <do_eth_cmd_code+0x58>)
20000e6c:	f7ff fd12 	bl	20000894 <fft_read_done>
E:\Github_Repos\SF2_Eth_FFT\Softconsole\FFT_Accelerator\Debug/../src/main.c:265
			break;
20000e70:	e009      	b.n	20000e86 <do_eth_cmd_code+0x4a>
E:\Github_Repos\SF2_Eth_FFT\Softconsole\FFT_Accelerator\Debug/../src/main.c:267
		case 3:
			report_fft_status();
20000e72:	f000 fab1 	bl	200013d8 <report_fft_status>
E:\Github_Repos\SF2_Eth_FFT\Softconsole\FFT_Accelerator\Debug/../src/main.c:268
			break;
20000e76:	e006      	b.n	20000e86 <do_eth_cmd_code+0x4a>
E:\Github_Repos\SF2_Eth_FFT\Softconsole\FFT_Accelerator\Debug/../src/main.c:270
		case 4:
			report_eth_status();
20000e78:	f000 f944 	bl	20001104 <report_eth_status>
E:\Github_Repos\SF2_Eth_FFT\Softconsole\FFT_Accelerator\Debug/../src/main.c:271
			break;
20000e7c:	e003      	b.n	20000e86 <do_eth_cmd_code+0x4a>
E:\Github_Repos\SF2_Eth_FFT\Softconsole\FFT_Accelerator\Debug/../src/main.c:273
		case 5:
			report_mac_phy_reg();
20000e7e:	f000 f99b 	bl	200011b8 <report_mac_phy_reg>
E:\Github_Repos\SF2_Eth_FFT\Softconsole\FFT_Accelerator\Debug/../src/main.c:274
			break;
20000e82:	e000      	b.n	20000e86 <do_eth_cmd_code+0x4a>
E:\Github_Repos\SF2_Eth_FFT\Softconsole\FFT_Accelerator\Debug/../src/main.c:276
		default:
			break;
20000e84:	bf00      	nop
E:\Github_Repos\SF2_Eth_FFT\Softconsole\FFT_Accelerator\Debug/../src/main.c:278
	}
	eth_cmd_code = 0;
20000e86:	4b02      	ldr	r3, [pc, #8]	; (20000e90 <do_eth_cmd_code+0x54>)
20000e88:	2200      	movs	r2, #0
20000e8a:	601a      	str	r2, [r3, #0]
E:\Github_Repos\SF2_Eth_FFT\Softconsole\FFT_Accelerator\Debug/../src/main.c:279
}
20000e8c:	bf00      	nop
20000e8e:	bd80      	pop	{r7, pc}
20000e90:	200050f0 	.word	0x200050f0
20000e94:	20008154 	.word	0x20008154

20000e98 <uart0_rx_int_handler>:
uart0_rx_int_handler():
E:\Github_Repos\SF2_Eth_FFT\Softconsole\FFT_Accelerator\Debug/../src/main.c:322
	}


}

void uart0_rx_int_handler(mss_uart_instance_t * this_uart){
20000e98:	b580      	push	{r7, lr}
20000e9a:	b094      	sub	sp, #80	; 0x50
20000e9c:	af00      	add	r7, sp, #0
20000e9e:	6078      	str	r0, [r7, #4]
E:\Github_Repos\SF2_Eth_FFT\Softconsole\FFT_Accelerator\Debug/../src/main.c:324
	uint8_t rx_buff[RX_BUFF_SIZE];
	uint32_t rx_idx  = 0;
20000ea0:	2300      	movs	r3, #0
20000ea2:	64fb      	str	r3, [r7, #76]	; 0x4c
E:\Github_Repos\SF2_Eth_FFT\Softconsole\FFT_Accelerator\Debug/../src/main.c:326
	size_t rx_size;
	rx_size = MSS_UART_get_rx(this_uart, rx_buff, sizeof(rx_buff));
20000ea4:	f107 0308 	add.w	r3, r7, #8
20000ea8:	2240      	movs	r2, #64	; 0x40
20000eaa:	4619      	mov	r1, r3
20000eac:	6878      	ldr	r0, [r7, #4]
20000eae:	f000 fd09 	bl	200018c4 <MSS_UART_get_rx>
20000eb2:	64b8      	str	r0, [r7, #72]	; 0x48
E:\Github_Repos\SF2_Eth_FFT\Softconsole\FFT_Accelerator\Debug/../src/main.c:330
	//uart_rx_to_nokia_raw(rx_buff, rx_size);
	//uart_rx_to_nokia_char(rx_buff, rx_size);
	//uart_rx_to_spi_mem(rx_buff, rx_size);
}
20000eb4:	bf00      	nop
20000eb6:	3750      	adds	r7, #80	; 0x50
20000eb8:	46bd      	mov	sp, r7
20000eba:	bd80      	pop	{r7, pc}

20000ebc <eth_tx_callback>:
eth_tx_callback():
E:\Github_Repos\SF2_Eth_FFT\Softconsole\FFT_Accelerator\Debug/../src/main.c:332

void eth_tx_callback(void * caller_info){
20000ebc:	b480      	push	{r7}
20000ebe:	b083      	sub	sp, #12
20000ec0:	af00      	add	r7, sp, #0
20000ec2:	6078      	str	r0, [r7, #4]
E:\Github_Repos\SF2_Eth_FFT\Softconsole\FFT_Accelerator\Debug/../src/main.c:333
	*((uint32_t *)caller_info) = 0;
20000ec4:	687b      	ldr	r3, [r7, #4]
20000ec6:	2200      	movs	r2, #0
20000ec8:	601a      	str	r2, [r3, #0]
E:\Github_Repos\SF2_Eth_FFT\Softconsole\FFT_Accelerator\Debug/../src/main.c:335
	//MSS_UART_polled_tx_string(&g_mss_uart0, (const uint8_t *)"Ethernet Transmit Sent\n\r");
}
20000eca:	bf00      	nop
20000ecc:	370c      	adds	r7, #12
20000ece:	46bd      	mov	sp, r7
20000ed0:	bc80      	pop	{r7}
20000ed2:	4770      	bx	lr

20000ed4 <eth_rx_callback>:
eth_rx_callback():
E:\Github_Repos\SF2_Eth_FFT\Softconsole\FFT_Accelerator\Debug/../src/main.c:342
void eth_rx_callback(
	uint8_t * p_rx_packet,
	uint32_t pckt_length,
	void * p_user_data
)
{
20000ed4:	b580      	push	{r7, lr}
20000ed6:	b0a8      	sub	sp, #160	; 0xa0
20000ed8:	af00      	add	r7, sp, #0
20000eda:	60f8      	str	r0, [r7, #12]
20000edc:	60b9      	str	r1, [r7, #8]
20000ede:	607a      	str	r2, [r7, #4]
E:\Github_Repos\SF2_Eth_FFT\Softconsole\FFT_Accelerator\Debug/../src/main.c:343
	port_check = eth_check_address(p_rx_packet);
20000ee0:	68f8      	ldr	r0, [r7, #12]
20000ee2:	f000 f86d 	bl	20000fc0 <eth_check_address>
20000ee6:	4603      	mov	r3, r0
20000ee8:	461a      	mov	r2, r3
20000eea:	4b2e      	ldr	r3, [pc, #184]	; (20000fa4 <eth_rx_callback+0xd0>)
20000eec:	701a      	strb	r2, [r3, #0]
E:\Github_Repos\SF2_Eth_FFT\Softconsole\FFT_Accelerator\Debug/../src/main.c:349
	char buffer[128];
	uint8_t * dest_array;
	uint8_t * pkt_buf_array;


	pkt_buf_array = p_user_data;
20000eee:	687b      	ldr	r3, [r7, #4]
20000ef0:	f8c7 309c 	str.w	r3, [r7, #156]	; 0x9c
E:\Github_Repos\SF2_Eth_FFT\Softconsole\FFT_Accelerator\Debug/../src/main.c:351

	if(ETH_P_DA7A == port_check){
20000ef4:	4b2b      	ldr	r3, [pc, #172]	; (20000fa4 <eth_rx_callback+0xd0>)
20000ef6:	f993 3000 	ldrsb.w	r3, [r3]
20000efa:	2b02      	cmp	r3, #2
20000efc:	d122      	bne.n	20000f44 <eth_rx_callback+0x70>
E:\Github_Repos\SF2_Eth_FFT\Softconsole\FFT_Accelerator\Debug/../src/main.c:352
		if(data_rx_cnt == 0){
20000efe:	4b2a      	ldr	r3, [pc, #168]	; (20000fa8 <eth_rx_callback+0xd4>)
20000f00:	f993 3000 	ldrsb.w	r3, [r3]
20000f04:	2b00      	cmp	r3, #0
20000f06:	d107      	bne.n	20000f18 <eth_rx_callback+0x44>
E:\Github_Repos\SF2_Eth_FFT\Softconsole\FFT_Accelerator\Debug/../src/main.c:353
			pkt_buf_array = smpl_pkt_0;
20000f08:	4b28      	ldr	r3, [pc, #160]	; (20000fac <eth_rx_callback+0xd8>)
20000f0a:	681b      	ldr	r3, [r3, #0]
20000f0c:	f8c7 309c 	str.w	r3, [r7, #156]	; 0x9c
E:\Github_Repos\SF2_Eth_FFT\Softconsole\FFT_Accelerator\Debug/../src/main.c:354
			smpl_pkt_0 = p_user_data;
20000f10:	4a26      	ldr	r2, [pc, #152]	; (20000fac <eth_rx_callback+0xd8>)
20000f12:	687b      	ldr	r3, [r7, #4]
20000f14:	6013      	str	r3, [r2, #0]
20000f16:	e00b      	b.n	20000f30 <eth_rx_callback+0x5c>
E:\Github_Repos\SF2_Eth_FFT\Softconsole\FFT_Accelerator\Debug/../src/main.c:356
		}
		else if(data_rx_cnt == 1){
20000f18:	4b23      	ldr	r3, [pc, #140]	; (20000fa8 <eth_rx_callback+0xd4>)
20000f1a:	f993 3000 	ldrsb.w	r3, [r3]
20000f1e:	2b01      	cmp	r3, #1
20000f20:	d106      	bne.n	20000f30 <eth_rx_callback+0x5c>
E:\Github_Repos\SF2_Eth_FFT\Softconsole\FFT_Accelerator\Debug/../src/main.c:357
			pkt_buf_array = smpl_pkt_1;
20000f22:	4b23      	ldr	r3, [pc, #140]	; (20000fb0 <eth_rx_callback+0xdc>)
20000f24:	681b      	ldr	r3, [r3, #0]
20000f26:	f8c7 309c 	str.w	r3, [r7, #156]	; 0x9c
E:\Github_Repos\SF2_Eth_FFT\Softconsole\FFT_Accelerator\Debug/../src/main.c:358
			smpl_pkt_1 = p_user_data;
20000f2a:	4a21      	ldr	r2, [pc, #132]	; (20000fb0 <eth_rx_callback+0xdc>)
20000f2c:	687b      	ldr	r3, [r7, #4]
20000f2e:	6013      	str	r3, [r2, #0]
E:\Github_Repos\SF2_Eth_FFT\Softconsole\FFT_Accelerator\Debug/../src/main.c:360
		}
		data_rx_cnt++;
20000f30:	4b1d      	ldr	r3, [pc, #116]	; (20000fa8 <eth_rx_callback+0xd4>)
20000f32:	f993 3000 	ldrsb.w	r3, [r3]
20000f36:	b2db      	uxtb	r3, r3
20000f38:	3301      	adds	r3, #1
20000f3a:	b2db      	uxtb	r3, r3
20000f3c:	b25a      	sxtb	r2, r3
20000f3e:	4b1a      	ldr	r3, [pc, #104]	; (20000fa8 <eth_rx_callback+0xd4>)
20000f40:	701a      	strb	r2, [r3, #0]
20000f42:	e025      	b.n	20000f90 <eth_rx_callback+0xbc>
E:\Github_Repos\SF2_Eth_FFT\Softconsole\FFT_Accelerator\Debug/../src/main.c:362
	}
	else if(ETH_P_C0DE == port_check){
20000f44:	4b17      	ldr	r3, [pc, #92]	; (20000fa4 <eth_rx_callback+0xd0>)
20000f46:	f993 3000 	ldrsb.w	r3, [r3]
20000f4a:	2b01      	cmp	r3, #1
20000f4c:	d107      	bne.n	20000f5e <eth_rx_callback+0x8a>
E:\Github_Repos\SF2_Eth_FFT\Softconsole\FFT_Accelerator\Debug/../src/main.c:363
		eth_cmd_code = eth_get_code(p_rx_packet);
20000f4e:	68f8      	ldr	r0, [r7, #12]
20000f50:	f000 f8b9 	bl	200010c6 <eth_get_code>
20000f54:	4603      	mov	r3, r0
20000f56:	461a      	mov	r2, r3
20000f58:	4b16      	ldr	r3, [pc, #88]	; (20000fb4 <eth_rx_callback+0xe0>)
20000f5a:	601a      	str	r2, [r3, #0]
20000f5c:	e018      	b.n	20000f90 <eth_rx_callback+0xbc>
E:\Github_Repos\SF2_Eth_FFT\Softconsole\FFT_Accelerator\Debug/../src/main.c:365
	}
	else if(ETH_P_ARP_RESPONSE == port_check){
20000f5e:	4b11      	ldr	r3, [pc, #68]	; (20000fa4 <eth_rx_callback+0xd0>)
20000f60:	f993 3000 	ldrsb.w	r3, [r3]
20000f64:	2b04      	cmp	r3, #4
20000f66:	d113      	bne.n	20000f90 <eth_rx_callback+0xbc>
E:\Github_Repos\SF2_Eth_FFT\Softconsole\FFT_Accelerator\Debug/../src/main.c:367
		uint8_t * tx_buffer;
		int buf_len = 0;
20000f68:	2300      	movs	r3, #0
20000f6a:	f8c7 3098 	str.w	r3, [r7, #152]	; 0x98
E:\Github_Repos\SF2_Eth_FFT\Softconsole\FFT_Accelerator\Debug/../src/main.c:369

		buf_len = ARP_get_response(tx_buffer, p_rx_packet);
20000f6e:	68f9      	ldr	r1, [r7, #12]
20000f70:	f8d7 0094 	ldr.w	r0, [r7, #148]	; 0x94
20000f74:	f7ff fb58 	bl	20000628 <ARP_get_response>
20000f78:	f8c7 0098 	str.w	r0, [r7, #152]	; 0x98
E:\Github_Repos\SF2_Eth_FFT\Softconsole\FFT_Accelerator\Debug/../src/main.c:370
		MSS_MAC_send_pkt(arp_buffer, buf_len, (void *)&g_mac_tx_buffer_used);
20000f7c:	f8d7 3098 	ldr.w	r3, [r7, #152]	; 0x98
20000f80:	4a0d      	ldr	r2, [pc, #52]	; (20000fb8 <eth_rx_callback+0xe4>)
20000f82:	4619      	mov	r1, r3
20000f84:	480d      	ldr	r0, [pc, #52]	; (20000fbc <eth_rx_callback+0xe8>)
20000f86:	f002 fb15 	bl	200035b4 <MSS_MAC_send_pkt>
E:\Github_Repos\SF2_Eth_FFT\Softconsole\FFT_Accelerator\Debug/../src/main.c:373

		
		port_check = 0;
20000f8a:	4b06      	ldr	r3, [pc, #24]	; (20000fa4 <eth_rx_callback+0xd0>)
20000f8c:	2200      	movs	r2, #0
20000f8e:	701a      	strb	r2, [r3, #0]
E:\Github_Repos\SF2_Eth_FFT\Softconsole\FFT_Accelerator\Debug/../src/main.c:379
	}
	
	//eth_arp_announce();


	MSS_MAC_receive_pkt((uint8_t *)pkt_buf_array, pkt_buf_array);
20000f90:	f8d7 109c 	ldr.w	r1, [r7, #156]	; 0x9c
20000f94:	f8d7 009c 	ldr.w	r0, [r7, #156]	; 0x9c
20000f98:	f002 fa6e 	bl	20003478 <MSS_MAC_receive_pkt>
E:\Github_Repos\SF2_Eth_FFT\Softconsole\FFT_Accelerator\Debug/../src/main.c:382
	

}
20000f9c:	bf00      	nop
20000f9e:	37a0      	adds	r7, #160	; 0xa0
20000fa0:	46bd      	mov	sp, r7
20000fa2:	bd80      	pop	{r7, pc}
20000fa4:	200050ed 	.word	0x200050ed
20000fa8:	200050f4 	.word	0x200050f4
20000fac:	20008158 	.word	0x20008158
20000fb0:	2000815c 	.word	0x2000815c
20000fb4:	200050f0 	.word	0x200050f0
20000fb8:	20005048 	.word	0x20005048
20000fbc:	20004a30 	.word	0x20004a30

20000fc0 <eth_check_address>:
eth_check_address():
E:\Github_Repos\SF2_Eth_FFT\Softconsole\FFT_Accelerator\Debug/../src/main.c:384

char eth_check_address(uint8_t * packet_data){
20000fc0:	b480      	push	{r7}
20000fc2:	b083      	sub	sp, #12
20000fc4:	af00      	add	r7, sp, #0
20000fc6:	6078      	str	r0, [r7, #4]
E:\Github_Repos\SF2_Eth_FFT\Softconsole\FFT_Accelerator\Debug/../src/main.c:386
	/* Check Destination address */
	if(packet_data[30] == my_ip[0] && packet_data[31] == my_ip[1] && packet_data[32] == my_ip[2] && (packet_data[33] == my_ip[3] || packet_data[33] == 255)){
20000fc8:	687b      	ldr	r3, [r7, #4]
20000fca:	331e      	adds	r3, #30
20000fcc:	781b      	ldrb	r3, [r3, #0]
20000fce:	2264      	movs	r2, #100	; 0x64
20000fd0:	4293      	cmp	r3, r2
20000fd2:	d12e      	bne.n	20001032 <eth_check_address+0x72>
E:\Github_Repos\SF2_Eth_FFT\Softconsole\FFT_Accelerator\Debug/../src/main.c:386 (discriminator 1)
20000fd4:	687b      	ldr	r3, [r7, #4]
20000fd6:	331f      	adds	r3, #31
20000fd8:	781b      	ldrb	r3, [r3, #0]
20000fda:	2264      	movs	r2, #100	; 0x64
20000fdc:	4293      	cmp	r3, r2
20000fde:	d128      	bne.n	20001032 <eth_check_address+0x72>
E:\Github_Repos\SF2_Eth_FFT\Softconsole\FFT_Accelerator\Debug/../src/main.c:386 (discriminator 2)
20000fe0:	687b      	ldr	r3, [r7, #4]
20000fe2:	3320      	adds	r3, #32
20000fe4:	781b      	ldrb	r3, [r3, #0]
20000fe6:	2264      	movs	r2, #100	; 0x64
20000fe8:	4293      	cmp	r3, r2
20000fea:	d122      	bne.n	20001032 <eth_check_address+0x72>
E:\Github_Repos\SF2_Eth_FFT\Softconsole\FFT_Accelerator\Debug/../src/main.c:386 (discriminator 3)
20000fec:	687b      	ldr	r3, [r7, #4]
20000fee:	3321      	adds	r3, #33	; 0x21
20000ff0:	781b      	ldrb	r3, [r3, #0]
20000ff2:	22c8      	movs	r2, #200	; 0xc8
20000ff4:	4293      	cmp	r3, r2
20000ff6:	d004      	beq.n	20001002 <eth_check_address+0x42>
E:\Github_Repos\SF2_Eth_FFT\Softconsole\FFT_Accelerator\Debug/../src/main.c:386 (discriminator 4)
20000ff8:	687b      	ldr	r3, [r7, #4]
20000ffa:	3321      	adds	r3, #33	; 0x21
20000ffc:	781b      	ldrb	r3, [r3, #0]
20000ffe:	2bff      	cmp	r3, #255	; 0xff
20001000:	d117      	bne.n	20001032 <eth_check_address+0x72>
E:\Github_Repos\SF2_Eth_FFT\Softconsole\FFT_Accelerator\Debug/../src/main.c:388
		/* Check Destination port */
		if(packet_data[36] == 0xC0 && packet_data[37] == 0xDE){
20001002:	687b      	ldr	r3, [r7, #4]
20001004:	3324      	adds	r3, #36	; 0x24
20001006:	781b      	ldrb	r3, [r3, #0]
20001008:	2bc0      	cmp	r3, #192	; 0xc0
2000100a:	d106      	bne.n	2000101a <eth_check_address+0x5a>
E:\Github_Repos\SF2_Eth_FFT\Softconsole\FFT_Accelerator\Debug/../src/main.c:388 (discriminator 1)
2000100c:	687b      	ldr	r3, [r7, #4]
2000100e:	3325      	adds	r3, #37	; 0x25
20001010:	781b      	ldrb	r3, [r3, #0]
20001012:	2bde      	cmp	r3, #222	; 0xde
20001014:	d101      	bne.n	2000101a <eth_check_address+0x5a>
E:\Github_Repos\SF2_Eth_FFT\Softconsole\FFT_Accelerator\Debug/../src/main.c:394
			/* 0xC0DE
			 * data on the 0xC0DE port contains control codes, e.g. start/stop or set flags on peripherals
			 * probably a 4 byte unsigned integer that triggers a function on this here ARM core
			 */
			//MSS_UART_polled_tx_string(&g_mss_uart0, (const uint8_t *)"C0DE received, Applying Code\n\r");
			return ETH_P_C0DE;
20001016:	2301      	movs	r3, #1
20001018:	e050      	b.n	200010bc <eth_check_address+0xfc>
E:\Github_Repos\SF2_Eth_FFT\Softconsole\FFT_Accelerator\Debug/../src/main.c:396
		}
		else if(packet_data[36] == 0xDA && packet_data[37] == 0x7A){
2000101a:	687b      	ldr	r3, [r7, #4]
2000101c:	3324      	adds	r3, #36	; 0x24
2000101e:	781b      	ldrb	r3, [r3, #0]
20001020:	2bda      	cmp	r3, #218	; 0xda
20001022:	d149      	bne.n	200010b8 <eth_check_address+0xf8>
E:\Github_Repos\SF2_Eth_FFT\Softconsole\FFT_Accelerator\Debug/../src/main.c:396 (discriminator 1)
20001024:	687b      	ldr	r3, [r7, #4]
20001026:	3325      	adds	r3, #37	; 0x25
20001028:	781b      	ldrb	r3, [r3, #0]
2000102a:	2b7a      	cmp	r3, #122	; 0x7a
2000102c:	d144      	bne.n	200010b8 <eth_check_address+0xf8>
E:\Github_Repos\SF2_Eth_FFT\Softconsole\FFT_Accelerator\Debug/../src/main.c:402
			/* 0xDA7A
			 * data on the 0xDA7A port contains actual data.
			 * Where this data goes depends on flags set with 0xC0DE
			 */
			//MSS_UART_polled_tx_string(&g_mss_uart0, (const uint8_t *)"DA7A received, Receiving Data\n\r");
			return ETH_P_DA7A;
2000102e:	2302      	movs	r3, #2
20001030:	e044      	b.n	200010bc <eth_check_address+0xfc>
E:\Github_Repos\SF2_Eth_FFT\Softconsole\FFT_Accelerator\Debug/../src/main.c:405
		}
	}
	else if(packet_data[0] == 0xff && packet_data[1] == 0xff && packet_data[2] == 0xff && packet_data[3] == 0xff && packet_data[4] == 0xff && packet_data[5] == 0xff){
20001032:	687b      	ldr	r3, [r7, #4]
20001034:	781b      	ldrb	r3, [r3, #0]
20001036:	2bff      	cmp	r3, #255	; 0xff
20001038:	d13f      	bne.n	200010ba <eth_check_address+0xfa>
E:\Github_Repos\SF2_Eth_FFT\Softconsole\FFT_Accelerator\Debug/../src/main.c:405 (discriminator 1)
2000103a:	687b      	ldr	r3, [r7, #4]
2000103c:	3301      	adds	r3, #1
2000103e:	781b      	ldrb	r3, [r3, #0]
20001040:	2bff      	cmp	r3, #255	; 0xff
20001042:	d13a      	bne.n	200010ba <eth_check_address+0xfa>
E:\Github_Repos\SF2_Eth_FFT\Softconsole\FFT_Accelerator\Debug/../src/main.c:405 (discriminator 2)
20001044:	687b      	ldr	r3, [r7, #4]
20001046:	3302      	adds	r3, #2
20001048:	781b      	ldrb	r3, [r3, #0]
2000104a:	2bff      	cmp	r3, #255	; 0xff
2000104c:	d135      	bne.n	200010ba <eth_check_address+0xfa>
E:\Github_Repos\SF2_Eth_FFT\Softconsole\FFT_Accelerator\Debug/../src/main.c:405 (discriminator 3)
2000104e:	687b      	ldr	r3, [r7, #4]
20001050:	3303      	adds	r3, #3
20001052:	781b      	ldrb	r3, [r3, #0]
20001054:	2bff      	cmp	r3, #255	; 0xff
20001056:	d130      	bne.n	200010ba <eth_check_address+0xfa>
E:\Github_Repos\SF2_Eth_FFT\Softconsole\FFT_Accelerator\Debug/../src/main.c:405 (discriminator 4)
20001058:	687b      	ldr	r3, [r7, #4]
2000105a:	3304      	adds	r3, #4
2000105c:	781b      	ldrb	r3, [r3, #0]
2000105e:	2bff      	cmp	r3, #255	; 0xff
20001060:	d12b      	bne.n	200010ba <eth_check_address+0xfa>
E:\Github_Repos\SF2_Eth_FFT\Softconsole\FFT_Accelerator\Debug/../src/main.c:405 (discriminator 5)
20001062:	687b      	ldr	r3, [r7, #4]
20001064:	3305      	adds	r3, #5
20001066:	781b      	ldrb	r3, [r3, #0]
20001068:	2bff      	cmp	r3, #255	; 0xff
2000106a:	d126      	bne.n	200010ba <eth_check_address+0xfa>
E:\Github_Repos\SF2_Eth_FFT\Softconsole\FFT_Accelerator\Debug/../src/main.c:408
		/* MAC address broadast */
		/* Check if ARP probe */
		if(packet_data[12] == 0x08 && packet_data[13] == 0x06){
2000106c:	687b      	ldr	r3, [r7, #4]
2000106e:	330c      	adds	r3, #12
20001070:	781b      	ldrb	r3, [r3, #0]
20001072:	2b08      	cmp	r3, #8
20001074:	d121      	bne.n	200010ba <eth_check_address+0xfa>
E:\Github_Repos\SF2_Eth_FFT\Softconsole\FFT_Accelerator\Debug/../src/main.c:408 (discriminator 1)
20001076:	687b      	ldr	r3, [r7, #4]
20001078:	330d      	adds	r3, #13
2000107a:	781b      	ldrb	r3, [r3, #0]
2000107c:	2b06      	cmp	r3, #6
2000107e:	d11c      	bne.n	200010ba <eth_check_address+0xfa>
E:\Github_Repos\SF2_Eth_FFT\Softconsole\FFT_Accelerator\Debug/../src/main.c:409
			if(packet_data[38] == my_ip[0] && packet_data[39] == my_ip[1] && packet_data[40] == my_ip[2] && packet_data[41] == my_ip[3]){
20001080:	687b      	ldr	r3, [r7, #4]
20001082:	3326      	adds	r3, #38	; 0x26
20001084:	781b      	ldrb	r3, [r3, #0]
20001086:	2264      	movs	r2, #100	; 0x64
20001088:	4293      	cmp	r3, r2
2000108a:	d113      	bne.n	200010b4 <eth_check_address+0xf4>
E:\Github_Repos\SF2_Eth_FFT\Softconsole\FFT_Accelerator\Debug/../src/main.c:409 (discriminator 1)
2000108c:	687b      	ldr	r3, [r7, #4]
2000108e:	3327      	adds	r3, #39	; 0x27
20001090:	781b      	ldrb	r3, [r3, #0]
20001092:	2264      	movs	r2, #100	; 0x64
20001094:	4293      	cmp	r3, r2
20001096:	d10d      	bne.n	200010b4 <eth_check_address+0xf4>
E:\Github_Repos\SF2_Eth_FFT\Softconsole\FFT_Accelerator\Debug/../src/main.c:409 (discriminator 2)
20001098:	687b      	ldr	r3, [r7, #4]
2000109a:	3328      	adds	r3, #40	; 0x28
2000109c:	781b      	ldrb	r3, [r3, #0]
2000109e:	2264      	movs	r2, #100	; 0x64
200010a0:	4293      	cmp	r3, r2
200010a2:	d107      	bne.n	200010b4 <eth_check_address+0xf4>
E:\Github_Repos\SF2_Eth_FFT\Softconsole\FFT_Accelerator\Debug/../src/main.c:409 (discriminator 3)
200010a4:	687b      	ldr	r3, [r7, #4]
200010a6:	3329      	adds	r3, #41	; 0x29
200010a8:	781b      	ldrb	r3, [r3, #0]
200010aa:	22c8      	movs	r2, #200	; 0xc8
200010ac:	4293      	cmp	r3, r2
200010ae:	d101      	bne.n	200010b4 <eth_check_address+0xf4>
E:\Github_Repos\SF2_Eth_FFT\Softconsole\FFT_Accelerator\Debug/../src/main.c:410
				return ETH_P_ARP_RESPONSE;
200010b0:	2304      	movs	r3, #4
200010b2:	e003      	b.n	200010bc <eth_check_address+0xfc>
E:\Github_Repos\SF2_Eth_FFT\Softconsole\FFT_Accelerator\Debug/../src/main.c:413
			}
			else{
				return ETH_P_ARP_PROBE;
200010b4:	2303      	movs	r3, #3
200010b6:	e001      	b.n	200010bc <eth_check_address+0xfc>
E:\Github_Repos\SF2_Eth_FFT\Softconsole\FFT_Accelerator\Debug/../src/main.c:388
		if(packet_data[36] == 0xC0 && packet_data[37] == 0xDE){
200010b8:	bf00      	nop
E:\Github_Repos\SF2_Eth_FFT\Softconsole\FFT_Accelerator\Debug/../src/main.c:417
			}
		}
	}
	return ETH_P_NOP;
200010ba:	2300      	movs	r3, #0
E:\Github_Repos\SF2_Eth_FFT\Softconsole\FFT_Accelerator\Debug/../src/main.c:418
}
200010bc:	4618      	mov	r0, r3
200010be:	370c      	adds	r7, #12
200010c0:	46bd      	mov	sp, r7
200010c2:	bc80      	pop	{r7}
200010c4:	4770      	bx	lr

200010c6 <eth_get_code>:
eth_get_code():
E:\Github_Repos\SF2_Eth_FFT\Softconsole\FFT_Accelerator\Debug/../src/main.c:420

uint32_t eth_get_code(uint8_t * packet_data){
200010c6:	b480      	push	{r7}
200010c8:	b085      	sub	sp, #20
200010ca:	af00      	add	r7, sp, #0
200010cc:	6078      	str	r0, [r7, #4]
E:\Github_Repos\SF2_Eth_FFT\Softconsole\FFT_Accelerator\Debug/../src/main.c:421
	uint32_t the_code = 0;
200010ce:	2300      	movs	r3, #0
200010d0:	60fb      	str	r3, [r7, #12]
E:\Github_Repos\SF2_Eth_FFT\Softconsole\FFT_Accelerator\Debug/../src/main.c:423
	
	for(int i = 0; i < 4; i++){
200010d2:	2300      	movs	r3, #0
200010d4:	60bb      	str	r3, [r7, #8]
200010d6:	e00b      	b.n	200010f0 <eth_get_code+0x2a>
E:\Github_Repos\SF2_Eth_FFT\Softconsole\FFT_Accelerator\Debug/../src/main.c:424 (discriminator 3)
		the_code = (the_code << 8) | (packet_data[i + 42] & 0xff);
200010d8:	68fb      	ldr	r3, [r7, #12]
200010da:	021b      	lsls	r3, r3, #8
200010dc:	68ba      	ldr	r2, [r7, #8]
200010de:	322a      	adds	r2, #42	; 0x2a
200010e0:	6879      	ldr	r1, [r7, #4]
200010e2:	440a      	add	r2, r1
200010e4:	7812      	ldrb	r2, [r2, #0]
200010e6:	4313      	orrs	r3, r2
200010e8:	60fb      	str	r3, [r7, #12]
E:\Github_Repos\SF2_Eth_FFT\Softconsole\FFT_Accelerator\Debug/../src/main.c:423 (discriminator 3)
	for(int i = 0; i < 4; i++){
200010ea:	68bb      	ldr	r3, [r7, #8]
200010ec:	3301      	adds	r3, #1
200010ee:	60bb      	str	r3, [r7, #8]
E:\Github_Repos\SF2_Eth_FFT\Softconsole\FFT_Accelerator\Debug/../src/main.c:423 (discriminator 1)
200010f0:	68bb      	ldr	r3, [r7, #8]
200010f2:	2b03      	cmp	r3, #3
200010f4:	ddf0      	ble.n	200010d8 <eth_get_code+0x12>
E:\Github_Repos\SF2_Eth_FFT\Softconsole\FFT_Accelerator\Debug/../src/main.c:427
	}

	return the_code;
200010f6:	68fb      	ldr	r3, [r7, #12]
E:\Github_Repos\SF2_Eth_FFT\Softconsole\FFT_Accelerator\Debug/../src/main.c:428
}
200010f8:	4618      	mov	r0, r3
200010fa:	3714      	adds	r7, #20
200010fc:	46bd      	mov	sp, r7
200010fe:	bc80      	pop	{r7}
20001100:	4770      	bx	lr
	...

20001104 <report_eth_status>:
report_eth_status():
E:\Github_Repos\SF2_Eth_FFT\Softconsole\FFT_Accelerator\Debug/../src/main.c:430

void report_eth_status(void){
20001104:	b580      	push	{r7, lr}
20001106:	b082      	sub	sp, #8
20001108:	af00      	add	r7, sp, #0
E:\Github_Repos\SF2_Eth_FFT\Softconsole\FFT_Accelerator\Debug/../src/main.c:435
	uint8_t link_status;
    mss_mac_speed_t speed;
    uint8_t fullduplex;

	link_status = MSS_MAC_phy_get_link_status(&speed, &fullduplex);
2000110a:	1d7a      	adds	r2, r7, #5
2000110c:	1dbb      	adds	r3, r7, #6
2000110e:	4611      	mov	r1, r2
20001110:	4618      	mov	r0, r3
20001112:	f7ff fcf7 	bl	20000b04 <MSS_MAC_phy_get_link_status>
20001116:	4603      	mov	r3, r0
20001118:	71fb      	strb	r3, [r7, #7]
E:\Github_Repos\SF2_Eth_FFT\Softconsole\FFT_Accelerator\Debug/../src/main.c:436
	MSS_UART_polled_tx_string(&g_mss_uart0, (const uint8_t *)"Link is: ");
2000111a:	491d      	ldr	r1, [pc, #116]	; (20001190 <report_eth_status+0x8c>)
2000111c:	481d      	ldr	r0, [pc, #116]	; (20001194 <report_eth_status+0x90>)
2000111e:	f000 fb77 	bl	20001810 <MSS_UART_polled_tx_string>
E:\Github_Repos\SF2_Eth_FFT\Softconsole\FFT_Accelerator\Debug/../src/main.c:437
	if(link_status == MSS_MAC_LINK_UP){
20001122:	79fb      	ldrb	r3, [r7, #7]
20001124:	2b01      	cmp	r3, #1
20001126:	d12b      	bne.n	20001180 <report_eth_status+0x7c>
E:\Github_Repos\SF2_Eth_FFT\Softconsole\FFT_Accelerator\Debug/../src/main.c:438
		MSS_UART_polled_tx_string(&g_mss_uart0, (const uint8_t *)"UP!\r\n");
20001128:	491b      	ldr	r1, [pc, #108]	; (20001198 <report_eth_status+0x94>)
2000112a:	481a      	ldr	r0, [pc, #104]	; (20001194 <report_eth_status+0x90>)
2000112c:	f000 fb70 	bl	20001810 <MSS_UART_polled_tx_string>
E:\Github_Repos\SF2_Eth_FFT\Softconsole\FFT_Accelerator\Debug/../src/main.c:439
		switch(speed)
20001130:	79bb      	ldrb	r3, [r7, #6]
20001132:	2b01      	cmp	r3, #1
20001134:	d008      	beq.n	20001148 <report_eth_status+0x44>
20001136:	2b02      	cmp	r3, #2
20001138:	d00b      	beq.n	20001152 <report_eth_status+0x4e>
2000113a:	2b00      	cmp	r3, #0
2000113c:	d10e      	bne.n	2000115c <report_eth_status+0x58>
E:\Github_Repos\SF2_Eth_FFT\Softconsole\FFT_Accelerator\Debug/../src/main.c:442
		{
			case MSS_MAC_10MBPS:
				MSS_UART_polled_tx_string(&g_mss_uart0, (const uint8_t*)"    10Mbps ");
2000113e:	4917      	ldr	r1, [pc, #92]	; (2000119c <report_eth_status+0x98>)
20001140:	4814      	ldr	r0, [pc, #80]	; (20001194 <report_eth_status+0x90>)
20001142:	f000 fb65 	bl	20001810 <MSS_UART_polled_tx_string>
E:\Github_Repos\SF2_Eth_FFT\Softconsole\FFT_Accelerator\Debug/../src/main.c:443
			break;
20001146:	e00e      	b.n	20001166 <report_eth_status+0x62>
E:\Github_Repos\SF2_Eth_FFT\Softconsole\FFT_Accelerator\Debug/../src/main.c:446

			case MSS_MAC_100MBPS:
				MSS_UART_polled_tx_string(&g_mss_uart0, (const uint8_t*)"    100Mbps ");
20001148:	4915      	ldr	r1, [pc, #84]	; (200011a0 <report_eth_status+0x9c>)
2000114a:	4812      	ldr	r0, [pc, #72]	; (20001194 <report_eth_status+0x90>)
2000114c:	f000 fb60 	bl	20001810 <MSS_UART_polled_tx_string>
E:\Github_Repos\SF2_Eth_FFT\Softconsole\FFT_Accelerator\Debug/../src/main.c:447
			break;
20001150:	e009      	b.n	20001166 <report_eth_status+0x62>
E:\Github_Repos\SF2_Eth_FFT\Softconsole\FFT_Accelerator\Debug/../src/main.c:449
			case MSS_MAC_1000MBPS:
				MSS_UART_polled_tx_string(&g_mss_uart0, (const uint8_t*)"    1000Mbps ");
20001152:	4914      	ldr	r1, [pc, #80]	; (200011a4 <report_eth_status+0xa0>)
20001154:	480f      	ldr	r0, [pc, #60]	; (20001194 <report_eth_status+0x90>)
20001156:	f000 fb5b 	bl	20001810 <MSS_UART_polled_tx_string>
E:\Github_Repos\SF2_Eth_FFT\Softconsole\FFT_Accelerator\Debug/../src/main.c:450
			break;
2000115a:	e004      	b.n	20001166 <report_eth_status+0x62>
E:\Github_Repos\SF2_Eth_FFT\Softconsole\FFT_Accelerator\Debug/../src/main.c:452
			default:
				MSS_UART_polled_tx_string(&g_mss_uart0, (const uint8_t*)"    nope ");
2000115c:	4912      	ldr	r1, [pc, #72]	; (200011a8 <report_eth_status+0xa4>)
2000115e:	480d      	ldr	r0, [pc, #52]	; (20001194 <report_eth_status+0x90>)
20001160:	f000 fb56 	bl	20001810 <MSS_UART_polled_tx_string>
E:\Github_Repos\SF2_Eth_FFT\Softconsole\FFT_Accelerator\Debug/../src/main.c:453
			break;
20001164:	bf00      	nop
E:\Github_Repos\SF2_Eth_FFT\Softconsole\FFT_Accelerator\Debug/../src/main.c:455
		}
		if(1u == fullduplex)
20001166:	797b      	ldrb	r3, [r7, #5]
20001168:	2b01      	cmp	r3, #1
2000116a:	d104      	bne.n	20001176 <report_eth_status+0x72>
E:\Github_Repos\SF2_Eth_FFT\Softconsole\FFT_Accelerator\Debug/../src/main.c:457
		{
			MSS_UART_polled_tx_string(&g_mss_uart0, (const uint8_t*)"Full Duplex\r\n");
2000116c:	490f      	ldr	r1, [pc, #60]	; (200011ac <report_eth_status+0xa8>)
2000116e:	4809      	ldr	r0, [pc, #36]	; (20001194 <report_eth_status+0x90>)
20001170:	f000 fb4e 	bl	20001810 <MSS_UART_polled_tx_string>
E:\Github_Repos\SF2_Eth_FFT\Softconsole\FFT_Accelerator\Debug/../src/main.c:467
		}
	}
	else{
		MSS_UART_polled_tx_string(&g_mss_uart0, (const uint8_t *)"DOWN!\r\n");
	}
}
20001174:	e008      	b.n	20001188 <report_eth_status+0x84>
E:\Github_Repos\SF2_Eth_FFT\Softconsole\FFT_Accelerator\Debug/../src/main.c:461
			MSS_UART_polled_tx_string(&g_mss_uart0, (const uint8_t*)"Half Duplex\r\n");
20001176:	490e      	ldr	r1, [pc, #56]	; (200011b0 <report_eth_status+0xac>)
20001178:	4806      	ldr	r0, [pc, #24]	; (20001194 <report_eth_status+0x90>)
2000117a:	f000 fb49 	bl	20001810 <MSS_UART_polled_tx_string>
E:\Github_Repos\SF2_Eth_FFT\Softconsole\FFT_Accelerator\Debug/../src/main.c:467
}
2000117e:	e003      	b.n	20001188 <report_eth_status+0x84>
E:\Github_Repos\SF2_Eth_FFT\Softconsole\FFT_Accelerator\Debug/../src/main.c:465
		MSS_UART_polled_tx_string(&g_mss_uart0, (const uint8_t *)"DOWN!\r\n");
20001180:	490c      	ldr	r1, [pc, #48]	; (200011b4 <report_eth_status+0xb0>)
20001182:	4804      	ldr	r0, [pc, #16]	; (20001194 <report_eth_status+0x90>)
20001184:	f000 fb44 	bl	20001810 <MSS_UART_polled_tx_string>
E:\Github_Repos\SF2_Eth_FFT\Softconsole\FFT_Accelerator\Debug/../src/main.c:467
}
20001188:	bf00      	nop
2000118a:	3708      	adds	r7, #8
2000118c:	46bd      	mov	sp, r7
2000118e:	bd80      	pop	{r7, pc}
20001190:	20004738 	.word	0x20004738
20001194:	200081a0 	.word	0x200081a0
20001198:	20004744 	.word	0x20004744
2000119c:	2000474c 	.word	0x2000474c
200011a0:	20004758 	.word	0x20004758
200011a4:	20004768 	.word	0x20004768
200011a8:	20004778 	.word	0x20004778
200011ac:	20004784 	.word	0x20004784
200011b0:	20004794 	.word	0x20004794
200011b4:	200047a4 	.word	0x200047a4

200011b8 <report_mac_phy_reg>:
report_mac_phy_reg():
E:\Github_Repos\SF2_Eth_FFT\Softconsole\FFT_Accelerator\Debug/../src/main.c:469

void report_mac_phy_reg(void){
200011b8:	b580      	push	{r7, lr}
200011ba:	b0a4      	sub	sp, #144	; 0x90
200011bc:	af02      	add	r7, sp, #8
E:\Github_Repos\SF2_Eth_FFT\Softconsole\FFT_Accelerator\Debug/../src/main.c:473
	char buffer[128];
	uint16_t phy_reg;

	MSS_UART_polled_tx_string(&g_mss_uart0, (const uint8_t *)"============\r\nPHY REGISTERS\r\n");
200011be:	491a      	ldr	r1, [pc, #104]	; (20001228 <report_mac_phy_reg+0x70>)
200011c0:	481a      	ldr	r0, [pc, #104]	; (2000122c <report_mac_phy_reg+0x74>)
200011c2:	f000 fb25 	bl	20001810 <MSS_UART_polled_tx_string>
E:\Github_Repos\SF2_Eth_FFT\Softconsole\FFT_Accelerator\Debug/../src/main.c:475

	for(uint8_t i = 0; i < 32; i++){
200011c6:	2300      	movs	r3, #0
200011c8:	f887 3087 	strb.w	r3, [r7, #135]	; 0x87
200011cc:	e01f      	b.n	2000120e <report_mac_phy_reg+0x56>
E:\Github_Repos\SF2_Eth_FFT\Softconsole\FFT_Accelerator\Debug/../src/main.c:476 (discriminator 3)
		phy_reg = MSS_MAC_read_phy_reg(mac_config.phy_addr, i);
200011ce:	4b18      	ldr	r3, [pc, #96]	; (20001230 <report_mac_phy_reg+0x78>)
200011d0:	7a9b      	ldrb	r3, [r3, #10]
200011d2:	f897 2087 	ldrb.w	r2, [r7, #135]	; 0x87
200011d6:	4611      	mov	r1, r2
200011d8:	4618      	mov	r0, r3
200011da:	f002 f8ef 	bl	200033bc <MSS_MAC_read_phy_reg>
200011de:	4603      	mov	r3, r0
200011e0:	f8a7 3084 	strh.w	r3, [r7, #132]	; 0x84
E:\Github_Repos\SF2_Eth_FFT\Softconsole\FFT_Accelerator\Debug/../src/main.c:477 (discriminator 3)
		snprintf(buffer, sizeof(buffer), "phy reg %d : %x\r\n", (int)i, (int)phy_reg);
200011e4:	f897 2087 	ldrb.w	r2, [r7, #135]	; 0x87
200011e8:	f8b7 3084 	ldrh.w	r3, [r7, #132]	; 0x84
200011ec:	1d38      	adds	r0, r7, #4
200011ee:	9300      	str	r3, [sp, #0]
200011f0:	4613      	mov	r3, r2
200011f2:	4a10      	ldr	r2, [pc, #64]	; (20001234 <report_mac_phy_reg+0x7c>)
200011f4:	2180      	movs	r1, #128	; 0x80
200011f6:	f002 fe37 	bl	20003e68 <sniprintf>
E:\Github_Repos\SF2_Eth_FFT\Softconsole\FFT_Accelerator\Debug/../src/main.c:478 (discriminator 3)
		MSS_UART_polled_tx_string(&g_mss_uart0, (const uint8_t *)buffer);
200011fa:	1d3b      	adds	r3, r7, #4
200011fc:	4619      	mov	r1, r3
200011fe:	480b      	ldr	r0, [pc, #44]	; (2000122c <report_mac_phy_reg+0x74>)
20001200:	f000 fb06 	bl	20001810 <MSS_UART_polled_tx_string>
E:\Github_Repos\SF2_Eth_FFT\Softconsole\FFT_Accelerator\Debug/../src/main.c:475 (discriminator 3)
	for(uint8_t i = 0; i < 32; i++){
20001204:	f897 3087 	ldrb.w	r3, [r7, #135]	; 0x87
20001208:	3301      	adds	r3, #1
2000120a:	f887 3087 	strb.w	r3, [r7, #135]	; 0x87
E:\Github_Repos\SF2_Eth_FFT\Softconsole\FFT_Accelerator\Debug/../src/main.c:475 (discriminator 1)
2000120e:	f897 3087 	ldrb.w	r3, [r7, #135]	; 0x87
20001212:	2b1f      	cmp	r3, #31
20001214:	d9db      	bls.n	200011ce <report_mac_phy_reg+0x16>
E:\Github_Repos\SF2_Eth_FFT\Softconsole\FFT_Accelerator\Debug/../src/main.c:481
	}

	MSS_UART_polled_tx_string(&g_mss_uart0, (const uint8_t *)"============\r\n");
20001216:	4908      	ldr	r1, [pc, #32]	; (20001238 <report_mac_phy_reg+0x80>)
20001218:	4804      	ldr	r0, [pc, #16]	; (2000122c <report_mac_phy_reg+0x74>)
2000121a:	f000 faf9 	bl	20001810 <MSS_UART_polled_tx_string>
E:\Github_Repos\SF2_Eth_FFT\Softconsole\FFT_Accelerator\Debug/../src/main.c:482
}
2000121e:	bf00      	nop
20001220:	3788      	adds	r7, #136	; 0x88
20001222:	46bd      	mov	sp, r7
20001224:	bd80      	pop	{r7, pc}
20001226:	bf00      	nop
20001228:	200047ac 	.word	0x200047ac
2000122c:	200081a0 	.word	0x200081a0
20001230:	20008128 	.word	0x20008128
20001234:	200047cc 	.word	0x200047cc
20001238:	200047e0 	.word	0x200047e0

2000123c <load_fft_samples>:
load_fft_samples():
E:\Github_Repos\SF2_Eth_FFT\Softconsole\FFT_Accelerator\Debug/../src/main.c:484

void load_fft_samples(void){
2000123c:	b580      	push	{r7, lr}
2000123e:	b086      	sub	sp, #24
20001240:	af00      	add	r7, sp, #0
E:\Github_Repos\SF2_Eth_FFT\Softconsole\FFT_Accelerator\Debug/../src/main.c:494
	uint16_t smpl_0_id, smpl_1_id;
	uint8_t * smpls_first;
	uint8_t * smpls_sec;
	//uint16_t data_cnt = 0;

	smpl_0_id = (smpl_pkt_0[18] << 8) | (smpl_pkt_0[19] & 0xff);
20001242:	4b3c      	ldr	r3, [pc, #240]	; (20001334 <load_fft_samples+0xf8>)
20001244:	681b      	ldr	r3, [r3, #0]
20001246:	3312      	adds	r3, #18
20001248:	781b      	ldrb	r3, [r3, #0]
2000124a:	021b      	lsls	r3, r3, #8
2000124c:	b21a      	sxth	r2, r3
2000124e:	4b39      	ldr	r3, [pc, #228]	; (20001334 <load_fft_samples+0xf8>)
20001250:	681b      	ldr	r3, [r3, #0]
20001252:	3313      	adds	r3, #19
20001254:	781b      	ldrb	r3, [r3, #0]
20001256:	b21b      	sxth	r3, r3
20001258:	4313      	orrs	r3, r2
2000125a:	b21b      	sxth	r3, r3
2000125c:	80fb      	strh	r3, [r7, #6]
E:\Github_Repos\SF2_Eth_FFT\Softconsole\FFT_Accelerator\Debug/../src/main.c:495
	smpl_1_id = (smpl_pkt_1[18] << 8) | (smpl_pkt_1[19] & 0xff);
2000125e:	4b36      	ldr	r3, [pc, #216]	; (20001338 <load_fft_samples+0xfc>)
20001260:	681b      	ldr	r3, [r3, #0]
20001262:	3312      	adds	r3, #18
20001264:	781b      	ldrb	r3, [r3, #0]
20001266:	021b      	lsls	r3, r3, #8
20001268:	b21a      	sxth	r2, r3
2000126a:	4b33      	ldr	r3, [pc, #204]	; (20001338 <load_fft_samples+0xfc>)
2000126c:	681b      	ldr	r3, [r3, #0]
2000126e:	3313      	adds	r3, #19
20001270:	781b      	ldrb	r3, [r3, #0]
20001272:	b21b      	sxth	r3, r3
20001274:	4313      	orrs	r3, r2
20001276:	b21b      	sxth	r3, r3
20001278:	80bb      	strh	r3, [r7, #4]
E:\Github_Repos\SF2_Eth_FFT\Softconsole\FFT_Accelerator\Debug/../src/main.c:498


	if(smpl_0_id < smpl_1_id){
2000127a:	88fa      	ldrh	r2, [r7, #6]
2000127c:	88bb      	ldrh	r3, [r7, #4]
2000127e:	429a      	cmp	r2, r3
20001280:	d206      	bcs.n	20001290 <load_fft_samples+0x54>
E:\Github_Repos\SF2_Eth_FFT\Softconsole\FFT_Accelerator\Debug/../src/main.c:499
		smpls_first = smpl_pkt_0;
20001282:	4b2c      	ldr	r3, [pc, #176]	; (20001334 <load_fft_samples+0xf8>)
20001284:	681b      	ldr	r3, [r3, #0]
20001286:	617b      	str	r3, [r7, #20]
E:\Github_Repos\SF2_Eth_FFT\Softconsole\FFT_Accelerator\Debug/../src/main.c:500
		smpls_sec = smpl_pkt_1;
20001288:	4b2b      	ldr	r3, [pc, #172]	; (20001338 <load_fft_samples+0xfc>)
2000128a:	681b      	ldr	r3, [r3, #0]
2000128c:	613b      	str	r3, [r7, #16]
2000128e:	e005      	b.n	2000129c <load_fft_samples+0x60>
E:\Github_Repos\SF2_Eth_FFT\Softconsole\FFT_Accelerator\Debug/../src/main.c:503
	}
	else{
		smpls_first = smpl_pkt_1;
20001290:	4b29      	ldr	r3, [pc, #164]	; (20001338 <load_fft_samples+0xfc>)
20001292:	681b      	ldr	r3, [r3, #0]
20001294:	617b      	str	r3, [r7, #20]
E:\Github_Repos\SF2_Eth_FFT\Softconsole\FFT_Accelerator\Debug/../src/main.c:504
		smpls_sec = smpl_pkt_0;
20001296:	4b27      	ldr	r3, [pc, #156]	; (20001334 <load_fft_samples+0xf8>)
20001298:	681b      	ldr	r3, [r3, #0]
2000129a:	613b      	str	r3, [r7, #16]
E:\Github_Repos\SF2_Eth_FFT\Softconsole\FFT_Accelerator\Debug/../src/main.c:507
	}

	for(int i = ETH_PACKET_DATA_START; i < ETH_PACKET_DATA_START + 1024; i+=2){
2000129c:	232a      	movs	r3, #42	; 0x2a
2000129e:	60fb      	str	r3, [r7, #12]
200012a0:	e019      	b.n	200012d6 <load_fft_samples+0x9a>
E:\Github_Repos\SF2_Eth_FFT\Softconsole\FFT_Accelerator\Debug/../src/main.c:508 (discriminator 3)
		sample = smpls_first[i];
200012a2:	68fb      	ldr	r3, [r7, #12]
200012a4:	697a      	ldr	r2, [r7, #20]
200012a6:	4413      	add	r3, r2
200012a8:	781b      	ldrb	r3, [r3, #0]
200012aa:	807b      	strh	r3, [r7, #2]
E:\Github_Repos\SF2_Eth_FFT\Softconsole\FFT_Accelerator\Debug/../src/main.c:509 (discriminator 3)
		sample = (sample << 8) | (smpls_first[i+1] & 0xff);
200012ac:	f9b7 3002 	ldrsh.w	r3, [r7, #2]
200012b0:	021b      	lsls	r3, r3, #8
200012b2:	b21a      	sxth	r2, r3
200012b4:	68fb      	ldr	r3, [r7, #12]
200012b6:	3301      	adds	r3, #1
200012b8:	6979      	ldr	r1, [r7, #20]
200012ba:	440b      	add	r3, r1
200012bc:	781b      	ldrb	r3, [r3, #0]
200012be:	b21b      	sxth	r3, r3
200012c0:	4313      	orrs	r3, r2
200012c2:	807b      	strh	r3, [r7, #2]
E:\Github_Repos\SF2_Eth_FFT\Softconsole\FFT_Accelerator\Debug/../src/main.c:510 (discriminator 3)
		fft_load_smpl(&fft_fab, sample, 0u);
200012c4:	887b      	ldrh	r3, [r7, #2]
200012c6:	2200      	movs	r2, #0
200012c8:	4619      	mov	r1, r3
200012ca:	481c      	ldr	r0, [pc, #112]	; (2000133c <load_fft_samples+0x100>)
200012cc:	f7ff fa8c 	bl	200007e8 <fft_load_smpl>
E:\Github_Repos\SF2_Eth_FFT\Softconsole\FFT_Accelerator\Debug/../src/main.c:507 (discriminator 3)
	for(int i = ETH_PACKET_DATA_START; i < ETH_PACKET_DATA_START + 1024; i+=2){
200012d0:	68fb      	ldr	r3, [r7, #12]
200012d2:	3302      	adds	r3, #2
200012d4:	60fb      	str	r3, [r7, #12]
E:\Github_Repos\SF2_Eth_FFT\Softconsole\FFT_Accelerator\Debug/../src/main.c:507 (discriminator 1)
200012d6:	68fb      	ldr	r3, [r7, #12]
200012d8:	f240 4229 	movw	r2, #1065	; 0x429
200012dc:	4293      	cmp	r3, r2
200012de:	dde0      	ble.n	200012a2 <load_fft_samples+0x66>
E:\Github_Repos\SF2_Eth_FFT\Softconsole\FFT_Accelerator\Debug/../src/main.c:512
	}
	for(int i = ETH_PACKET_DATA_START; i < ETH_PACKET_DATA_START + 1024; i+=2){
200012e0:	232a      	movs	r3, #42	; 0x2a
200012e2:	60bb      	str	r3, [r7, #8]
200012e4:	e019      	b.n	2000131a <load_fft_samples+0xde>
E:\Github_Repos\SF2_Eth_FFT\Softconsole\FFT_Accelerator\Debug/../src/main.c:513 (discriminator 3)
		sample = smpls_sec[i];
200012e6:	68bb      	ldr	r3, [r7, #8]
200012e8:	693a      	ldr	r2, [r7, #16]
200012ea:	4413      	add	r3, r2
200012ec:	781b      	ldrb	r3, [r3, #0]
200012ee:	807b      	strh	r3, [r7, #2]
E:\Github_Repos\SF2_Eth_FFT\Softconsole\FFT_Accelerator\Debug/../src/main.c:514 (discriminator 3)
		sample = (sample << 8) | (smpls_sec[i+1] & 0xff);
200012f0:	f9b7 3002 	ldrsh.w	r3, [r7, #2]
200012f4:	021b      	lsls	r3, r3, #8
200012f6:	b21a      	sxth	r2, r3
200012f8:	68bb      	ldr	r3, [r7, #8]
200012fa:	3301      	adds	r3, #1
200012fc:	6939      	ldr	r1, [r7, #16]
200012fe:	440b      	add	r3, r1
20001300:	781b      	ldrb	r3, [r3, #0]
20001302:	b21b      	sxth	r3, r3
20001304:	4313      	orrs	r3, r2
20001306:	807b      	strh	r3, [r7, #2]
E:\Github_Repos\SF2_Eth_FFT\Softconsole\FFT_Accelerator\Debug/../src/main.c:515 (discriminator 3)
		fft_load_smpl(&fft_fab, sample, 0u);
20001308:	887b      	ldrh	r3, [r7, #2]
2000130a:	2200      	movs	r2, #0
2000130c:	4619      	mov	r1, r3
2000130e:	480b      	ldr	r0, [pc, #44]	; (2000133c <load_fft_samples+0x100>)
20001310:	f7ff fa6a 	bl	200007e8 <fft_load_smpl>
E:\Github_Repos\SF2_Eth_FFT\Softconsole\FFT_Accelerator\Debug/../src/main.c:512 (discriminator 3)
	for(int i = ETH_PACKET_DATA_START; i < ETH_PACKET_DATA_START + 1024; i+=2){
20001314:	68bb      	ldr	r3, [r7, #8]
20001316:	3302      	adds	r3, #2
20001318:	60bb      	str	r3, [r7, #8]
E:\Github_Repos\SF2_Eth_FFT\Softconsole\FFT_Accelerator\Debug/../src/main.c:512 (discriminator 1)
2000131a:	68bb      	ldr	r3, [r7, #8]
2000131c:	f240 4229 	movw	r2, #1065	; 0x429
20001320:	4293      	cmp	r3, r2
20001322:	dde0      	ble.n	200012e6 <load_fft_samples+0xaa>
E:\Github_Repos\SF2_Eth_FFT\Softconsole\FFT_Accelerator\Debug/../src/main.c:518
	}

	fft_load_done(&fft_fab);	// sets write done in FFT core
20001324:	4805      	ldr	r0, [pc, #20]	; (2000133c <load_fft_samples+0x100>)
20001326:	f7ff fa9b 	bl	20000860 <fft_load_done>
E:\Github_Repos\SF2_Eth_FFT\Softconsole\FFT_Accelerator\Debug/../src/main.c:522

	
	//MSS_UART_polled_tx_string(&g_mss_uart0, (const uint8_t *)"load finished\r\n");
}
2000132a:	bf00      	nop
2000132c:	3718      	adds	r7, #24
2000132e:	46bd      	mov	sp, r7
20001330:	bd80      	pop	{r7, pc}
20001332:	bf00      	nop
20001334:	20008158 	.word	0x20008158
20001338:	2000815c 	.word	0x2000815c
2000133c:	20008154 	.word	0x20008154

20001340 <read_fft_samples>:
read_fft_samples():
E:\Github_Repos\SF2_Eth_FFT\Softconsole\FFT_Accelerator\Debug/../src/main.c:525


void read_fft_samples(void){
20001340:	b580      	push	{r7, lr}
20001342:	b084      	sub	sp, #16
20001344:	af00      	add	r7, sp, #0
E:\Github_Repos\SF2_Eth_FFT\Softconsole\FFT_Accelerator\Debug/../src/main.c:530
	//char buffer[128];
	//int16_t fft_result_real[513];
	//int16_t fft_result_imag[513];
	uint16_t fft_result_abs;
	int byte_cnt = ETH_PACKET_DATA_START;
20001346:	232a      	movs	r3, #42	; 0x2a
20001348:	60fb      	str	r3, [r7, #12]
E:\Github_Repos\SF2_Eth_FFT\Softconsole\FFT_Accelerator\Debug/../src/main.c:535

	//MSS_UART_polled_tx_string(&g_mss_uart0, (const uint8_t *)"return started\r\n");

	/* ipv4 packet id */
	g_mac_tx_buffer[18] = (uint8_t)((eth_tx_id >> 8) & 0xff);
2000134a:	4b1e      	ldr	r3, [pc, #120]	; (200013c4 <read_fft_samples+0x84>)
2000134c:	881b      	ldrh	r3, [r3, #0]
2000134e:	0a1b      	lsrs	r3, r3, #8
20001350:	b29b      	uxth	r3, r3
20001352:	b2da      	uxtb	r2, r3
20001354:	4b1c      	ldr	r3, [pc, #112]	; (200013c8 <read_fft_samples+0x88>)
20001356:	749a      	strb	r2, [r3, #18]
E:\Github_Repos\SF2_Eth_FFT\Softconsole\FFT_Accelerator\Debug/../src/main.c:536
	g_mac_tx_buffer[19] = (uint8_t)(eth_tx_id & 0xff);
20001358:	4b1a      	ldr	r3, [pc, #104]	; (200013c4 <read_fft_samples+0x84>)
2000135a:	881b      	ldrh	r3, [r3, #0]
2000135c:	b2da      	uxtb	r2, r3
2000135e:	4b1a      	ldr	r3, [pc, #104]	; (200013c8 <read_fft_samples+0x88>)
20001360:	74da      	strb	r2, [r3, #19]
E:\Github_Repos\SF2_Eth_FFT\Softconsole\FFT_Accelerator\Debug/../src/main.c:540
	//eth_tx_id++;


	for(int i = 0; i < 513; i++){
20001362:	2300      	movs	r3, #0
20001364:	60bb      	str	r3, [r7, #8]
20001366:	e016      	b.n	20001396 <read_fft_samples+0x56>
E:\Github_Repos\SF2_Eth_FFT\Softconsole\FFT_Accelerator\Debug/../src/main.c:541 (discriminator 3)
		byte_cnt++;
20001368:	68fb      	ldr	r3, [r7, #12]
2000136a:	3301      	adds	r3, #1
2000136c:	60fb      	str	r3, [r7, #12]
E:\Github_Repos\SF2_Eth_FFT\Softconsole\FFT_Accelerator\Debug/../src/main.c:543 (discriminator 3)
		//fft_read_smpl(&fft_fab, (uint16_t)i, fft_result_real[i], fft_result_imag[i], fft_result_abs);
		fft_set_output_smpl(&fft_fab, (uint16_t)i);
2000136e:	68bb      	ldr	r3, [r7, #8]
20001370:	b29b      	uxth	r3, r3
20001372:	4619      	mov	r1, r3
20001374:	4815      	ldr	r0, [pc, #84]	; (200013cc <read_fft_samples+0x8c>)
20001376:	f7ff fac1 	bl	200008fc <fft_set_output_smpl>
E:\Github_Repos\SF2_Eth_FFT\Softconsole\FFT_Accelerator\Debug/../src/main.c:546 (discriminator 3)
		//fft_result_real[i] = fft_get_real_out(&fft_fab);
		//fft_result_imag[i] = fft_get_imag_out(&fft_fab);
		fft_result_abs = fft_get_abs_val_out(&fft_fab);
2000137a:	4814      	ldr	r0, [pc, #80]	; (200013cc <read_fft_samples+0x8c>)
2000137c:	f7ff fad0 	bl	20000920 <fft_get_abs_val_out>
20001380:	4603      	mov	r3, r0
20001382:	80fb      	strh	r3, [r7, #6]
E:\Github_Repos\SF2_Eth_FFT\Softconsole\FFT_Accelerator\Debug/../src/main.c:547 (discriminator 3)
		g_mac_tx_buffer[i + ETH_PACKET_DATA_START] = (uint8_t)fft_result_abs;
20001384:	68bb      	ldr	r3, [r7, #8]
20001386:	332a      	adds	r3, #42	; 0x2a
20001388:	88fa      	ldrh	r2, [r7, #6]
2000138a:	b2d1      	uxtb	r1, r2
2000138c:	4a0e      	ldr	r2, [pc, #56]	; (200013c8 <read_fft_samples+0x88>)
2000138e:	54d1      	strb	r1, [r2, r3]
E:\Github_Repos\SF2_Eth_FFT\Softconsole\FFT_Accelerator\Debug/../src/main.c:540 (discriminator 3)
	for(int i = 0; i < 513; i++){
20001390:	68bb      	ldr	r3, [r7, #8]
20001392:	3301      	adds	r3, #1
20001394:	60bb      	str	r3, [r7, #8]
E:\Github_Repos\SF2_Eth_FFT\Softconsole\FFT_Accelerator\Debug/../src/main.c:540 (discriminator 1)
20001396:	68bb      	ldr	r3, [r7, #8]
20001398:	f5b3 7f00 	cmp.w	r3, #512	; 0x200
2000139c:	dde4      	ble.n	20001368 <read_fft_samples+0x28>
E:\Github_Repos\SF2_Eth_FFT\Softconsole\FFT_Accelerator\Debug/../src/main.c:553

		//snprintf(buffer, sizeof(buffer), "return %d = %d + i%d\r\n", (int)i, (int)fft_result_real[i], (int)fft_result_imag[i]);
		//MSS_UART_polled_tx_string(&g_mss_uart0, (const uint8_t *)buffer);
	}

	MSS_MAC_send_pkt(g_mac_tx_buffer, byte_cnt, (void *)&g_mac_tx_buffer_used);
2000139e:	68fb      	ldr	r3, [r7, #12]
200013a0:	4a0b      	ldr	r2, [pc, #44]	; (200013d0 <read_fft_samples+0x90>)
200013a2:	4619      	mov	r1, r3
200013a4:	4808      	ldr	r0, [pc, #32]	; (200013c8 <read_fft_samples+0x88>)
200013a6:	f002 f905 	bl	200035b4 <MSS_MAC_send_pkt>
E:\Github_Repos\SF2_Eth_FFT\Softconsole\FFT_Accelerator\Debug/../src/main.c:556
	//MSS_UART_polled_tx_string(&g_mss_uart0, (const uint8_t *)"return finished\r\n");

	if(fft_auto_done != 0){
200013aa:	4b0a      	ldr	r3, [pc, #40]	; (200013d4 <read_fft_samples+0x94>)
200013ac:	f993 3000 	ldrsb.w	r3, [r3]
200013b0:	2b00      	cmp	r3, #0
200013b2:	d002      	beq.n	200013ba <read_fft_samples+0x7a>
E:\Github_Repos\SF2_Eth_FFT\Softconsole\FFT_Accelerator\Debug/../src/main.c:557
		fft_read_done(&fft_fab);
200013b4:	4805      	ldr	r0, [pc, #20]	; (200013cc <read_fft_samples+0x8c>)
200013b6:	f7ff fa6d 	bl	20000894 <fft_read_done>
E:\Github_Repos\SF2_Eth_FFT\Softconsole\FFT_Accelerator\Debug/../src/main.c:559
	}
}
200013ba:	bf00      	nop
200013bc:	3710      	adds	r7, #16
200013be:	46bd      	mov	sp, r7
200013c0:	bd80      	pop	{r7, pc}
200013c2:	bf00      	nop
200013c4:	200050f6 	.word	0x200050f6
200013c8:	20004a5c 	.word	0x20004a5c
200013cc:	20008154 	.word	0x20008154
200013d0:	20005048 	.word	0x20005048
200013d4:	200050f5 	.word	0x200050f5

200013d8 <report_fft_status>:
report_fft_status():
E:\Github_Repos\SF2_Eth_FFT\Softconsole\FFT_Accelerator\Debug/../src/main.c:561

void report_fft_status(void){
200013d8:	b580      	push	{r7, lr}
200013da:	b082      	sub	sp, #8
200013dc:	af00      	add	r7, sp, #0
E:\Github_Repos\SF2_Eth_FFT\Softconsole\FFT_Accelerator\Debug/../src/main.c:566
	//char buffer[128];
	uint8_t fft_status;
	uint8_t status_test;

	MSS_UART_polled_tx_string(&g_mss_uart0, (const uint8_t *)"==========\r\nstatus started\r\n");
200013de:	4943      	ldr	r1, [pc, #268]	; (200014ec <report_fft_status+0x114>)
200013e0:	4843      	ldr	r0, [pc, #268]	; (200014f0 <report_fft_status+0x118>)
200013e2:	f000 fa15 	bl	20001810 <MSS_UART_polled_tx_string>
E:\Github_Repos\SF2_Eth_FFT\Softconsole\FFT_Accelerator\Debug/../src/main.c:567
	fft_status = fft_get_status(&fft_fab);
200013e6:	4843      	ldr	r0, [pc, #268]	; (200014f4 <report_fft_status+0x11c>)
200013e8:	f7ff f9ef 	bl	200007ca <fft_get_status>
200013ec:	4603      	mov	r3, r0
200013ee:	71fb      	strb	r3, [r7, #7]
E:\Github_Repos\SF2_Eth_FFT\Softconsole\FFT_Accelerator\Debug/../src/main.c:568
	status_test = fft_status & STAT_W_READY;
200013f0:	79fb      	ldrb	r3, [r7, #7]
200013f2:	f003 0301 	and.w	r3, r3, #1
200013f6:	71bb      	strb	r3, [r7, #6]
E:\Github_Repos\SF2_Eth_FFT\Softconsole\FFT_Accelerator\Debug/../src/main.c:569
	if(status_test != 0){
200013f8:	79bb      	ldrb	r3, [r7, #6]
200013fa:	2b00      	cmp	r3, #0
200013fc:	d003      	beq.n	20001406 <report_fft_status+0x2e>
E:\Github_Repos\SF2_Eth_FFT\Softconsole\FFT_Accelerator\Debug/../src/main.c:570
		MSS_UART_polled_tx_string(&g_mss_uart0, (const uint8_t *)"INPUT READY\r\n");
200013fe:	493e      	ldr	r1, [pc, #248]	; (200014f8 <report_fft_status+0x120>)
20001400:	483b      	ldr	r0, [pc, #236]	; (200014f0 <report_fft_status+0x118>)
20001402:	f000 fa05 	bl	20001810 <MSS_UART_polled_tx_string>
E:\Github_Repos\SF2_Eth_FFT\Softconsole\FFT_Accelerator\Debug/../src/main.c:572
	}
	status_test = fft_status & STAT_W_FULL;
20001406:	79fb      	ldrb	r3, [r7, #7]
20001408:	f003 0302 	and.w	r3, r3, #2
2000140c:	71bb      	strb	r3, [r7, #6]
E:\Github_Repos\SF2_Eth_FFT\Softconsole\FFT_Accelerator\Debug/../src/main.c:573
	if(status_test != 0){
2000140e:	79bb      	ldrb	r3, [r7, #6]
20001410:	2b00      	cmp	r3, #0
20001412:	d003      	beq.n	2000141c <report_fft_status+0x44>
E:\Github_Repos\SF2_Eth_FFT\Softconsole\FFT_Accelerator\Debug/../src/main.c:574
		MSS_UART_polled_tx_string(&g_mss_uart0, (const uint8_t *)"INPUT FULL\r\n");
20001414:	4939      	ldr	r1, [pc, #228]	; (200014fc <report_fft_status+0x124>)
20001416:	4836      	ldr	r0, [pc, #216]	; (200014f0 <report_fft_status+0x118>)
20001418:	f000 f9fa 	bl	20001810 <MSS_UART_polled_tx_string>
E:\Github_Repos\SF2_Eth_FFT\Softconsole\FFT_Accelerator\Debug/../src/main.c:576
	}
	status_test = fft_status & STAT_R_READY;
2000141c:	79fb      	ldrb	r3, [r7, #7]
2000141e:	f003 0304 	and.w	r3, r3, #4
20001422:	71bb      	strb	r3, [r7, #6]
E:\Github_Repos\SF2_Eth_FFT\Softconsole\FFT_Accelerator\Debug/../src/main.c:577
	if(status_test != 0){
20001424:	79bb      	ldrb	r3, [r7, #6]
20001426:	2b00      	cmp	r3, #0
20001428:	d003      	beq.n	20001432 <report_fft_status+0x5a>
E:\Github_Repos\SF2_Eth_FFT\Softconsole\FFT_Accelerator\Debug/../src/main.c:578
		MSS_UART_polled_tx_string(&g_mss_uart0, (const uint8_t *)"OUTPUT READY\r\n");
2000142a:	4935      	ldr	r1, [pc, #212]	; (20001500 <report_fft_status+0x128>)
2000142c:	4830      	ldr	r0, [pc, #192]	; (200014f0 <report_fft_status+0x118>)
2000142e:	f000 f9ef 	bl	20001810 <MSS_UART_polled_tx_string>
E:\Github_Repos\SF2_Eth_FFT\Softconsole\FFT_Accelerator\Debug/../src/main.c:580
	}
	status_test = fft_status & STAT_R_VALID;
20001432:	79fb      	ldrb	r3, [r7, #7]
20001434:	f003 0308 	and.w	r3, r3, #8
20001438:	71bb      	strb	r3, [r7, #6]
E:\Github_Repos\SF2_Eth_FFT\Softconsole\FFT_Accelerator\Debug/../src/main.c:581
	if(status_test != 0){
2000143a:	79bb      	ldrb	r3, [r7, #6]
2000143c:	2b00      	cmp	r3, #0
2000143e:	d003      	beq.n	20001448 <report_fft_status+0x70>
E:\Github_Repos\SF2_Eth_FFT\Softconsole\FFT_Accelerator\Debug/../src/main.c:582
		MSS_UART_polled_tx_string(&g_mss_uart0, (const uint8_t *)"OUTPUT VALID\r\n");
20001440:	4930      	ldr	r1, [pc, #192]	; (20001504 <report_fft_status+0x12c>)
20001442:	482b      	ldr	r0, [pc, #172]	; (200014f0 <report_fft_status+0x118>)
20001444:	f000 f9e4 	bl	20001810 <MSS_UART_polled_tx_string>
E:\Github_Repos\SF2_Eth_FFT\Softconsole\FFT_Accelerator\Debug/../src/main.c:584
	}
	status_test = fft_status & STAT_ABS_VALID;
20001448:	79fb      	ldrb	r3, [r7, #7]
2000144a:	f003 0310 	and.w	r3, r3, #16
2000144e:	71bb      	strb	r3, [r7, #6]
E:\Github_Repos\SF2_Eth_FFT\Softconsole\FFT_Accelerator\Debug/../src/main.c:585
	if(status_test != 0){
20001450:	79bb      	ldrb	r3, [r7, #6]
20001452:	2b00      	cmp	r3, #0
20001454:	d003      	beq.n	2000145e <report_fft_status+0x86>
E:\Github_Repos\SF2_Eth_FFT\Softconsole\FFT_Accelerator\Debug/../src/main.c:586
		MSS_UART_polled_tx_string(&g_mss_uart0, (const uint8_t *)"ABS VALUE VALID\r\n");
20001456:	492c      	ldr	r1, [pc, #176]	; (20001508 <report_fft_status+0x130>)
20001458:	4825      	ldr	r0, [pc, #148]	; (200014f0 <report_fft_status+0x118>)
2000145a:	f000 f9d9 	bl	20001810 <MSS_UART_polled_tx_string>
E:\Github_Repos\SF2_Eth_FFT\Softconsole\FFT_Accelerator\Debug/../src/main.c:588
	}
	status_test = fft_status & STAT_INT_ACTIVE;
2000145e:	79fb      	ldrb	r3, [r7, #7]
20001460:	f003 0320 	and.w	r3, r3, #32
20001464:	71bb      	strb	r3, [r7, #6]
E:\Github_Repos\SF2_Eth_FFT\Softconsole\FFT_Accelerator\Debug/../src/main.c:589
	if(status_test != 0){
20001466:	79bb      	ldrb	r3, [r7, #6]
20001468:	2b00      	cmp	r3, #0
2000146a:	d003      	beq.n	20001474 <report_fft_status+0x9c>
E:\Github_Repos\SF2_Eth_FFT\Softconsole\FFT_Accelerator\Debug/../src/main.c:590
		MSS_UART_polled_tx_string(&g_mss_uart0, (const uint8_t *)"INTERRUPT ACTIVE\r\n");
2000146c:	4927      	ldr	r1, [pc, #156]	; (2000150c <report_fft_status+0x134>)
2000146e:	4820      	ldr	r0, [pc, #128]	; (200014f0 <report_fft_status+0x118>)
20001470:	f000 f9ce 	bl	20001810 <MSS_UART_polled_tx_string>
E:\Github_Repos\SF2_Eth_FFT\Softconsole\FFT_Accelerator\Debug/../src/main.c:593
	}

	MSS_UART_polled_tx_string(&g_mss_uart0, (const uint8_t *)"==========\r\ncontrol register\r\n");
20001474:	4926      	ldr	r1, [pc, #152]	; (20001510 <report_fft_status+0x138>)
20001476:	481e      	ldr	r0, [pc, #120]	; (200014f0 <report_fft_status+0x118>)
20001478:	f000 f9ca 	bl	20001810 <MSS_UART_polled_tx_string>
E:\Github_Repos\SF2_Eth_FFT\Softconsole\FFT_Accelerator\Debug/../src/main.c:595

	fft_status = fft_get_ctrl(&fft_fab);
2000147c:	481d      	ldr	r0, [pc, #116]	; (200014f4 <report_fft_status+0x11c>)
2000147e:	f7ff f9e1 	bl	20000844 <fft_get_ctrl>
20001482:	4603      	mov	r3, r0
20001484:	71fb      	strb	r3, [r7, #7]
E:\Github_Repos\SF2_Eth_FFT\Softconsole\FFT_Accelerator\Debug/../src/main.c:596
	status_test = fft_status & CTRL_WRITE_EN;
20001486:	79fb      	ldrb	r3, [r7, #7]
20001488:	f003 0301 	and.w	r3, r3, #1
2000148c:	71bb      	strb	r3, [r7, #6]
E:\Github_Repos\SF2_Eth_FFT\Softconsole\FFT_Accelerator\Debug/../src/main.c:597
	if(status_test != 0){
2000148e:	79bb      	ldrb	r3, [r7, #6]
20001490:	2b00      	cmp	r3, #0
20001492:	d003      	beq.n	2000149c <report_fft_status+0xc4>
E:\Github_Repos\SF2_Eth_FFT\Softconsole\FFT_Accelerator\Debug/../src/main.c:598
		MSS_UART_polled_tx_string(&g_mss_uart0, (const uint8_t *)"WRITE ENABLED\r\n");
20001494:	491f      	ldr	r1, [pc, #124]	; (20001514 <report_fft_status+0x13c>)
20001496:	4816      	ldr	r0, [pc, #88]	; (200014f0 <report_fft_status+0x118>)
20001498:	f000 f9ba 	bl	20001810 <MSS_UART_polled_tx_string>
E:\Github_Repos\SF2_Eth_FFT\Softconsole\FFT_Accelerator\Debug/../src/main.c:600
	}
	status_test = fft_status & CTRL_LOAD_DONE;
2000149c:	79fb      	ldrb	r3, [r7, #7]
2000149e:	f003 0302 	and.w	r3, r3, #2
200014a2:	71bb      	strb	r3, [r7, #6]
E:\Github_Repos\SF2_Eth_FFT\Softconsole\FFT_Accelerator\Debug/../src/main.c:601
	if(status_test != 0){
200014a4:	79bb      	ldrb	r3, [r7, #6]
200014a6:	2b00      	cmp	r3, #0
200014a8:	d003      	beq.n	200014b2 <report_fft_status+0xda>
E:\Github_Repos\SF2_Eth_FFT\Softconsole\FFT_Accelerator\Debug/../src/main.c:602
		MSS_UART_polled_tx_string(&g_mss_uart0, (const uint8_t *)"WRITE DONE\r\n");
200014aa:	491b      	ldr	r1, [pc, #108]	; (20001518 <report_fft_status+0x140>)
200014ac:	4810      	ldr	r0, [pc, #64]	; (200014f0 <report_fft_status+0x118>)
200014ae:	f000 f9af 	bl	20001810 <MSS_UART_polled_tx_string>
E:\Github_Repos\SF2_Eth_FFT\Softconsole\FFT_Accelerator\Debug/../src/main.c:604
	}
	status_test = fft_status & CTRL_READ_DONE;
200014b2:	79fb      	ldrb	r3, [r7, #7]
200014b4:	f003 0304 	and.w	r3, r3, #4
200014b8:	71bb      	strb	r3, [r7, #6]
E:\Github_Repos\SF2_Eth_FFT\Softconsole\FFT_Accelerator\Debug/../src/main.c:605
	if(status_test != 0){
200014ba:	79bb      	ldrb	r3, [r7, #6]
200014bc:	2b00      	cmp	r3, #0
200014be:	d003      	beq.n	200014c8 <report_fft_status+0xf0>
E:\Github_Repos\SF2_Eth_FFT\Softconsole\FFT_Accelerator\Debug/../src/main.c:606
		MSS_UART_polled_tx_string(&g_mss_uart0, (const uint8_t *)"READ DONE\r\n");
200014c0:	4916      	ldr	r1, [pc, #88]	; (2000151c <report_fft_status+0x144>)
200014c2:	480b      	ldr	r0, [pc, #44]	; (200014f0 <report_fft_status+0x118>)
200014c4:	f000 f9a4 	bl	20001810 <MSS_UART_polled_tx_string>
E:\Github_Repos\SF2_Eth_FFT\Softconsole\FFT_Accelerator\Debug/../src/main.c:608
	}
	if(fft_auto_done != 0){
200014c8:	4b15      	ldr	r3, [pc, #84]	; (20001520 <report_fft_status+0x148>)
200014ca:	f993 3000 	ldrsb.w	r3, [r3]
200014ce:	2b00      	cmp	r3, #0
200014d0:	d003      	beq.n	200014da <report_fft_status+0x102>
E:\Github_Repos\SF2_Eth_FFT\Softconsole\FFT_Accelerator\Debug/../src/main.c:609
		MSS_UART_polled_tx_string(&g_mss_uart0, (const uint8_t *)"AUTO READ DONE\r\n");
200014d2:	4914      	ldr	r1, [pc, #80]	; (20001524 <report_fft_status+0x14c>)
200014d4:	4806      	ldr	r0, [pc, #24]	; (200014f0 <report_fft_status+0x118>)
200014d6:	f000 f99b 	bl	20001810 <MSS_UART_polled_tx_string>
E:\Github_Repos\SF2_Eth_FFT\Softconsole\FFT_Accelerator\Debug/../src/main.c:612
	}

	MSS_UART_polled_tx_string(&g_mss_uart0, (const uint8_t *)"status finished\r\n==========\r\n");
200014da:	4913      	ldr	r1, [pc, #76]	; (20001528 <report_fft_status+0x150>)
200014dc:	4804      	ldr	r0, [pc, #16]	; (200014f0 <report_fft_status+0x118>)
200014de:	f000 f997 	bl	20001810 <MSS_UART_polled_tx_string>
E:\Github_Repos\SF2_Eth_FFT\Softconsole\FFT_Accelerator\Debug/../src/main.c:613
}
200014e2:	bf00      	nop
200014e4:	3708      	adds	r7, #8
200014e6:	46bd      	mov	sp, r7
200014e8:	bd80      	pop	{r7, pc}
200014ea:	bf00      	nop
200014ec:	200047f0 	.word	0x200047f0
200014f0:	200081a0 	.word	0x200081a0
200014f4:	20008154 	.word	0x20008154
200014f8:	20004810 	.word	0x20004810
200014fc:	20004820 	.word	0x20004820
20001500:	20004830 	.word	0x20004830
20001504:	20004840 	.word	0x20004840
20001508:	20004850 	.word	0x20004850
2000150c:	20004864 	.word	0x20004864
20001510:	20004878 	.word	0x20004878
20001514:	20004898 	.word	0x20004898
20001518:	200048a8 	.word	0x200048a8
2000151c:	200048b8 	.word	0x200048b8
20001520:	200050f5 	.word	0x200050f5
20001524:	200048c4 	.word	0x200048c4
20001528:	200048d8 	.word	0x200048d8

2000152c <eth_arp_announce>:
eth_arp_announce():
E:\Github_Repos\SF2_Eth_FFT\Softconsole\FFT_Accelerator\Debug/../src/main.c:619

void eth_gen_checksum(uint8_t * buffer, uint32_t length){

}

void eth_arp_announce(void){
2000152c:	b580      	push	{r7, lr}
2000152e:	b082      	sub	sp, #8
20001530:	af00      	add	r7, sp, #0
E:\Github_Repos\SF2_Eth_FFT\Softconsole\FFT_Accelerator\Debug/../src/main.c:622

	static uint8_t * tx_buffer;
	int buf_len = 0;
20001532:	2300      	movs	r3, #0
20001534:	607b      	str	r3, [r7, #4]
E:\Github_Repos\SF2_Eth_FFT\Softconsole\FFT_Accelerator\Debug/../src/main.c:625

	//buf_len = ARP_get_gratuitous(tx_buffer);
	buf_len = ARP_get_announce(tx_buffer);
20001536:	4b08      	ldr	r3, [pc, #32]	; (20001558 <eth_arp_announce+0x2c>)
20001538:	681b      	ldr	r3, [r3, #0]
2000153a:	4618      	mov	r0, r3
2000153c:	f7ff f8d4 	bl	200006e8 <ARP_get_announce>
20001540:	6078      	str	r0, [r7, #4]
E:\Github_Repos\SF2_Eth_FFT\Softconsole\FFT_Accelerator\Debug/../src/main.c:627
	//arp_buffer
	MSS_MAC_send_pkt(arp_buffer, buf_len, (void *)&g_mac_tx_buffer_used);
20001542:	687b      	ldr	r3, [r7, #4]
20001544:	4a05      	ldr	r2, [pc, #20]	; (2000155c <eth_arp_announce+0x30>)
20001546:	4619      	mov	r1, r3
20001548:	4805      	ldr	r0, [pc, #20]	; (20001560 <eth_arp_announce+0x34>)
2000154a:	f002 f833 	bl	200035b4 <MSS_MAC_send_pkt>
E:\Github_Repos\SF2_Eth_FFT\Softconsole\FFT_Accelerator\Debug/../src/main.c:629
	//MSS_MAC_send_pkt(test_buffer, sizeof(test_buffer), (void *)&g_mac_tx_buffer_used);
}
2000154e:	bf00      	nop
20001550:	3708      	adds	r7, #8
20001552:	46bd      	mov	sp, r7
20001554:	bd80      	pop	{r7, pc}
20001556:	bf00      	nop
20001558:	20008058 	.word	0x20008058
2000155c:	20005048 	.word	0x20005048
20001560:	20004a30 	.word	0x20004a30

20001564 <test_GPIO_high>:
test_GPIO_high():
E:\Github_Repos\SF2_Eth_FFT\Softconsole\FFT_Accelerator\Debug/../src/main.c:635

void eth_send_big_data(void){
	MSS_MAC_send_pkt(g_mac_tx_buffer, sizeof(g_mac_tx_buffer), (void *)&g_mac_tx_buffer_used);
}

uint32_t test_GPIO_high(uint32_t GPIO_MASK){
20001564:	b580      	push	{r7, lr}
20001566:	b084      	sub	sp, #16
20001568:	af00      	add	r7, sp, #0
2000156a:	6078      	str	r0, [r7, #4]
E:\Github_Repos\SF2_Eth_FFT\Softconsole\FFT_Accelerator\Debug/../src/main.c:637
	uint32_t gpio_inputs;
	gpio_inputs = MSS_GPIO_get_inputs();
2000156c:	f7ff fb70 	bl	20000c50 <MSS_GPIO_get_inputs>
20001570:	60f8      	str	r0, [r7, #12]
E:\Github_Repos\SF2_Eth_FFT\Softconsole\FFT_Accelerator\Debug/../src/main.c:638
	gpio_inputs &= GPIO_MASK;
20001572:	68fa      	ldr	r2, [r7, #12]
20001574:	687b      	ldr	r3, [r7, #4]
20001576:	4013      	ands	r3, r2
20001578:	60fb      	str	r3, [r7, #12]
E:\Github_Repos\SF2_Eth_FFT\Softconsole\FFT_Accelerator\Debug/../src/main.c:640

	return gpio_inputs;
2000157a:	68fb      	ldr	r3, [r7, #12]
E:\Github_Repos\SF2_Eth_FFT\Softconsole\FFT_Accelerator\Debug/../src/main.c:641
}
2000157c:	4618      	mov	r0, r3
2000157e:	3710      	adds	r7, #16
20001580:	46bd      	mov	sp, r7
20001582:	bd80      	pop	{r7, pc}

20001584 <GPIO8_IRQHandler>:
GPIO8_IRQHandler():
E:\Github_Repos\SF2_Eth_FFT\Softconsole\FFT_Accelerator\Debug/../src/main.c:647

/*-------------------------------------------------------------------------*//**
 * GPIO8_IRQHandler() reads Board_Button[0]; SW1
 * big data out
 */
void GPIO8_IRQHandler(void){
20001584:	b580      	push	{r7, lr}
20001586:	af00      	add	r7, sp, #0
E:\Github_Repos\SF2_Eth_FFT\Softconsole\FFT_Accelerator\Debug/../src/main.c:649

	if(0 != test_GPIO_high(MSS_GPIO_8_MASK)){
20001588:	f44f 7080 	mov.w	r0, #256	; 0x100
2000158c:	f7ff ffea 	bl	20001564 <test_GPIO_high>
20001590:	4603      	mov	r3, r0
20001592:	2b00      	cmp	r3, #0
20001594:	d007      	beq.n	200015a6 <GPIO8_IRQHandler+0x22>
E:\Github_Repos\SF2_Eth_FFT\Softconsole\FFT_Accelerator\Debug/../src/main.c:651
		//do_big_data ^= 1;
		fft_auto_done ^= 1u;
20001596:	4b06      	ldr	r3, [pc, #24]	; (200015b0 <GPIO8_IRQHandler+0x2c>)
20001598:	f993 3000 	ldrsb.w	r3, [r3]
2000159c:	f083 0301 	eor.w	r3, r3, #1
200015a0:	b25a      	sxtb	r2, r3
200015a2:	4b03      	ldr	r3, [pc, #12]	; (200015b0 <GPIO8_IRQHandler+0x2c>)
200015a4:	701a      	strb	r2, [r3, #0]
E:\Github_Repos\SF2_Eth_FFT\Softconsole\FFT_Accelerator\Debug/../src/main.c:660
	if(do_big_data != 0){
		// build output buffer?
	}
	*/

	MSS_GPIO_clear_irq(MSS_GPIO_8);
200015a6:	2008      	movs	r0, #8
200015a8:	f001 fac0 	bl	20002b2c <MSS_GPIO_clear_irq>
E:\Github_Repos\SF2_Eth_FFT\Softconsole\FFT_Accelerator\Debug/../src/main.c:661
}
200015ac:	bf00      	nop
200015ae:	bd80      	pop	{r7, pc}
200015b0:	200050f5 	.word	0x200050f5

200015b4 <GPIO9_IRQHandler>:
GPIO9_IRQHandler():
E:\Github_Repos\SF2_Eth_FFT\Softconsole\FFT_Accelerator\Debug/../src/main.c:667

/*-------------------------------------------------------------------------*//**
 * GPIO9_IRQHandler()  reads Board_Button[1]; SW2
 * dump PHY and MAC registers
 */
void GPIO9_IRQHandler(void){
200015b4:	b580      	push	{r7, lr}
200015b6:	af00      	add	r7, sp, #0
E:\Github_Repos\SF2_Eth_FFT\Softconsole\FFT_Accelerator\Debug/../src/main.c:669

	if(0 != test_GPIO_high(MSS_GPIO_9_MASK)){
200015b8:	f44f 7000 	mov.w	r0, #512	; 0x200
200015bc:	f7ff ffd2 	bl	20001564 <test_GPIO_high>
200015c0:	4603      	mov	r3, r0
200015c2:	2b00      	cmp	r3, #0
200015c4:	d003      	beq.n	200015ce <GPIO9_IRQHandler+0x1a>
E:\Github_Repos\SF2_Eth_FFT\Softconsole\FFT_Accelerator\Debug/../src/main.c:671
		//eth_arp_announce();
		report_eth_status();
200015c6:	f7ff fd9d 	bl	20001104 <report_eth_status>
E:\Github_Repos\SF2_Eth_FFT\Softconsole\FFT_Accelerator\Debug/../src/main.c:672
		report_mac_phy_reg();
200015ca:	f7ff fdf5 	bl	200011b8 <report_mac_phy_reg>
E:\Github_Repos\SF2_Eth_FFT\Softconsole\FFT_Accelerator\Debug/../src/main.c:675
	}

	MSS_GPIO_clear_irq(MSS_GPIO_9);
200015ce:	2009      	movs	r0, #9
200015d0:	f001 faac 	bl	20002b2c <MSS_GPIO_clear_irq>
E:\Github_Repos\SF2_Eth_FFT\Softconsole\FFT_Accelerator\Debug/../src/main.c:676
}
200015d4:	bf00      	nop
200015d6:	bd80      	pop	{r7, pc}

200015d8 <FabricIrq0_IRQHandler>:
FabricIrq0_IRQHandler():
E:\Github_Repos\SF2_Eth_FFT\Softconsole\FFT_Accelerator\Debug/../src/main.c:682

/*-------------------------------------------------------------------------*//**
 * FabricIrq0_IRQHandler() triggers on MDINT from the Ethernet PHY
 * TODO
 */
void FabricIrq0_IRQHandler(void){
200015d8:	b480      	push	{r7}
200015da:	af00      	add	r7, sp, #0
E:\Github_Repos\SF2_Eth_FFT\Softconsole\FFT_Accelerator\Debug/../src/main.c:684

}
200015dc:	bf00      	nop
200015de:	46bd      	mov	sp, r7
200015e0:	bc80      	pop	{r7}
200015e2:	4770      	bx	lr

200015e4 <FabricIrq1_IRQHandler>:
FabricIrq1_IRQHandler():
E:\Github_Repos\SF2_Eth_FFT\Softconsole\FFT_Accelerator\Debug/../src/main.c:690

/*-------------------------------------------------------------------------*//**
 * FabricIrq1_IRQHandler() triggers on the FFT completion
 * exports data as an ethernet frame and clears the interrupt
 */
void FabricIrq1_IRQHandler(void){
200015e4:	b580      	push	{r7, lr}
200015e6:	af00      	add	r7, sp, #0
E:\Github_Repos\SF2_Eth_FFT\Softconsole\FFT_Accelerator\Debug/../src/main.c:692
	//MSS_UART_polled_tx_string(&g_mss_uart0, (const uint8_t *)"FFT Interrupt Triggered\r\n");
	read_fft_samples();
200015e8:	f7ff feaa 	bl	20001340 <read_fft_samples>
E:\Github_Repos\SF2_Eth_FFT\Softconsole\FFT_Accelerator\Debug/../src/main.c:693
	NVIC_ClearPendingIRQ(FabricIrq1_IRQn);
200015ec:	2023      	movs	r0, #35	; 0x23
200015ee:	f7ff fb15 	bl	20000c1c <NVIC_ClearPendingIRQ>
E:\Github_Repos\SF2_Eth_FFT\Softconsole\FFT_Accelerator\Debug/../src/main.c:694
	fft_int_clr(&fft_fab);
200015f2:	4802      	ldr	r0, [pc, #8]	; (200015fc <FabricIrq1_IRQHandler+0x18>)
200015f4:	f7ff f968 	bl	200008c8 <fft_int_clr>
E:\Github_Repos\SF2_Eth_FFT\Softconsole\FFT_Accelerator\Debug/../src/main.c:695
}
200015f8:	bf00      	nop
200015fa:	bd80      	pop	{r7, pc}
200015fc:	20008154 	.word	0x20008154

20001600 <HW_set_32bit_reg>:
HW_set_32bit_reg():
E:\Github_Repos\SF2_FFT_Accelerator\Softconsole\FFT_Accelerator\Debug/../firmware/hal/CortexM3/GNU/hw_reg_access.S:41
20001600:	6001      	str	r1, [r0, #0]
E:\Github_Repos\SF2_FFT_Accelerator\Softconsole\FFT_Accelerator\Debug/../firmware/hal/CortexM3/GNU/hw_reg_access.S:42
20001602:	4770      	bx	lr

20001604 <HW_get_32bit_reg>:
HW_get_32bit_reg():
E:\Github_Repos\SF2_FFT_Accelerator\Softconsole\FFT_Accelerator\Debug/../firmware/hal/CortexM3/GNU/hw_reg_access.S:48
20001604:	6800      	ldr	r0, [r0, #0]
E:\Github_Repos\SF2_FFT_Accelerator\Softconsole\FFT_Accelerator\Debug/../firmware/hal/CortexM3/GNU/hw_reg_access.S:49
20001606:	4770      	bx	lr

20001608 <HW_set_32bit_reg_field>:
HW_set_32bit_reg_field():
E:\Github_Repos\SF2_FFT_Accelerator\Softconsole\FFT_Accelerator\Debug/../firmware/hal/CortexM3/GNU/hw_reg_access.S:58
20001608:	b50e      	push	{r1, r2, r3, lr}
E:\Github_Repos\SF2_FFT_Accelerator\Softconsole\FFT_Accelerator\Debug/../firmware/hal/CortexM3/GNU/hw_reg_access.S:59
2000160a:	fa03 f301 	lsl.w	r3, r3, r1
E:\Github_Repos\SF2_FFT_Accelerator\Softconsole\FFT_Accelerator\Debug/../firmware/hal/CortexM3/GNU/hw_reg_access.S:60
2000160e:	ea03 0302 	and.w	r3, r3, r2
E:\Github_Repos\SF2_FFT_Accelerator\Softconsole\FFT_Accelerator\Debug/../firmware/hal/CortexM3/GNU/hw_reg_access.S:61
20001612:	6801      	ldr	r1, [r0, #0]
E:\Github_Repos\SF2_FFT_Accelerator\Softconsole\FFT_Accelerator\Debug/../firmware/hal/CortexM3/GNU/hw_reg_access.S:62
20001614:	ea6f 0202 	mvn.w	r2, r2
E:\Github_Repos\SF2_FFT_Accelerator\Softconsole\FFT_Accelerator\Debug/../firmware/hal/CortexM3/GNU/hw_reg_access.S:63
20001618:	ea01 0102 	and.w	r1, r1, r2
E:\Github_Repos\SF2_FFT_Accelerator\Softconsole\FFT_Accelerator\Debug/../firmware/hal/CortexM3/GNU/hw_reg_access.S:64
2000161c:	ea41 0103 	orr.w	r1, r1, r3
E:\Github_Repos\SF2_FFT_Accelerator\Softconsole\FFT_Accelerator\Debug/../firmware/hal/CortexM3/GNU/hw_reg_access.S:65
20001620:	6001      	str	r1, [r0, #0]
E:\Github_Repos\SF2_FFT_Accelerator\Softconsole\FFT_Accelerator\Debug/../firmware/hal/CortexM3/GNU/hw_reg_access.S:66
20001622:	bd0e      	pop	{r1, r2, r3, pc}

20001624 <HW_get_32bit_reg_field>:
HW_get_32bit_reg_field():
E:\Github_Repos\SF2_FFT_Accelerator\Softconsole\FFT_Accelerator\Debug/../firmware/hal/CortexM3/GNU/hw_reg_access.S:74
20001624:	6800      	ldr	r0, [r0, #0]
E:\Github_Repos\SF2_FFT_Accelerator\Softconsole\FFT_Accelerator\Debug/../firmware/hal/CortexM3/GNU/hw_reg_access.S:75
20001626:	ea00 0002 	and.w	r0, r0, r2
E:\Github_Repos\SF2_FFT_Accelerator\Softconsole\FFT_Accelerator\Debug/../firmware/hal/CortexM3/GNU/hw_reg_access.S:76
2000162a:	fa20 f001 	lsr.w	r0, r0, r1
E:\Github_Repos\SF2_FFT_Accelerator\Softconsole\FFT_Accelerator\Debug/../firmware/hal/CortexM3/GNU/hw_reg_access.S:77
2000162e:	4770      	bx	lr

20001630 <HW_set_16bit_reg>:
HW_set_16bit_reg():
E:\Github_Repos\SF2_FFT_Accelerator\Softconsole\FFT_Accelerator\Debug/../firmware/hal/CortexM3/GNU/hw_reg_access.S:84
20001630:	8001      	strh	r1, [r0, #0]
E:\Github_Repos\SF2_FFT_Accelerator\Softconsole\FFT_Accelerator\Debug/../firmware/hal/CortexM3/GNU/hw_reg_access.S:85
20001632:	4770      	bx	lr

20001634 <HW_get_16bit_reg>:
HW_get_16bit_reg():
E:\Github_Repos\SF2_FFT_Accelerator\Softconsole\FFT_Accelerator\Debug/../firmware/hal/CortexM3/GNU/hw_reg_access.S:91
20001634:	8800      	ldrh	r0, [r0, #0]
E:\Github_Repos\SF2_FFT_Accelerator\Softconsole\FFT_Accelerator\Debug/../firmware/hal/CortexM3/GNU/hw_reg_access.S:92
20001636:	4770      	bx	lr

20001638 <HW_set_16bit_reg_field>:
HW_set_16bit_reg_field():
E:\Github_Repos\SF2_FFT_Accelerator\Softconsole\FFT_Accelerator\Debug/../firmware/hal/CortexM3/GNU/hw_reg_access.S:101
20001638:	b50e      	push	{r1, r2, r3, lr}
E:\Github_Repos\SF2_FFT_Accelerator\Softconsole\FFT_Accelerator\Debug/../firmware/hal/CortexM3/GNU/hw_reg_access.S:102
2000163a:	fa03 f301 	lsl.w	r3, r3, r1
E:\Github_Repos\SF2_FFT_Accelerator\Softconsole\FFT_Accelerator\Debug/../firmware/hal/CortexM3/GNU/hw_reg_access.S:103
2000163e:	ea03 0302 	and.w	r3, r3, r2
E:\Github_Repos\SF2_FFT_Accelerator\Softconsole\FFT_Accelerator\Debug/../firmware/hal/CortexM3/GNU/hw_reg_access.S:104
20001642:	8801      	ldrh	r1, [r0, #0]
E:\Github_Repos\SF2_FFT_Accelerator\Softconsole\FFT_Accelerator\Debug/../firmware/hal/CortexM3/GNU/hw_reg_access.S:105
20001644:	ea6f 0202 	mvn.w	r2, r2
E:\Github_Repos\SF2_FFT_Accelerator\Softconsole\FFT_Accelerator\Debug/../firmware/hal/CortexM3/GNU/hw_reg_access.S:106
20001648:	ea01 0102 	and.w	r1, r1, r2
E:\Github_Repos\SF2_FFT_Accelerator\Softconsole\FFT_Accelerator\Debug/../firmware/hal/CortexM3/GNU/hw_reg_access.S:107
2000164c:	ea41 0103 	orr.w	r1, r1, r3
E:\Github_Repos\SF2_FFT_Accelerator\Softconsole\FFT_Accelerator\Debug/../firmware/hal/CortexM3/GNU/hw_reg_access.S:108
20001650:	8001      	strh	r1, [r0, #0]
E:\Github_Repos\SF2_FFT_Accelerator\Softconsole\FFT_Accelerator\Debug/../firmware/hal/CortexM3/GNU/hw_reg_access.S:109
20001652:	bd0e      	pop	{r1, r2, r3, pc}

20001654 <HW_get_16bit_reg_field>:
HW_get_16bit_reg_field():
E:\Github_Repos\SF2_FFT_Accelerator\Softconsole\FFT_Accelerator\Debug/../firmware/hal/CortexM3/GNU/hw_reg_access.S:117
20001654:	8800      	ldrh	r0, [r0, #0]
E:\Github_Repos\SF2_FFT_Accelerator\Softconsole\FFT_Accelerator\Debug/../firmware/hal/CortexM3/GNU/hw_reg_access.S:118
20001656:	ea00 0002 	and.w	r0, r0, r2
E:\Github_Repos\SF2_FFT_Accelerator\Softconsole\FFT_Accelerator\Debug/../firmware/hal/CortexM3/GNU/hw_reg_access.S:119
2000165a:	fa20 f001 	lsr.w	r0, r0, r1
E:\Github_Repos\SF2_FFT_Accelerator\Softconsole\FFT_Accelerator\Debug/../firmware/hal/CortexM3/GNU/hw_reg_access.S:120
2000165e:	4770      	bx	lr

20001660 <HW_set_8bit_reg>:
HW_set_8bit_reg():
E:\Github_Repos\SF2_FFT_Accelerator\Softconsole\FFT_Accelerator\Debug/../firmware/hal/CortexM3/GNU/hw_reg_access.S:127
20001660:	7001      	strb	r1, [r0, #0]
E:\Github_Repos\SF2_FFT_Accelerator\Softconsole\FFT_Accelerator\Debug/../firmware/hal/CortexM3/GNU/hw_reg_access.S:128
20001662:	4770      	bx	lr

20001664 <HW_get_8bit_reg>:
HW_get_8bit_reg():
E:\Github_Repos\SF2_FFT_Accelerator\Softconsole\FFT_Accelerator\Debug/../firmware/hal/CortexM3/GNU/hw_reg_access.S:134
20001664:	7800      	ldrb	r0, [r0, #0]
E:\Github_Repos\SF2_FFT_Accelerator\Softconsole\FFT_Accelerator\Debug/../firmware/hal/CortexM3/GNU/hw_reg_access.S:135
20001666:	4770      	bx	lr

20001668 <HW_set_8bit_reg_field>:
HW_set_8bit_reg_field():
E:\Github_Repos\SF2_FFT_Accelerator\Softconsole\FFT_Accelerator\Debug/../firmware/hal/CortexM3/GNU/hw_reg_access.S:144
20001668:	b50e      	push	{r1, r2, r3, lr}
E:\Github_Repos\SF2_FFT_Accelerator\Softconsole\FFT_Accelerator\Debug/../firmware/hal/CortexM3/GNU/hw_reg_access.S:145
2000166a:	fa03 f301 	lsl.w	r3, r3, r1
E:\Github_Repos\SF2_FFT_Accelerator\Softconsole\FFT_Accelerator\Debug/../firmware/hal/CortexM3/GNU/hw_reg_access.S:146
2000166e:	ea03 0302 	and.w	r3, r3, r2
E:\Github_Repos\SF2_FFT_Accelerator\Softconsole\FFT_Accelerator\Debug/../firmware/hal/CortexM3/GNU/hw_reg_access.S:147
20001672:	7801      	ldrb	r1, [r0, #0]
E:\Github_Repos\SF2_FFT_Accelerator\Softconsole\FFT_Accelerator\Debug/../firmware/hal/CortexM3/GNU/hw_reg_access.S:148
20001674:	ea6f 0202 	mvn.w	r2, r2
E:\Github_Repos\SF2_FFT_Accelerator\Softconsole\FFT_Accelerator\Debug/../firmware/hal/CortexM3/GNU/hw_reg_access.S:149
20001678:	ea01 0102 	and.w	r1, r1, r2
E:\Github_Repos\SF2_FFT_Accelerator\Softconsole\FFT_Accelerator\Debug/../firmware/hal/CortexM3/GNU/hw_reg_access.S:150
2000167c:	ea41 0103 	orr.w	r1, r1, r3
E:\Github_Repos\SF2_FFT_Accelerator\Softconsole\FFT_Accelerator\Debug/../firmware/hal/CortexM3/GNU/hw_reg_access.S:151
20001680:	7001      	strb	r1, [r0, #0]
E:\Github_Repos\SF2_FFT_Accelerator\Softconsole\FFT_Accelerator\Debug/../firmware/hal/CortexM3/GNU/hw_reg_access.S:152
20001682:	bd0e      	pop	{r1, r2, r3, pc}

20001684 <HW_get_8bit_reg_field>:
HW_get_8bit_reg_field():
E:\Github_Repos\SF2_FFT_Accelerator\Softconsole\FFT_Accelerator\Debug/../firmware/hal/CortexM3/GNU/hw_reg_access.S:160
20001684:	7800      	ldrb	r0, [r0, #0]
E:\Github_Repos\SF2_FFT_Accelerator\Softconsole\FFT_Accelerator\Debug/../firmware/hal/CortexM3/GNU/hw_reg_access.S:161
20001686:	ea00 0002 	and.w	r0, r0, r2
E:\Github_Repos\SF2_FFT_Accelerator\Softconsole\FFT_Accelerator\Debug/../firmware/hal/CortexM3/GNU/hw_reg_access.S:162
2000168a:	fa20 f001 	lsr.w	r0, r0, r1
E:\Github_Repos\SF2_FFT_Accelerator\Softconsole\FFT_Accelerator\Debug/../firmware/hal/CortexM3/GNU/hw_reg_access.S:163
2000168e:	4770      	bx	lr

20001690 <NVIC_EnableIRQ>:
NVIC_EnableIRQ():
c:\microsemi\softconsole_v6.2\cmsis\v4.5\include/core_cm3.h:1453
{
20001690:	b480      	push	{r7}
20001692:	b083      	sub	sp, #12
20001694:	af00      	add	r7, sp, #0
20001696:	4603      	mov	r3, r0
20001698:	71fb      	strb	r3, [r7, #7]
c:\microsemi\softconsole_v6.2\cmsis\v4.5\include/core_cm3.h:1454
  NVIC->ISER[(((uint32_t)(int32_t)IRQn) >> 5UL)] = (uint32_t)(1UL << (((uint32_t)(int32_t)IRQn) & 0x1FUL));
2000169a:	79fb      	ldrb	r3, [r7, #7]
2000169c:	f003 021f 	and.w	r2, r3, #31
200016a0:	4906      	ldr	r1, [pc, #24]	; (200016bc <NVIC_EnableIRQ+0x2c>)
200016a2:	f997 3007 	ldrsb.w	r3, [r7, #7]
200016a6:	095b      	lsrs	r3, r3, #5
200016a8:	2001      	movs	r0, #1
200016aa:	fa00 f202 	lsl.w	r2, r0, r2
200016ae:	f841 2023 	str.w	r2, [r1, r3, lsl #2]
c:\microsemi\softconsole_v6.2\cmsis\v4.5\include/core_cm3.h:1455
}
200016b2:	bf00      	nop
200016b4:	370c      	adds	r7, #12
200016b6:	46bd      	mov	sp, r7
200016b8:	bc80      	pop	{r7}
200016ba:	4770      	bx	lr
200016bc:	e000e100 	.word	0xe000e100

200016c0 <NVIC_ClearPendingIRQ>:
NVIC_ClearPendingIRQ():
c:\microsemi\softconsole_v6.2\cmsis\v4.5\include/core_cm3.h:1499
{
200016c0:	b480      	push	{r7}
200016c2:	b083      	sub	sp, #12
200016c4:	af00      	add	r7, sp, #0
200016c6:	4603      	mov	r3, r0
200016c8:	71fb      	strb	r3, [r7, #7]
c:\microsemi\softconsole_v6.2\cmsis\v4.5\include/core_cm3.h:1500
  NVIC->ICPR[(((uint32_t)(int32_t)IRQn) >> 5UL)] = (uint32_t)(1UL << (((uint32_t)(int32_t)IRQn) & 0x1FUL));
200016ca:	79fb      	ldrb	r3, [r7, #7]
200016cc:	f003 021f 	and.w	r2, r3, #31
200016d0:	4907      	ldr	r1, [pc, #28]	; (200016f0 <NVIC_ClearPendingIRQ+0x30>)
200016d2:	f997 3007 	ldrsb.w	r3, [r7, #7]
200016d6:	095b      	lsrs	r3, r3, #5
200016d8:	2001      	movs	r0, #1
200016da:	fa00 f202 	lsl.w	r2, r0, r2
200016de:	3360      	adds	r3, #96	; 0x60
200016e0:	f841 2023 	str.w	r2, [r1, r3, lsl #2]
c:\microsemi\softconsole_v6.2\cmsis\v4.5\include/core_cm3.h:1501
}
200016e4:	bf00      	nop
200016e6:	370c      	adds	r7, #12
200016e8:	46bd      	mov	sp, r7
200016ea:	bc80      	pop	{r7}
200016ec:	4770      	bx	lr
200016ee:	bf00      	nop
200016f0:	e000e100 	.word	0xe000e100

200016f4 <set_bit_reg8>:
set_bit_reg8():
E:\Github_Repos\SF2_Eth_FFT\Softconsole\FFT_Accelerator\Debug/../firmware/drivers/mss_uart/../../CMSIS/hw_reg_io.h:79
static __INLINE void set_bit_reg16(volatile uint16_t * reg, uint8_t bit)
{
    HW_REG_BIT(reg,bit) = 0x1;
}
static __INLINE void set_bit_reg8(volatile uint8_t * reg, uint8_t bit)
{
200016f4:	b480      	push	{r7}
200016f6:	b083      	sub	sp, #12
200016f8:	af00      	add	r7, sp, #0
200016fa:	6078      	str	r0, [r7, #4]
200016fc:	460b      	mov	r3, r1
200016fe:	70fb      	strb	r3, [r7, #3]
E:\Github_Repos\SF2_Eth_FFT\Softconsole\FFT_Accelerator\Debug/../firmware/drivers/mss_uart/../../CMSIS/hw_reg_io.h:80
    HW_REG_BIT(reg,bit) = 0x1;
20001700:	687b      	ldr	r3, [r7, #4]
20001702:	f003 4270 	and.w	r2, r3, #4026531840	; 0xf0000000
20001706:	687b      	ldr	r3, [r7, #4]
20001708:	015b      	lsls	r3, r3, #5
2000170a:	f023 437e 	bic.w	r3, r3, #4261412864	; 0xfe000000
2000170e:	f023 031f 	bic.w	r3, r3, #31
20001712:	4313      	orrs	r3, r2
20001714:	78fa      	ldrb	r2, [r7, #3]
20001716:	0092      	lsls	r2, r2, #2
20001718:	4413      	add	r3, r2
2000171a:	f103 7300 	add.w	r3, r3, #33554432	; 0x2000000
2000171e:	461a      	mov	r2, r3
20001720:	2301      	movs	r3, #1
20001722:	6013      	str	r3, [r2, #0]
E:\Github_Repos\SF2_Eth_FFT\Softconsole\FFT_Accelerator\Debug/../firmware/drivers/mss_uart/../../CMSIS/hw_reg_io.h:81
}
20001724:	bf00      	nop
20001726:	370c      	adds	r7, #12
20001728:	46bd      	mov	sp, r7
2000172a:	bc80      	pop	{r7}
2000172c:	4770      	bx	lr

2000172e <clear_bit_reg8>:
clear_bit_reg8():
E:\Github_Repos\SF2_Eth_FFT\Softconsole\FFT_Accelerator\Debug/../firmware/drivers/mss_uart/../../CMSIS/hw_reg_io.h:94
static __INLINE void clear_bit_reg16(volatile uint16_t * reg, uint8_t bit)
{
    HW_REG_BIT(reg,bit) = 0x0;
}
static __INLINE void clear_bit_reg8(volatile uint8_t * reg, uint8_t bit)
{
2000172e:	b480      	push	{r7}
20001730:	b083      	sub	sp, #12
20001732:	af00      	add	r7, sp, #0
20001734:	6078      	str	r0, [r7, #4]
20001736:	460b      	mov	r3, r1
20001738:	70fb      	strb	r3, [r7, #3]
E:\Github_Repos\SF2_Eth_FFT\Softconsole\FFT_Accelerator\Debug/../firmware/drivers/mss_uart/../../CMSIS/hw_reg_io.h:95
    HW_REG_BIT(reg,bit) = 0x0;
2000173a:	687b      	ldr	r3, [r7, #4]
2000173c:	f003 4270 	and.w	r2, r3, #4026531840	; 0xf0000000
20001740:	687b      	ldr	r3, [r7, #4]
20001742:	015b      	lsls	r3, r3, #5
20001744:	f023 437e 	bic.w	r3, r3, #4261412864	; 0xfe000000
20001748:	f023 031f 	bic.w	r3, r3, #31
2000174c:	4313      	orrs	r3, r2
2000174e:	78fa      	ldrb	r2, [r7, #3]
20001750:	0092      	lsls	r2, r2, #2
20001752:	4413      	add	r3, r2
20001754:	f103 7300 	add.w	r3, r3, #33554432	; 0x2000000
20001758:	461a      	mov	r2, r3
2000175a:	2300      	movs	r3, #0
2000175c:	6013      	str	r3, [r2, #0]
E:\Github_Repos\SF2_Eth_FFT\Softconsole\FFT_Accelerator\Debug/../firmware/drivers/mss_uart/../../CMSIS/hw_reg_io.h:96
}
2000175e:	bf00      	nop
20001760:	370c      	adds	r7, #12
20001762:	46bd      	mov	sp, r7
20001764:	bc80      	pop	{r7}
20001766:	4770      	bx	lr

20001768 <read_bit_reg8>:
read_bit_reg8():
E:\Github_Repos\SF2_Eth_FFT\Softconsole\FFT_Accelerator\Debug/../firmware/drivers/mss_uart/../../CMSIS/hw_reg_io.h:109
static __INLINE uint8_t read_bit_reg16(volatile uint16_t * reg, uint8_t bit)
{
    return (HW_REG_BIT(reg,bit));
}
static __INLINE uint8_t read_bit_reg8(volatile uint8_t * reg, uint8_t bit)
{
20001768:	b480      	push	{r7}
2000176a:	b083      	sub	sp, #12
2000176c:	af00      	add	r7, sp, #0
2000176e:	6078      	str	r0, [r7, #4]
20001770:	460b      	mov	r3, r1
20001772:	70fb      	strb	r3, [r7, #3]
E:\Github_Repos\SF2_Eth_FFT\Softconsole\FFT_Accelerator\Debug/../firmware/drivers/mss_uart/../../CMSIS/hw_reg_io.h:110
    return (HW_REG_BIT(reg,bit));
20001774:	687b      	ldr	r3, [r7, #4]
20001776:	f003 4270 	and.w	r2, r3, #4026531840	; 0xf0000000
2000177a:	687b      	ldr	r3, [r7, #4]
2000177c:	015b      	lsls	r3, r3, #5
2000177e:	f023 437e 	bic.w	r3, r3, #4261412864	; 0xfe000000
20001782:	f023 031f 	bic.w	r3, r3, #31
20001786:	4313      	orrs	r3, r2
20001788:	78fa      	ldrb	r2, [r7, #3]
2000178a:	0092      	lsls	r2, r2, #2
2000178c:	4413      	add	r3, r2
2000178e:	f103 7300 	add.w	r3, r3, #33554432	; 0x2000000
20001792:	681b      	ldr	r3, [r3, #0]
20001794:	b2db      	uxtb	r3, r3
E:\Github_Repos\SF2_Eth_FFT\Softconsole\FFT_Accelerator\Debug/../firmware/drivers/mss_uart/../../CMSIS/hw_reg_io.h:111
}
20001796:	4618      	mov	r0, r3
20001798:	370c      	adds	r7, #12
2000179a:	46bd      	mov	sp, r7
2000179c:	bc80      	pop	{r7}
2000179e:	4770      	bx	lr

200017a0 <MSS_UART_init>:
MSS_UART_init():
E:\Github_Repos\SF2_Eth_FFT\Softconsole\FFT_Accelerator\Debug/../firmware/drivers/mss_uart/mss_uart.c:105
(
    mss_uart_instance_t* this_uart, 
    uint32_t baud_rate,
    uint8_t line_config
)
{
200017a0:	b580      	push	{r7, lr}
200017a2:	b084      	sub	sp, #16
200017a4:	af00      	add	r7, sp, #0
200017a6:	60f8      	str	r0, [r7, #12]
200017a8:	60b9      	str	r1, [r7, #8]
200017aa:	4613      	mov	r3, r2
200017ac:	71fb      	strb	r3, [r7, #7]
E:\Github_Repos\SF2_Eth_FFT\Softconsole\FFT_Accelerator\Debug/../firmware/drivers/mss_uart/mss_uart.c:108
    /* The driver expects g_mss_uart0 and g_mss_uart1 to be the only
     * mss_uart_instance_t instances used to identify UART0 and UART1. */
    ASSERT((this_uart == &g_mss_uart0) || (this_uart == &g_mss_uart1));
200017ae:	68fb      	ldr	r3, [r7, #12]
200017b0:	4a14      	ldr	r2, [pc, #80]	; (20001804 <MSS_UART_init+0x64>)
200017b2:	4293      	cmp	r3, r2
200017b4:	d004      	beq.n	200017c0 <MSS_UART_init+0x20>
E:\Github_Repos\SF2_Eth_FFT\Softconsole\FFT_Accelerator\Debug/../firmware/drivers/mss_uart/mss_uart.c:108 (discriminator 1)
200017b6:	68fb      	ldr	r3, [r7, #12]
200017b8:	4a13      	ldr	r2, [pc, #76]	; (20001808 <MSS_UART_init+0x68>)
200017ba:	4293      	cmp	r3, r2
200017bc:	d000      	beq.n	200017c0 <MSS_UART_init+0x20>
E:\Github_Repos\SF2_Eth_FFT\Softconsole\FFT_Accelerator\Debug/../firmware/drivers/mss_uart/mss_uart.c:108 (discriminator 2)
200017be:	be00      	bkpt	0x0000
E:\Github_Repos\SF2_Eth_FFT\Softconsole\FFT_Accelerator\Debug/../firmware/drivers/mss_uart/mss_uart.c:111

    /* Perform generic initialization */
    global_init(this_uart, baud_rate, line_config);
200017c0:	79fb      	ldrb	r3, [r7, #7]
200017c2:	461a      	mov	r2, r3
200017c4:	68b9      	ldr	r1, [r7, #8]
200017c6:	68f8      	ldr	r0, [r7, #12]
200017c8:	f000 fa4a 	bl	20001c60 <global_init>
E:\Github_Repos\SF2_Eth_FFT\Softconsole\FFT_Accelerator\Debug/../firmware/drivers/mss_uart/mss_uart.c:114

    /* Disable LIN mode */
    clear_bit_reg8(&this_uart->hw_reg->MM0, ELIN);
200017cc:	68fb      	ldr	r3, [r7, #12]
200017ce:	681b      	ldr	r3, [r3, #0]
200017d0:	3330      	adds	r3, #48	; 0x30
200017d2:	2103      	movs	r1, #3
200017d4:	4618      	mov	r0, r3
200017d6:	f7ff ffaa 	bl	2000172e <clear_bit_reg8>
E:\Github_Repos\SF2_Eth_FFT\Softconsole\FFT_Accelerator\Debug/../firmware/drivers/mss_uart/mss_uart.c:117

    /* Disable IrDA mode */
    clear_bit_reg8(&this_uart->hw_reg->MM1, EIRD);
200017da:	68fb      	ldr	r3, [r7, #12]
200017dc:	681b      	ldr	r3, [r3, #0]
200017de:	3334      	adds	r3, #52	; 0x34
200017e0:	2102      	movs	r1, #2
200017e2:	4618      	mov	r0, r3
200017e4:	f7ff ffa3 	bl	2000172e <clear_bit_reg8>
E:\Github_Repos\SF2_Eth_FFT\Softconsole\FFT_Accelerator\Debug/../firmware/drivers/mss_uart/mss_uart.c:120

    /* Disable SmartCard Mode */
    clear_bit_reg8(&this_uart->hw_reg->MM2, EERR);
200017e8:	68fb      	ldr	r3, [r7, #12]
200017ea:	681b      	ldr	r3, [r3, #0]
200017ec:	3338      	adds	r3, #56	; 0x38
200017ee:	2100      	movs	r1, #0
200017f0:	4618      	mov	r0, r3
200017f2:	f7ff ff9c 	bl	2000172e <clear_bit_reg8>
E:\Github_Repos\SF2_Eth_FFT\Softconsole\FFT_Accelerator\Debug/../firmware/drivers/mss_uart/mss_uart.c:123

    /* set default tx handler for automated TX using interrupt in USART mode */
    this_uart->tx_handler = default_tx_handler;
200017f6:	68fb      	ldr	r3, [r7, #12]
200017f8:	4a04      	ldr	r2, [pc, #16]	; (2000180c <MSS_UART_init+0x6c>)
200017fa:	625a      	str	r2, [r3, #36]	; 0x24
E:\Github_Repos\SF2_Eth_FFT\Softconsole\FFT_Accelerator\Debug/../firmware/drivers/mss_uart/mss_uart.c:124
}
200017fc:	bf00      	nop
200017fe:	3710      	adds	r7, #16
20001800:	46bd      	mov	sp, r7
20001802:	bd80      	pop	{r7, pc}
20001804:	200081a0 	.word	0x200081a0
20001808:	20008160 	.word	0x20008160
2000180c:	20002041 	.word	0x20002041

20001810 <MSS_UART_polled_tx_string>:
MSS_UART_polled_tx_string():
E:\Github_Repos\SF2_Eth_FFT\Softconsole\FFT_Accelerator\Debug/../firmware/drivers/mss_uart/mss_uart.c:290
MSS_UART_polled_tx_string
(
    mss_uart_instance_t * this_uart,
    const uint8_t * p_sz_string
)
{
20001810:	b480      	push	{r7}
20001812:	b087      	sub	sp, #28
20001814:	af00      	add	r7, sp, #0
20001816:	6078      	str	r0, [r7, #4]
20001818:	6039      	str	r1, [r7, #0]
E:\Github_Repos\SF2_Eth_FFT\Softconsole\FFT_Accelerator\Debug/../firmware/drivers/mss_uart/mss_uart.c:291
    uint32_t char_idx = 0u;
2000181a:	2300      	movs	r3, #0
2000181c:	617b      	str	r3, [r7, #20]
E:\Github_Repos\SF2_Eth_FFT\Softconsole\FFT_Accelerator\Debug/../firmware/drivers/mss_uart/mss_uart.c:296
    uint32_t fill_size;
    uint8_t data_byte;
    uint8_t status;

    ASSERT((this_uart == &g_mss_uart0) || (this_uart == &g_mss_uart1));
2000181e:	687b      	ldr	r3, [r7, #4]
20001820:	4a26      	ldr	r2, [pc, #152]	; (200018bc <MSS_UART_polled_tx_string+0xac>)
20001822:	4293      	cmp	r3, r2
20001824:	d004      	beq.n	20001830 <MSS_UART_polled_tx_string+0x20>
E:\Github_Repos\SF2_Eth_FFT\Softconsole\FFT_Accelerator\Debug/../firmware/drivers/mss_uart/mss_uart.c:296 (discriminator 1)
20001826:	687b      	ldr	r3, [r7, #4]
20001828:	4a25      	ldr	r2, [pc, #148]	; (200018c0 <MSS_UART_polled_tx_string+0xb0>)
2000182a:	4293      	cmp	r3, r2
2000182c:	d000      	beq.n	20001830 <MSS_UART_polled_tx_string+0x20>
E:\Github_Repos\SF2_Eth_FFT\Softconsole\FFT_Accelerator\Debug/../firmware/drivers/mss_uart/mss_uart.c:296 (discriminator 2)
2000182e:	be00      	bkpt	0x0000
E:\Github_Repos\SF2_Eth_FFT\Softconsole\FFT_Accelerator\Debug/../firmware/drivers/mss_uart/mss_uart.c:297
    ASSERT(p_sz_string != ((uint8_t *)0));
20001830:	683b      	ldr	r3, [r7, #0]
20001832:	2b00      	cmp	r3, #0
20001834:	d100      	bne.n	20001838 <MSS_UART_polled_tx_string+0x28>
E:\Github_Repos\SF2_Eth_FFT\Softconsole\FFT_Accelerator\Debug/../firmware/drivers/mss_uart/mss_uart.c:297 (discriminator 1)
20001836:	be00      	bkpt	0x0000
E:\Github_Repos\SF2_Eth_FFT\Softconsole\FFT_Accelerator\Debug/../firmware/drivers/mss_uart/mss_uart.c:299

    if(((this_uart == &g_mss_uart0) || (this_uart == &g_mss_uart1)) &&
20001838:	687b      	ldr	r3, [r7, #4]
2000183a:	4a20      	ldr	r2, [pc, #128]	; (200018bc <MSS_UART_polled_tx_string+0xac>)
2000183c:	4293      	cmp	r3, r2
2000183e:	d003      	beq.n	20001848 <MSS_UART_polled_tx_string+0x38>
E:\Github_Repos\SF2_Eth_FFT\Softconsole\FFT_Accelerator\Debug/../firmware/drivers/mss_uart/mss_uart.c:299 (discriminator 2)
20001840:	687b      	ldr	r3, [r7, #4]
20001842:	4a1f      	ldr	r2, [pc, #124]	; (200018c0 <MSS_UART_polled_tx_string+0xb0>)
20001844:	4293      	cmp	r3, r2
20001846:	d133      	bne.n	200018b0 <MSS_UART_polled_tx_string+0xa0>
E:\Github_Repos\SF2_Eth_FFT\Softconsole\FFT_Accelerator\Debug/../firmware/drivers/mss_uart/mss_uart.c:299 (discriminator 3)
20001848:	683b      	ldr	r3, [r7, #0]
2000184a:	2b00      	cmp	r3, #0
2000184c:	d030      	beq.n	200018b0 <MSS_UART_polled_tx_string+0xa0>
E:\Github_Repos\SF2_Eth_FFT\Softconsole\FFT_Accelerator\Debug/../firmware/drivers/mss_uart/mss_uart.c:303
       (p_sz_string != ((uint8_t *)0)))
    {
        /* Get the first data byte from the input buffer */
        data_byte = p_sz_string[char_idx];
2000184e:	683a      	ldr	r2, [r7, #0]
20001850:	697b      	ldr	r3, [r7, #20]
20001852:	4413      	add	r3, r2
20001854:	781b      	ldrb	r3, [r3, #0]
20001856:	73fb      	strb	r3, [r7, #15]
E:\Github_Repos\SF2_Eth_FFT\Softconsole\FFT_Accelerator\Debug/../firmware/drivers/mss_uart/mss_uart.c:309

        /* First check for the NULL terminator byte.
         * Then remain in this loop until the entire string in the input buffer
         * has been transferred to the UART.
         */
        while(0u != data_byte)
20001858:	e027      	b.n	200018aa <MSS_UART_polled_tx_string+0x9a>
E:\Github_Repos\SF2_Eth_FFT\Softconsole\FFT_Accelerator\Debug/../firmware/drivers/mss_uart/mss_uart.c:313 (discriminator 1)
        {
            /* Wait until TX FIFO is empty. */
            do {
                status = this_uart->hw_reg->LSR;
2000185a:	687b      	ldr	r3, [r7, #4]
2000185c:	681b      	ldr	r3, [r3, #0]
2000185e:	7d1b      	ldrb	r3, [r3, #20]
20001860:	73bb      	strb	r3, [r7, #14]
E:\Github_Repos\SF2_Eth_FFT\Softconsole\FFT_Accelerator\Debug/../firmware/drivers/mss_uart/mss_uart.c:314 (discriminator 1)
                this_uart->status |= status;
20001862:	687b      	ldr	r3, [r7, #4]
20001864:	7b5a      	ldrb	r2, [r3, #13]
20001866:	7bbb      	ldrb	r3, [r7, #14]
20001868:	4313      	orrs	r3, r2
2000186a:	b2da      	uxtb	r2, r3
2000186c:	687b      	ldr	r3, [r7, #4]
2000186e:	735a      	strb	r2, [r3, #13]
E:\Github_Repos\SF2_Eth_FFT\Softconsole\FFT_Accelerator\Debug/../firmware/drivers/mss_uart/mss_uart.c:315 (discriminator 1)
            } while (0u == (status & MSS_UART_THRE));
20001870:	7bbb      	ldrb	r3, [r7, #14]
20001872:	f003 0320 	and.w	r3, r3, #32
20001876:	2b00      	cmp	r3, #0
20001878:	d0ef      	beq.n	2000185a <MSS_UART_polled_tx_string+0x4a>
E:\Github_Repos\SF2_Eth_FFT\Softconsole\FFT_Accelerator\Debug/../firmware/drivers/mss_uart/mss_uart.c:320

            /* Send bytes from the input buffer until the TX FIFO is full
             * or we reach the NULL terminator byte.
             */
            fill_size = 0u;
2000187a:	2300      	movs	r3, #0
2000187c:	613b      	str	r3, [r7, #16]
E:\Github_Repos\SF2_Eth_FFT\Softconsole\FFT_Accelerator\Debug/../firmware/drivers/mss_uart/mss_uart.c:321
            while((0u != data_byte) && (fill_size < TX_FIFO_SIZE))
2000187e:	e00e      	b.n	2000189e <MSS_UART_polled_tx_string+0x8e>
E:\Github_Repos\SF2_Eth_FFT\Softconsole\FFT_Accelerator\Debug/../firmware/drivers/mss_uart/mss_uart.c:324
            {
                /* Send the data byte */
                this_uart->hw_reg->THR = data_byte;
20001880:	687b      	ldr	r3, [r7, #4]
20001882:	681b      	ldr	r3, [r3, #0]
20001884:	7bfa      	ldrb	r2, [r7, #15]
20001886:	701a      	strb	r2, [r3, #0]
E:\Github_Repos\SF2_Eth_FFT\Softconsole\FFT_Accelerator\Debug/../firmware/drivers/mss_uart/mss_uart.c:325
                ++fill_size;
20001888:	693b      	ldr	r3, [r7, #16]
2000188a:	3301      	adds	r3, #1
2000188c:	613b      	str	r3, [r7, #16]
E:\Github_Repos\SF2_Eth_FFT\Softconsole\FFT_Accelerator\Debug/../firmware/drivers/mss_uart/mss_uart.c:326
                char_idx++;
2000188e:	697b      	ldr	r3, [r7, #20]
20001890:	3301      	adds	r3, #1
20001892:	617b      	str	r3, [r7, #20]
E:\Github_Repos\SF2_Eth_FFT\Softconsole\FFT_Accelerator\Debug/../firmware/drivers/mss_uart/mss_uart.c:328
                /* Get the next data byte from the input buffer */
                data_byte = p_sz_string[char_idx];
20001894:	683a      	ldr	r2, [r7, #0]
20001896:	697b      	ldr	r3, [r7, #20]
20001898:	4413      	add	r3, r2
2000189a:	781b      	ldrb	r3, [r3, #0]
2000189c:	73fb      	strb	r3, [r7, #15]
E:\Github_Repos\SF2_Eth_FFT\Softconsole\FFT_Accelerator\Debug/../firmware/drivers/mss_uart/mss_uart.c:321
            while((0u != data_byte) && (fill_size < TX_FIFO_SIZE))
2000189e:	7bfb      	ldrb	r3, [r7, #15]
200018a0:	2b00      	cmp	r3, #0
200018a2:	d002      	beq.n	200018aa <MSS_UART_polled_tx_string+0x9a>
E:\Github_Repos\SF2_Eth_FFT\Softconsole\FFT_Accelerator\Debug/../firmware/drivers/mss_uart/mss_uart.c:321 (discriminator 1)
200018a4:	693b      	ldr	r3, [r7, #16]
200018a6:	2b0f      	cmp	r3, #15
200018a8:	d9ea      	bls.n	20001880 <MSS_UART_polled_tx_string+0x70>
E:\Github_Repos\SF2_Eth_FFT\Softconsole\FFT_Accelerator\Debug/../firmware/drivers/mss_uart/mss_uart.c:309
        while(0u != data_byte)
200018aa:	7bfb      	ldrb	r3, [r7, #15]
200018ac:	2b00      	cmp	r3, #0
200018ae:	d1d4      	bne.n	2000185a <MSS_UART_polled_tx_string+0x4a>
E:\Github_Repos\SF2_Eth_FFT\Softconsole\FFT_Accelerator\Debug/../firmware/drivers/mss_uart/mss_uart.c:332
            }
        }
    }
}
200018b0:	bf00      	nop
200018b2:	371c      	adds	r7, #28
200018b4:	46bd      	mov	sp, r7
200018b6:	bc80      	pop	{r7}
200018b8:	4770      	bx	lr
200018ba:	bf00      	nop
200018bc:	200081a0 	.word	0x200081a0
200018c0:	20008160 	.word	0x20008160

200018c4 <MSS_UART_get_rx>:
MSS_UART_get_rx():
E:\Github_Repos\SF2_Eth_FFT\Softconsole\FFT_Accelerator\Debug/../firmware/drivers/mss_uart/mss_uart.c:411
(
    mss_uart_instance_t * this_uart,
    uint8_t * rx_buff,
    size_t buff_size
)
{
200018c4:	b480      	push	{r7}
200018c6:	b087      	sub	sp, #28
200018c8:	af00      	add	r7, sp, #0
200018ca:	60f8      	str	r0, [r7, #12]
200018cc:	60b9      	str	r1, [r7, #8]
200018ce:	607a      	str	r2, [r7, #4]
E:\Github_Repos\SF2_Eth_FFT\Softconsole\FFT_Accelerator\Debug/../firmware/drivers/mss_uart/mss_uart.c:412
    size_t rx_size = 0u;
200018d0:	2300      	movs	r3, #0
200018d2:	617b      	str	r3, [r7, #20]
E:\Github_Repos\SF2_Eth_FFT\Softconsole\FFT_Accelerator\Debug/../firmware/drivers/mss_uart/mss_uart.c:413
    uint8_t status = 0u;
200018d4:	2300      	movs	r3, #0
200018d6:	74fb      	strb	r3, [r7, #19]
E:\Github_Repos\SF2_Eth_FFT\Softconsole\FFT_Accelerator\Debug/../firmware/drivers/mss_uart/mss_uart.c:415

    ASSERT((this_uart == &g_mss_uart0) || (this_uart == &g_mss_uart1));
200018d8:	68fb      	ldr	r3, [r7, #12]
200018da:	4a27      	ldr	r2, [pc, #156]	; (20001978 <MSS_UART_get_rx+0xb4>)
200018dc:	4293      	cmp	r3, r2
200018de:	d004      	beq.n	200018ea <MSS_UART_get_rx+0x26>
E:\Github_Repos\SF2_Eth_FFT\Softconsole\FFT_Accelerator\Debug/../firmware/drivers/mss_uart/mss_uart.c:415 (discriminator 1)
200018e0:	68fb      	ldr	r3, [r7, #12]
200018e2:	4a26      	ldr	r2, [pc, #152]	; (2000197c <MSS_UART_get_rx+0xb8>)
200018e4:	4293      	cmp	r3, r2
200018e6:	d000      	beq.n	200018ea <MSS_UART_get_rx+0x26>
E:\Github_Repos\SF2_Eth_FFT\Softconsole\FFT_Accelerator\Debug/../firmware/drivers/mss_uart/mss_uart.c:415 (discriminator 2)
200018e8:	be00      	bkpt	0x0000
E:\Github_Repos\SF2_Eth_FFT\Softconsole\FFT_Accelerator\Debug/../firmware/drivers/mss_uart/mss_uart.c:416
    ASSERT(rx_buff != ((uint8_t *)0));
200018ea:	68bb      	ldr	r3, [r7, #8]
200018ec:	2b00      	cmp	r3, #0
200018ee:	d100      	bne.n	200018f2 <MSS_UART_get_rx+0x2e>
E:\Github_Repos\SF2_Eth_FFT\Softconsole\FFT_Accelerator\Debug/../firmware/drivers/mss_uart/mss_uart.c:416 (discriminator 1)
200018f0:	be00      	bkpt	0x0000
E:\Github_Repos\SF2_Eth_FFT\Softconsole\FFT_Accelerator\Debug/../firmware/drivers/mss_uart/mss_uart.c:417
    ASSERT(buff_size > 0u);
200018f2:	687b      	ldr	r3, [r7, #4]
200018f4:	2b00      	cmp	r3, #0
200018f6:	d100      	bne.n	200018fa <MSS_UART_get_rx+0x36>
E:\Github_Repos\SF2_Eth_FFT\Softconsole\FFT_Accelerator\Debug/../firmware/drivers/mss_uart/mss_uart.c:417 (discriminator 1)
200018f8:	be00      	bkpt	0x0000
E:\Github_Repos\SF2_Eth_FFT\Softconsole\FFT_Accelerator\Debug/../firmware/drivers/mss_uart/mss_uart.c:419

    if(((this_uart == &g_mss_uart0) || (this_uart == &g_mss_uart1)) &&
200018fa:	68fb      	ldr	r3, [r7, #12]
200018fc:	4a1e      	ldr	r2, [pc, #120]	; (20001978 <MSS_UART_get_rx+0xb4>)
200018fe:	4293      	cmp	r3, r2
20001900:	d003      	beq.n	2000190a <MSS_UART_get_rx+0x46>
E:\Github_Repos\SF2_Eth_FFT\Softconsole\FFT_Accelerator\Debug/../firmware/drivers/mss_uart/mss_uart.c:419 (discriminator 2)
20001902:	68fb      	ldr	r3, [r7, #12]
20001904:	4a1d      	ldr	r2, [pc, #116]	; (2000197c <MSS_UART_get_rx+0xb8>)
20001906:	4293      	cmp	r3, r2
20001908:	d130      	bne.n	2000196c <MSS_UART_get_rx+0xa8>
E:\Github_Repos\SF2_Eth_FFT\Softconsole\FFT_Accelerator\Debug/../firmware/drivers/mss_uart/mss_uart.c:419 (discriminator 3)
2000190a:	68bb      	ldr	r3, [r7, #8]
2000190c:	2b00      	cmp	r3, #0
2000190e:	d02d      	beq.n	2000196c <MSS_UART_get_rx+0xa8>
E:\Github_Repos\SF2_Eth_FFT\Softconsole\FFT_Accelerator\Debug/../firmware/drivers/mss_uart/mss_uart.c:420
       (rx_buff != ((uint8_t *)0)) && (buff_size > 0u))
20001910:	687b      	ldr	r3, [r7, #4]
20001912:	2b00      	cmp	r3, #0
20001914:	d02a      	beq.n	2000196c <MSS_UART_get_rx+0xa8>
E:\Github_Repos\SF2_Eth_FFT\Softconsole\FFT_Accelerator\Debug/../firmware/drivers/mss_uart/mss_uart.c:422
    {
        status = this_uart->hw_reg->LSR;
20001916:	68fb      	ldr	r3, [r7, #12]
20001918:	681b      	ldr	r3, [r3, #0]
2000191a:	7d1b      	ldrb	r3, [r3, #20]
2000191c:	74fb      	strb	r3, [r7, #19]
E:\Github_Repos\SF2_Eth_FFT\Softconsole\FFT_Accelerator\Debug/../firmware/drivers/mss_uart/mss_uart.c:423
        this_uart->status |= status;
2000191e:	68fb      	ldr	r3, [r7, #12]
20001920:	7b5a      	ldrb	r2, [r3, #13]
20001922:	7cfb      	ldrb	r3, [r7, #19]
20001924:	4313      	orrs	r3, r2
20001926:	b2da      	uxtb	r2, r3
20001928:	68fb      	ldr	r3, [r7, #12]
2000192a:	735a      	strb	r2, [r3, #13]
E:\Github_Repos\SF2_Eth_FFT\Softconsole\FFT_Accelerator\Debug/../firmware/drivers/mss_uart/mss_uart.c:425

        while(((status & MSS_UART_DATA_READY) != 0u) &&
2000192c:	e015      	b.n	2000195a <MSS_UART_get_rx+0x96>
E:\Github_Repos\SF2_Eth_FFT\Softconsole\FFT_Accelerator\Debug/../firmware/drivers/mss_uart/mss_uart.c:428
              (rx_size < buff_size))
        {
            rx_buff[rx_size] = this_uart->hw_reg->RBR;
2000192e:	68fb      	ldr	r3, [r7, #12]
20001930:	681a      	ldr	r2, [r3, #0]
20001932:	68b9      	ldr	r1, [r7, #8]
20001934:	697b      	ldr	r3, [r7, #20]
20001936:	440b      	add	r3, r1
20001938:	7812      	ldrb	r2, [r2, #0]
2000193a:	b2d2      	uxtb	r2, r2
2000193c:	701a      	strb	r2, [r3, #0]
E:\Github_Repos\SF2_Eth_FFT\Softconsole\FFT_Accelerator\Debug/../firmware/drivers/mss_uart/mss_uart.c:429
            ++rx_size;
2000193e:	697b      	ldr	r3, [r7, #20]
20001940:	3301      	adds	r3, #1
20001942:	617b      	str	r3, [r7, #20]
E:\Github_Repos\SF2_Eth_FFT\Softconsole\FFT_Accelerator\Debug/../firmware/drivers/mss_uart/mss_uart.c:430
            status = this_uart->hw_reg->LSR;
20001944:	68fb      	ldr	r3, [r7, #12]
20001946:	681b      	ldr	r3, [r3, #0]
20001948:	7d1b      	ldrb	r3, [r3, #20]
2000194a:	74fb      	strb	r3, [r7, #19]
E:\Github_Repos\SF2_Eth_FFT\Softconsole\FFT_Accelerator\Debug/../firmware/drivers/mss_uart/mss_uart.c:431
            this_uart->status |= status;
2000194c:	68fb      	ldr	r3, [r7, #12]
2000194e:	7b5a      	ldrb	r2, [r3, #13]
20001950:	7cfb      	ldrb	r3, [r7, #19]
20001952:	4313      	orrs	r3, r2
20001954:	b2da      	uxtb	r2, r3
20001956:	68fb      	ldr	r3, [r7, #12]
20001958:	735a      	strb	r2, [r3, #13]
E:\Github_Repos\SF2_Eth_FFT\Softconsole\FFT_Accelerator\Debug/../firmware/drivers/mss_uart/mss_uart.c:425
        while(((status & MSS_UART_DATA_READY) != 0u) &&
2000195a:	7cfb      	ldrb	r3, [r7, #19]
2000195c:	f003 0301 	and.w	r3, r3, #1
20001960:	2b00      	cmp	r3, #0
20001962:	d003      	beq.n	2000196c <MSS_UART_get_rx+0xa8>
E:\Github_Repos\SF2_Eth_FFT\Softconsole\FFT_Accelerator\Debug/../firmware/drivers/mss_uart/mss_uart.c:425 (discriminator 1)
20001964:	697a      	ldr	r2, [r7, #20]
20001966:	687b      	ldr	r3, [r7, #4]
20001968:	429a      	cmp	r2, r3
2000196a:	d3e0      	bcc.n	2000192e <MSS_UART_get_rx+0x6a>
E:\Github_Repos\SF2_Eth_FFT\Softconsole\FFT_Accelerator\Debug/../firmware/drivers/mss_uart/mss_uart.c:434
        }
    }
    return rx_size;
2000196c:	697b      	ldr	r3, [r7, #20]
E:\Github_Repos\SF2_Eth_FFT\Softconsole\FFT_Accelerator\Debug/../firmware/drivers/mss_uart/mss_uart.c:435
}
2000196e:	4618      	mov	r0, r3
20001970:	371c      	adds	r7, #28
20001972:	46bd      	mov	sp, r7
20001974:	bc80      	pop	{r7}
20001976:	4770      	bx	lr
20001978:	200081a0 	.word	0x200081a0
2000197c:	20008160 	.word	0x20008160

20001980 <MSS_UART_enable_irq>:
MSS_UART_enable_irq():
E:\Github_Repos\SF2_Eth_FFT\Softconsole\FFT_Accelerator\Debug/../firmware/drivers/mss_uart/mss_uart.c:445
MSS_UART_enable_irq
(
    mss_uart_instance_t * this_uart,
    mss_uart_irq_t irq_mask
)
{
20001980:	b580      	push	{r7, lr}
20001982:	b082      	sub	sp, #8
20001984:	af00      	add	r7, sp, #0
20001986:	6078      	str	r0, [r7, #4]
20001988:	460b      	mov	r3, r1
2000198a:	807b      	strh	r3, [r7, #2]
E:\Github_Repos\SF2_Eth_FFT\Softconsole\FFT_Accelerator\Debug/../firmware/drivers/mss_uart/mss_uart.c:446
    ASSERT((this_uart == &g_mss_uart0) || (this_uart == &g_mss_uart1));
2000198c:	687b      	ldr	r3, [r7, #4]
2000198e:	4a23      	ldr	r2, [pc, #140]	; (20001a1c <MSS_UART_enable_irq+0x9c>)
20001990:	4293      	cmp	r3, r2
20001992:	d004      	beq.n	2000199e <MSS_UART_enable_irq+0x1e>
E:\Github_Repos\SF2_Eth_FFT\Softconsole\FFT_Accelerator\Debug/../firmware/drivers/mss_uart/mss_uart.c:446 (discriminator 1)
20001994:	687b      	ldr	r3, [r7, #4]
20001996:	4a22      	ldr	r2, [pc, #136]	; (20001a20 <MSS_UART_enable_irq+0xa0>)
20001998:	4293      	cmp	r3, r2
2000199a:	d000      	beq.n	2000199e <MSS_UART_enable_irq+0x1e>
E:\Github_Repos\SF2_Eth_FFT\Softconsole\FFT_Accelerator\Debug/../firmware/drivers/mss_uart/mss_uart.c:446 (discriminator 2)
2000199c:	be00      	bkpt	0x0000
E:\Github_Repos\SF2_Eth_FFT\Softconsole\FFT_Accelerator\Debug/../firmware/drivers/mss_uart/mss_uart.c:447
    ASSERT(MSS_UART_INVALID_IRQ > irq_mask);
2000199e:	887b      	ldrh	r3, [r7, #2]
200019a0:	f64f 72ff 	movw	r2, #65535	; 0xffff
200019a4:	4293      	cmp	r3, r2
200019a6:	d100      	bne.n	200019aa <MSS_UART_enable_irq+0x2a>
E:\Github_Repos\SF2_Eth_FFT\Softconsole\FFT_Accelerator\Debug/../firmware/drivers/mss_uart/mss_uart.c:447 (discriminator 1)
200019a8:	be00      	bkpt	0x0000
E:\Github_Repos\SF2_Eth_FFT\Softconsole\FFT_Accelerator\Debug/../firmware/drivers/mss_uart/mss_uart.c:449

    if(((this_uart == &g_mss_uart0) || (this_uart == &g_mss_uart1)) && 
200019aa:	687b      	ldr	r3, [r7, #4]
200019ac:	4a1b      	ldr	r2, [pc, #108]	; (20001a1c <MSS_UART_enable_irq+0x9c>)
200019ae:	4293      	cmp	r3, r2
200019b0:	d003      	beq.n	200019ba <MSS_UART_enable_irq+0x3a>
E:\Github_Repos\SF2_Eth_FFT\Softconsole\FFT_Accelerator\Debug/../firmware/drivers/mss_uart/mss_uart.c:449 (discriminator 2)
200019b2:	687b      	ldr	r3, [r7, #4]
200019b4:	4a1a      	ldr	r2, [pc, #104]	; (20001a20 <MSS_UART_enable_irq+0xa0>)
200019b6:	4293      	cmp	r3, r2
200019b8:	d12c      	bne.n	20001a14 <MSS_UART_enable_irq+0x94>
E:\Github_Repos\SF2_Eth_FFT\Softconsole\FFT_Accelerator\Debug/../firmware/drivers/mss_uart/mss_uart.c:449 (discriminator 3)
200019ba:	887b      	ldrh	r3, [r7, #2]
200019bc:	f64f 72ff 	movw	r2, #65535	; 0xffff
200019c0:	4293      	cmp	r3, r2
200019c2:	d027      	beq.n	20001a14 <MSS_UART_enable_irq+0x94>
E:\Github_Repos\SF2_Eth_FFT\Softconsole\FFT_Accelerator\Debug/../firmware/drivers/mss_uart/mss_uart.c:453
       (MSS_UART_INVALID_IRQ > irq_mask))
    {
        /* Clear any previously pended interrupts */
        NVIC_ClearPendingIRQ(this_uart->irqn);
200019c4:	687b      	ldr	r3, [r7, #4]
200019c6:	f993 3004 	ldrsb.w	r3, [r3, #4]
200019ca:	4618      	mov	r0, r3
200019cc:	f7ff fe78 	bl	200016c0 <NVIC_ClearPendingIRQ>
E:\Github_Repos\SF2_Eth_FFT\Softconsole\FFT_Accelerator\Debug/../firmware/drivers/mss_uart/mss_uart.c:461
         * bit 0 - Receive Data Available Interrupt
         * bit 1 - Transmitter Holding  Register Empty Interrupt
         * bit 2 - Receiver Line Status Interrupt
         * bit 3 - Modem Status Interrupt
         */
        this_uart->hw_reg->IER |= (uint8_t)irq_mask & IIRF_MASK;
200019d0:	687b      	ldr	r3, [r7, #4]
200019d2:	681b      	ldr	r3, [r3, #0]
200019d4:	791b      	ldrb	r3, [r3, #4]
200019d6:	b2d9      	uxtb	r1, r3
200019d8:	887b      	ldrh	r3, [r7, #2]
200019da:	b2db      	uxtb	r3, r3
200019dc:	f003 030f 	and.w	r3, r3, #15
200019e0:	b2da      	uxtb	r2, r3
200019e2:	687b      	ldr	r3, [r7, #4]
200019e4:	681b      	ldr	r3, [r3, #0]
200019e6:	430a      	orrs	r2, r1
200019e8:	b2d2      	uxtb	r2, r2
200019ea:	711a      	strb	r2, [r3, #4]
E:\Github_Repos\SF2_Eth_FFT\Softconsole\FFT_Accelerator\Debug/../firmware/drivers/mss_uart/mss_uart.c:470
         * bit 5 - NACK / ERR signal interrupt
         * bit 6 - PID parity error interrupt 
         * bit 7 - LIN break detection interrupt
         * bit 8 - LIN Sync detection interrupt
         */
        this_uart->hw_reg->IEM |= (uint8_t)(((uint32_t)irq_mask & ~((uint32_t)IIRF_MASK)) >> 4u);
200019ec:	687b      	ldr	r3, [r7, #4]
200019ee:	681b      	ldr	r3, [r3, #0]
200019f0:	f893 3024 	ldrb.w	r3, [r3, #36]	; 0x24
200019f4:	b2d9      	uxtb	r1, r3
200019f6:	887b      	ldrh	r3, [r7, #2]
200019f8:	091b      	lsrs	r3, r3, #4
200019fa:	b2da      	uxtb	r2, r3
200019fc:	687b      	ldr	r3, [r7, #4]
200019fe:	681b      	ldr	r3, [r3, #0]
20001a00:	430a      	orrs	r2, r1
20001a02:	b2d2      	uxtb	r2, r2
20001a04:	f883 2024 	strb.w	r2, [r3, #36]	; 0x24
E:\Github_Repos\SF2_Eth_FFT\Softconsole\FFT_Accelerator\Debug/../firmware/drivers/mss_uart/mss_uart.c:473

        /* Enable UART instance interrupt in Cortex-M3 NVIC. */
        NVIC_EnableIRQ(this_uart->irqn);
20001a08:	687b      	ldr	r3, [r7, #4]
20001a0a:	f993 3004 	ldrsb.w	r3, [r3, #4]
20001a0e:	4618      	mov	r0, r3
20001a10:	f7ff fe3e 	bl	20001690 <NVIC_EnableIRQ>
E:\Github_Repos\SF2_Eth_FFT\Softconsole\FFT_Accelerator\Debug/../firmware/drivers/mss_uart/mss_uart.c:475
    }
}
20001a14:	bf00      	nop
20001a16:	3708      	adds	r7, #8
20001a18:	46bd      	mov	sp, r7
20001a1a:	bd80      	pop	{r7, pc}
20001a1c:	200081a0 	.word	0x200081a0
20001a20:	20008160 	.word	0x20008160

20001a24 <MSS_UART_set_rx_handler>:
MSS_UART_set_rx_handler():
E:\Github_Repos\SF2_Eth_FFT\Softconsole\FFT_Accelerator\Debug/../firmware/drivers/mss_uart/mss_uart.c:530
(
    mss_uart_instance_t *       this_uart,
    mss_uart_irq_handler_t      handler,
    mss_uart_rx_trig_level_t    trigger_level
)
{
20001a24:	b580      	push	{r7, lr}
20001a26:	b084      	sub	sp, #16
20001a28:	af00      	add	r7, sp, #0
20001a2a:	60f8      	str	r0, [r7, #12]
20001a2c:	60b9      	str	r1, [r7, #8]
20001a2e:	4613      	mov	r3, r2
20001a30:	71fb      	strb	r3, [r7, #7]
E:\Github_Repos\SF2_Eth_FFT\Softconsole\FFT_Accelerator\Debug/../firmware/drivers/mss_uart/mss_uart.c:531
    ASSERT((this_uart == &g_mss_uart0) || (this_uart == &g_mss_uart1));
20001a32:	68fb      	ldr	r3, [r7, #12]
20001a34:	4a23      	ldr	r2, [pc, #140]	; (20001ac4 <MSS_UART_set_rx_handler+0xa0>)
20001a36:	4293      	cmp	r3, r2
20001a38:	d004      	beq.n	20001a44 <MSS_UART_set_rx_handler+0x20>
E:\Github_Repos\SF2_Eth_FFT\Softconsole\FFT_Accelerator\Debug/../firmware/drivers/mss_uart/mss_uart.c:531 (discriminator 1)
20001a3a:	68fb      	ldr	r3, [r7, #12]
20001a3c:	4a22      	ldr	r2, [pc, #136]	; (20001ac8 <MSS_UART_set_rx_handler+0xa4>)
20001a3e:	4293      	cmp	r3, r2
20001a40:	d000      	beq.n	20001a44 <MSS_UART_set_rx_handler+0x20>
E:\Github_Repos\SF2_Eth_FFT\Softconsole\FFT_Accelerator\Debug/../firmware/drivers/mss_uart/mss_uart.c:531 (discriminator 2)
20001a42:	be00      	bkpt	0x0000
E:\Github_Repos\SF2_Eth_FFT\Softconsole\FFT_Accelerator\Debug/../firmware/drivers/mss_uart/mss_uart.c:532
    ASSERT(handler != INVALID_IRQ_HANDLER );
20001a44:	68bb      	ldr	r3, [r7, #8]
20001a46:	2b00      	cmp	r3, #0
20001a48:	d100      	bne.n	20001a4c <MSS_UART_set_rx_handler+0x28>
E:\Github_Repos\SF2_Eth_FFT\Softconsole\FFT_Accelerator\Debug/../firmware/drivers/mss_uart/mss_uart.c:532 (discriminator 1)
20001a4a:	be00      	bkpt	0x0000
E:\Github_Repos\SF2_Eth_FFT\Softconsole\FFT_Accelerator\Debug/../firmware/drivers/mss_uart/mss_uart.c:533
    ASSERT(trigger_level < MSS_UART_FIFO_INVALID_TRIG_LEVEL);
20001a4c:	79fb      	ldrb	r3, [r7, #7]
20001a4e:	2bc0      	cmp	r3, #192	; 0xc0
20001a50:	d900      	bls.n	20001a54 <MSS_UART_set_rx_handler+0x30>
E:\Github_Repos\SF2_Eth_FFT\Softconsole\FFT_Accelerator\Debug/../firmware/drivers/mss_uart/mss_uart.c:533 (discriminator 1)
20001a52:	be00      	bkpt	0x0000
E:\Github_Repos\SF2_Eth_FFT\Softconsole\FFT_Accelerator\Debug/../firmware/drivers/mss_uart/mss_uart.c:535

    if(((this_uart == &g_mss_uart0) || (this_uart == &g_mss_uart1)) &&
20001a54:	68fb      	ldr	r3, [r7, #12]
20001a56:	4a1b      	ldr	r2, [pc, #108]	; (20001ac4 <MSS_UART_set_rx_handler+0xa0>)
20001a58:	4293      	cmp	r3, r2
20001a5a:	d003      	beq.n	20001a64 <MSS_UART_set_rx_handler+0x40>
E:\Github_Repos\SF2_Eth_FFT\Softconsole\FFT_Accelerator\Debug/../firmware/drivers/mss_uart/mss_uart.c:535 (discriminator 2)
20001a5c:	68fb      	ldr	r3, [r7, #12]
20001a5e:	4a1a      	ldr	r2, [pc, #104]	; (20001ac8 <MSS_UART_set_rx_handler+0xa4>)
20001a60:	4293      	cmp	r3, r2
20001a62:	d12b      	bne.n	20001abc <MSS_UART_set_rx_handler+0x98>
E:\Github_Repos\SF2_Eth_FFT\Softconsole\FFT_Accelerator\Debug/../firmware/drivers/mss_uart/mss_uart.c:535 (discriminator 3)
20001a64:	68bb      	ldr	r3, [r7, #8]
20001a66:	2b00      	cmp	r3, #0
20001a68:	d028      	beq.n	20001abc <MSS_UART_set_rx_handler+0x98>
E:\Github_Repos\SF2_Eth_FFT\Softconsole\FFT_Accelerator\Debug/../firmware/drivers/mss_uart/mss_uart.c:536
       (handler != INVALID_IRQ_HANDLER) &&
20001a6a:	79fb      	ldrb	r3, [r7, #7]
20001a6c:	2bc0      	cmp	r3, #192	; 0xc0
20001a6e:	d825      	bhi.n	20001abc <MSS_UART_set_rx_handler+0x98>
E:\Github_Repos\SF2_Eth_FFT\Softconsole\FFT_Accelerator\Debug/../firmware/drivers/mss_uart/mss_uart.c:539
       (trigger_level < MSS_UART_FIFO_INVALID_TRIG_LEVEL))
    {
        this_uart->rx_handler = handler;
20001a70:	68fb      	ldr	r3, [r7, #12]
20001a72:	68ba      	ldr	r2, [r7, #8]
20001a74:	621a      	str	r2, [r3, #32]
E:\Github_Repos\SF2_Eth_FFT\Softconsole\FFT_Accelerator\Debug/../firmware/drivers/mss_uart/mss_uart.c:542

        /* Set the receive interrupt trigger level. */
        this_uart->hw_reg->FCR = (this_uart->hw_reg->FCR &
20001a76:	68fb      	ldr	r3, [r7, #12]
20001a78:	681b      	ldr	r3, [r3, #0]
20001a7a:	7a1b      	ldrb	r3, [r3, #8]
20001a7c:	b2db      	uxtb	r3, r3
20001a7e:	b25b      	sxtb	r3, r3
20001a80:	f003 033f 	and.w	r3, r3, #63	; 0x3f
20001a84:	b25a      	sxtb	r2, r3
E:\Github_Repos\SF2_Eth_FFT\Softconsole\FFT_Accelerator\Debug/../firmware/drivers/mss_uart/mss_uart.c:543
                                 (uint8_t)(~((uint8_t)FCR_TRIG_LEVEL_MASK))) |
20001a86:	f997 3007 	ldrsb.w	r3, [r7, #7]
20001a8a:	4313      	orrs	r3, r2
20001a8c:	b25a      	sxtb	r2, r3
E:\Github_Repos\SF2_Eth_FFT\Softconsole\FFT_Accelerator\Debug/../firmware/drivers/mss_uart/mss_uart.c:542
        this_uart->hw_reg->FCR = (this_uart->hw_reg->FCR &
20001a8e:	68fb      	ldr	r3, [r7, #12]
20001a90:	681b      	ldr	r3, [r3, #0]
E:\Github_Repos\SF2_Eth_FFT\Softconsole\FFT_Accelerator\Debug/../firmware/drivers/mss_uart/mss_uart.c:543
                                 (uint8_t)(~((uint8_t)FCR_TRIG_LEVEL_MASK))) |
20001a92:	b2d2      	uxtb	r2, r2
E:\Github_Repos\SF2_Eth_FFT\Softconsole\FFT_Accelerator\Debug/../firmware/drivers/mss_uart/mss_uart.c:542
        this_uart->hw_reg->FCR = (this_uart->hw_reg->FCR &
20001a94:	721a      	strb	r2, [r3, #8]
E:\Github_Repos\SF2_Eth_FFT\Softconsole\FFT_Accelerator\Debug/../firmware/drivers/mss_uart/mss_uart.c:546
                                 (uint8_t)trigger_level;
        /* Clear any previously pended interrupts */
        NVIC_ClearPendingIRQ(this_uart->irqn);
20001a96:	68fb      	ldr	r3, [r7, #12]
20001a98:	f993 3004 	ldrsb.w	r3, [r3, #4]
20001a9c:	4618      	mov	r0, r3
20001a9e:	f7ff fe0f 	bl	200016c0 <NVIC_ClearPendingIRQ>
E:\Github_Repos\SF2_Eth_FFT\Softconsole\FFT_Accelerator\Debug/../firmware/drivers/mss_uart/mss_uart.c:549

        /* Enable receive interrupt. */
        set_bit_reg8(&this_uart->hw_reg->IER,ERBFI);
20001aa2:	68fb      	ldr	r3, [r7, #12]
20001aa4:	681b      	ldr	r3, [r3, #0]
20001aa6:	3304      	adds	r3, #4
20001aa8:	2100      	movs	r1, #0
20001aaa:	4618      	mov	r0, r3
20001aac:	f7ff fe22 	bl	200016f4 <set_bit_reg8>
E:\Github_Repos\SF2_Eth_FFT\Softconsole\FFT_Accelerator\Debug/../firmware/drivers/mss_uart/mss_uart.c:552

        /* Enable UART instance interrupt in Cortex-M3 NVIC. */
        NVIC_EnableIRQ(this_uart->irqn);
20001ab0:	68fb      	ldr	r3, [r7, #12]
20001ab2:	f993 3004 	ldrsb.w	r3, [r3, #4]
20001ab6:	4618      	mov	r0, r3
20001ab8:	f7ff fdea 	bl	20001690 <NVIC_EnableIRQ>
E:\Github_Repos\SF2_Eth_FFT\Softconsole\FFT_Accelerator\Debug/../firmware/drivers/mss_uart/mss_uart.c:554
    }
}
20001abc:	bf00      	nop
20001abe:	3710      	adds	r7, #16
20001ac0:	46bd      	mov	sp, r7
20001ac2:	bd80      	pop	{r7, pc}
20001ac4:	200081a0 	.word	0x200081a0
20001ac8:	20008160 	.word	0x20008160

20001acc <UART0_IRQHandler>:
UART0_IRQHandler():
E:\Github_Repos\SF2_Eth_FFT\Softconsole\FFT_Accelerator\Debug/../firmware/drivers/mss_uart/mss_uart.c:619
#if defined(__GNUC__)
__attribute__((__interrupt__)) void UART0_IRQHandler(void)
#else
void UART0_IRQHandler(void)
#endif
{
20001acc:	4668      	mov	r0, sp
20001ace:	f020 0107 	bic.w	r1, r0, #7
20001ad2:	468d      	mov	sp, r1
20001ad4:	b589      	push	{r0, r3, r7, lr}
20001ad6:	af00      	add	r7, sp, #0
E:\Github_Repos\SF2_Eth_FFT\Softconsole\FFT_Accelerator\Debug/../firmware/drivers/mss_uart/mss_uart.c:620
    MSS_UART_isr(&g_mss_uart0);
20001ad8:	4804      	ldr	r0, [pc, #16]	; (20001aec <UART0_IRQHandler+0x20>)
20001ada:	f000 f9ad 	bl	20001e38 <MSS_UART_isr>
E:\Github_Repos\SF2_Eth_FFT\Softconsole\FFT_Accelerator\Debug/../firmware/drivers/mss_uart/mss_uart.c:621
}
20001ade:	bf00      	nop
20001ae0:	46bd      	mov	sp, r7
20001ae2:	e8bd 4089 	ldmia.w	sp!, {r0, r3, r7, lr}
20001ae6:	4685      	mov	sp, r0
20001ae8:	4770      	bx	lr
20001aea:	bf00      	nop
20001aec:	200081a0 	.word	0x200081a0

20001af0 <UART1_IRQHandler>:
UART1_IRQHandler():
E:\Github_Repos\SF2_Eth_FFT\Softconsole\FFT_Accelerator\Debug/../firmware/drivers/mss_uart/mss_uart.c:633
#if defined(__GNUC__)
__attribute__((__interrupt__)) void UART1_IRQHandler(void)
#else
void UART1_IRQHandler(void)
#endif
{
20001af0:	4668      	mov	r0, sp
20001af2:	f020 0107 	bic.w	r1, r0, #7
20001af6:	468d      	mov	sp, r1
20001af8:	b589      	push	{r0, r3, r7, lr}
20001afa:	af00      	add	r7, sp, #0
E:\Github_Repos\SF2_Eth_FFT\Softconsole\FFT_Accelerator\Debug/../firmware/drivers/mss_uart/mss_uart.c:634
    MSS_UART_isr(&g_mss_uart1);
20001afc:	4804      	ldr	r0, [pc, #16]	; (20001b10 <UART1_IRQHandler+0x20>)
20001afe:	f000 f99b 	bl	20001e38 <MSS_UART_isr>
E:\Github_Repos\SF2_Eth_FFT\Softconsole\FFT_Accelerator\Debug/../firmware/drivers/mss_uart/mss_uart.c:635
}
20001b02:	bf00      	nop
20001b04:	46bd      	mov	sp, r7
20001b06:	e8bd 4089 	ldmia.w	sp!, {r0, r3, r7, lr}
20001b0a:	4685      	mov	sp, r0
20001b0c:	4770      	bx	lr
20001b0e:	bf00      	nop
20001b10:	20008160 	.word	0x20008160

20001b14 <config_baud_divisors>:
config_baud_divisors():
E:\Github_Repos\SF2_Eth_FFT\Softconsole\FFT_Accelerator\Debug/../firmware/drivers/mss_uart/mss_uart.c:1346
config_baud_divisors
(
    mss_uart_instance_t * this_uart,
    uint32_t baudrate    
)
{
20001b14:	b580      	push	{r7, lr}
20001b16:	b088      	sub	sp, #32
20001b18:	af00      	add	r7, sp, #0
20001b1a:	6078      	str	r0, [r7, #4]
20001b1c:	6039      	str	r1, [r7, #0]
E:\Github_Repos\SF2_Eth_FFT\Softconsole\FFT_Accelerator\Debug/../firmware/drivers/mss_uart/mss_uart.c:1347
    ASSERT((this_uart == &g_mss_uart0) || (this_uart == &g_mss_uart1));
20001b1e:	687b      	ldr	r3, [r7, #4]
20001b20:	4a4b      	ldr	r2, [pc, #300]	; (20001c50 <config_baud_divisors+0x13c>)
20001b22:	4293      	cmp	r3, r2
20001b24:	d004      	beq.n	20001b30 <config_baud_divisors+0x1c>
E:\Github_Repos\SF2_Eth_FFT\Softconsole\FFT_Accelerator\Debug/../firmware/drivers/mss_uart/mss_uart.c:1347 (discriminator 1)
20001b26:	687b      	ldr	r3, [r7, #4]
20001b28:	4a4a      	ldr	r2, [pc, #296]	; (20001c54 <config_baud_divisors+0x140>)
20001b2a:	4293      	cmp	r3, r2
20001b2c:	d000      	beq.n	20001b30 <config_baud_divisors+0x1c>
E:\Github_Repos\SF2_Eth_FFT\Softconsole\FFT_Accelerator\Debug/../firmware/drivers/mss_uart/mss_uart.c:1347 (discriminator 2)
20001b2e:	be00      	bkpt	0x0000
E:\Github_Repos\SF2_Eth_FFT\Softconsole\FFT_Accelerator\Debug/../firmware/drivers/mss_uart/mss_uart.c:1349
    
    if((this_uart == &g_mss_uart0) || (this_uart == &g_mss_uart1))
20001b30:	687b      	ldr	r3, [r7, #4]
20001b32:	4a47      	ldr	r2, [pc, #284]	; (20001c50 <config_baud_divisors+0x13c>)
20001b34:	4293      	cmp	r3, r2
20001b36:	d004      	beq.n	20001b42 <config_baud_divisors+0x2e>
E:\Github_Repos\SF2_Eth_FFT\Softconsole\FFT_Accelerator\Debug/../firmware/drivers/mss_uart/mss_uart.c:1349 (discriminator 1)
20001b38:	687b      	ldr	r3, [r7, #4]
20001b3a:	4a46      	ldr	r2, [pc, #280]	; (20001c54 <config_baud_divisors+0x140>)
20001b3c:	4293      	cmp	r3, r2
20001b3e:	f040 8082 	bne.w	20001c46 <config_baud_divisors+0x132>
E:\Github_Repos\SF2_Eth_FFT\Softconsole\FFT_Accelerator\Debug/../firmware/drivers/mss_uart/mss_uart.c:1357
        uint32_t baud_value_by_64;
        uint32_t baud_value_by_128;
        uint32_t fractional_baud_value;
        uint32_t pclk_freq;

        this_uart->baudrate = baudrate;
20001b42:	687b      	ldr	r3, [r7, #4]
20001b44:	683a      	ldr	r2, [r7, #0]
20001b46:	609a      	str	r2, [r3, #8]
E:\Github_Repos\SF2_Eth_FFT\Softconsole\FFT_Accelerator\Debug/../firmware/drivers/mss_uart/mss_uart.c:1361

        /* Force the value of the CMSIS global variables holding the various system
          * clock frequencies to be updated. */
        SystemCoreClockUpdate();
20001b48:	f002 f846 	bl	20003bd8 <SystemCoreClockUpdate>
E:\Github_Repos\SF2_Eth_FFT\Softconsole\FFT_Accelerator\Debug/../firmware/drivers/mss_uart/mss_uart.c:1362
        if(this_uart == &g_mss_uart0)
20001b4c:	687b      	ldr	r3, [r7, #4]
20001b4e:	4a40      	ldr	r2, [pc, #256]	; (20001c50 <config_baud_divisors+0x13c>)
20001b50:	4293      	cmp	r3, r2
20001b52:	d103      	bne.n	20001b5c <config_baud_divisors+0x48>
E:\Github_Repos\SF2_Eth_FFT\Softconsole\FFT_Accelerator\Debug/../firmware/drivers/mss_uart/mss_uart.c:1364
        {
            pclk_freq = g_FrequencyPCLK0;
20001b54:	4b40      	ldr	r3, [pc, #256]	; (20001c58 <config_baud_divisors+0x144>)
20001b56:	681b      	ldr	r3, [r3, #0]
20001b58:	61fb      	str	r3, [r7, #28]
20001b5a:	e002      	b.n	20001b62 <config_baud_divisors+0x4e>
E:\Github_Repos\SF2_Eth_FFT\Softconsole\FFT_Accelerator\Debug/../firmware/drivers/mss_uart/mss_uart.c:1368
        }
        else
        {
            pclk_freq = g_FrequencyPCLK1;
20001b5c:	4b3f      	ldr	r3, [pc, #252]	; (20001c5c <config_baud_divisors+0x148>)
20001b5e:	681b      	ldr	r3, [r3, #0]
20001b60:	61fb      	str	r3, [r7, #28]
E:\Github_Repos\SF2_Eth_FFT\Softconsole\FFT_Accelerator\Debug/../firmware/drivers/mss_uart/mss_uart.c:1376
        /*
         * Compute baud value based on requested baud rate and PCLK frequency.
         * The baud value is computed using the following equation:
         *      baud_value = PCLK_Frequency / (baud_rate * 16)
         */
        baud_value_by_128 = (8u * pclk_freq) / baudrate;
20001b62:	69fb      	ldr	r3, [r7, #28]
20001b64:	00da      	lsls	r2, r3, #3
20001b66:	683b      	ldr	r3, [r7, #0]
20001b68:	fbb2 f3f3 	udiv	r3, r2, r3
20001b6c:	61bb      	str	r3, [r7, #24]
E:\Github_Repos\SF2_Eth_FFT\Softconsole\FFT_Accelerator\Debug/../firmware/drivers/mss_uart/mss_uart.c:1377
        baud_value_by_64 = baud_value_by_128 / 2u;
20001b6e:	69bb      	ldr	r3, [r7, #24]
20001b70:	085b      	lsrs	r3, r3, #1
20001b72:	617b      	str	r3, [r7, #20]
E:\Github_Repos\SF2_Eth_FFT\Softconsole\FFT_Accelerator\Debug/../firmware/drivers/mss_uart/mss_uart.c:1378
        baud_value = baud_value_by_64 / 64u;
20001b74:	697b      	ldr	r3, [r7, #20]
20001b76:	099b      	lsrs	r3, r3, #6
20001b78:	613b      	str	r3, [r7, #16]
E:\Github_Repos\SF2_Eth_FFT\Softconsole\FFT_Accelerator\Debug/../firmware/drivers/mss_uart/mss_uart.c:1379
        fractional_baud_value = baud_value_by_64 - (baud_value * 64u);
20001b7a:	693b      	ldr	r3, [r7, #16]
20001b7c:	019b      	lsls	r3, r3, #6
20001b7e:	697a      	ldr	r2, [r7, #20]
20001b80:	1ad3      	subs	r3, r2, r3
20001b82:	60fb      	str	r3, [r7, #12]
E:\Github_Repos\SF2_Eth_FFT\Softconsole\FFT_Accelerator\Debug/../firmware/drivers/mss_uart/mss_uart.c:1380
        fractional_baud_value += (baud_value_by_128 - (baud_value * 128u)) - (fractional_baud_value * 2u);
20001b84:	693b      	ldr	r3, [r7, #16]
20001b86:	01db      	lsls	r3, r3, #7
20001b88:	69ba      	ldr	r2, [r7, #24]
20001b8a:	1ad2      	subs	r2, r2, r3
20001b8c:	68fb      	ldr	r3, [r7, #12]
20001b8e:	005b      	lsls	r3, r3, #1
20001b90:	1ad3      	subs	r3, r2, r3
20001b92:	68fa      	ldr	r2, [r7, #12]
20001b94:	4413      	add	r3, r2
20001b96:	60fb      	str	r3, [r7, #12]
E:\Github_Repos\SF2_Eth_FFT\Softconsole\FFT_Accelerator\Debug/../firmware/drivers/mss_uart/mss_uart.c:1383
        
        /* Assert if integer baud value fits in 16-bit. */
        ASSERT(baud_value <= UINT16_MAX);
20001b98:	693b      	ldr	r3, [r7, #16]
20001b9a:	f5b3 3f80 	cmp.w	r3, #65536	; 0x10000
20001b9e:	d300      	bcc.n	20001ba2 <config_baud_divisors+0x8e>
E:\Github_Repos\SF2_Eth_FFT\Softconsole\FFT_Accelerator\Debug/../firmware/drivers/mss_uart/mss_uart.c:1383 (discriminator 1)
20001ba0:	be00      	bkpt	0x0000
E:\Github_Repos\SF2_Eth_FFT\Softconsole\FFT_Accelerator\Debug/../firmware/drivers/mss_uart/mss_uart.c:1385
    
        if(baud_value <= (uint32_t)UINT16_MAX)
20001ba2:	693b      	ldr	r3, [r7, #16]
20001ba4:	f5b3 3f80 	cmp.w	r3, #65536	; 0x10000
20001ba8:	d24d      	bcs.n	20001c46 <config_baud_divisors+0x132>
E:\Github_Repos\SF2_Eth_FFT\Softconsole\FFT_Accelerator\Debug/../firmware/drivers/mss_uart/mss_uart.c:1387
        {
            if(baud_value > 1u)
20001baa:	693b      	ldr	r3, [r7, #16]
20001bac:	2b01      	cmp	r3, #1
20001bae:	d92a      	bls.n	20001c06 <config_baud_divisors+0xf2>
E:\Github_Repos\SF2_Eth_FFT\Softconsole\FFT_Accelerator\Debug/../firmware/drivers/mss_uart/mss_uart.c:1393
            {
                /* 
                 * Use Frational baud rate divisors
                 */
                /* set divisor latch */
                set_bit_reg8(&this_uart->hw_reg->LCR,DLAB);
20001bb0:	687b      	ldr	r3, [r7, #4]
20001bb2:	681b      	ldr	r3, [r3, #0]
20001bb4:	330c      	adds	r3, #12
20001bb6:	2107      	movs	r1, #7
20001bb8:	4618      	mov	r0, r3
20001bba:	f7ff fd9b 	bl	200016f4 <set_bit_reg8>
E:\Github_Repos\SF2_Eth_FFT\Softconsole\FFT_Accelerator\Debug/../firmware/drivers/mss_uart/mss_uart.c:1396
            
                /* msb of baud value */
                this_uart->hw_reg->DMR = (uint8_t)(baud_value >> 8);
20001bbe:	693b      	ldr	r3, [r7, #16]
20001bc0:	0a1a      	lsrs	r2, r3, #8
20001bc2:	687b      	ldr	r3, [r7, #4]
20001bc4:	681b      	ldr	r3, [r3, #0]
20001bc6:	b2d2      	uxtb	r2, r2
20001bc8:	711a      	strb	r2, [r3, #4]
E:\Github_Repos\SF2_Eth_FFT\Softconsole\FFT_Accelerator\Debug/../firmware/drivers/mss_uart/mss_uart.c:1398
                /* lsb of baud value */
                this_uart->hw_reg->DLR = (uint8_t)baud_value;
20001bca:	687b      	ldr	r3, [r7, #4]
20001bcc:	681b      	ldr	r3, [r3, #0]
20001bce:	693a      	ldr	r2, [r7, #16]
20001bd0:	b2d2      	uxtb	r2, r2
20001bd2:	701a      	strb	r2, [r3, #0]
E:\Github_Repos\SF2_Eth_FFT\Softconsole\FFT_Accelerator\Debug/../firmware/drivers/mss_uart/mss_uart.c:1401
            
                /* reset divisor latch */
                clear_bit_reg8(&this_uart->hw_reg->LCR,DLAB);
20001bd4:	687b      	ldr	r3, [r7, #4]
20001bd6:	681b      	ldr	r3, [r3, #0]
20001bd8:	330c      	adds	r3, #12
20001bda:	2107      	movs	r1, #7
20001bdc:	4618      	mov	r0, r3
20001bde:	f7ff fda6 	bl	2000172e <clear_bit_reg8>
E:\Github_Repos\SF2_Eth_FFT\Softconsole\FFT_Accelerator\Debug/../firmware/drivers/mss_uart/mss_uart.c:1404
        
                /* Enable Fractional baud rate */
                set_bit_reg8(&this_uart->hw_reg->MM0,EFBR);
20001be2:	687b      	ldr	r3, [r7, #4]
20001be4:	681b      	ldr	r3, [r3, #0]
20001be6:	3330      	adds	r3, #48	; 0x30
20001be8:	2107      	movs	r1, #7
20001bea:	4618      	mov	r0, r3
20001bec:	f7ff fd82 	bl	200016f4 <set_bit_reg8>
E:\Github_Repos\SF2_Eth_FFT\Softconsole\FFT_Accelerator\Debug/../firmware/drivers/mss_uart/mss_uart.c:1407
        
                /* Load the fractional baud rate register */
                ASSERT(fractional_baud_value <= (uint32_t)UINT8_MAX);
20001bf0:	68fb      	ldr	r3, [r7, #12]
20001bf2:	2bff      	cmp	r3, #255	; 0xff
20001bf4:	d900      	bls.n	20001bf8 <config_baud_divisors+0xe4>
E:\Github_Repos\SF2_Eth_FFT\Softconsole\FFT_Accelerator\Debug/../firmware/drivers/mss_uart/mss_uart.c:1407 (discriminator 1)
20001bf6:	be00      	bkpt	0x0000
E:\Github_Repos\SF2_Eth_FFT\Softconsole\FFT_Accelerator\Debug/../firmware/drivers/mss_uart/mss_uart.c:1408
                this_uart->hw_reg->DFR = (uint8_t)fractional_baud_value;
20001bf8:	687b      	ldr	r3, [r7, #4]
20001bfa:	681b      	ldr	r3, [r3, #0]
20001bfc:	68fa      	ldr	r2, [r7, #12]
20001bfe:	b2d2      	uxtb	r2, r2
20001c00:	f883 203c 	strb.w	r2, [r3, #60]	; 0x3c
E:\Github_Repos\SF2_Eth_FFT\Softconsole\FFT_Accelerator\Debug/../firmware/drivers/mss_uart/mss_uart.c:1431
                /* Disable Fractional baud rate */
                clear_bit_reg8(&this_uart->hw_reg->MM0,EFBR);
            }
        }
    }
}
20001c04:	e01f      	b.n	20001c46 <config_baud_divisors+0x132>
E:\Github_Repos\SF2_Eth_FFT\Softconsole\FFT_Accelerator\Debug/../firmware/drivers/mss_uart/mss_uart.c:1416
                set_bit_reg8(&this_uart->hw_reg->LCR,DLAB);
20001c06:	687b      	ldr	r3, [r7, #4]
20001c08:	681b      	ldr	r3, [r3, #0]
20001c0a:	330c      	adds	r3, #12
20001c0c:	2107      	movs	r1, #7
20001c0e:	4618      	mov	r0, r3
20001c10:	f7ff fd70 	bl	200016f4 <set_bit_reg8>
E:\Github_Repos\SF2_Eth_FFT\Softconsole\FFT_Accelerator\Debug/../firmware/drivers/mss_uart/mss_uart.c:1419
                this_uart->hw_reg->DMR = (uint8_t)(baud_value >> 8u);
20001c14:	693b      	ldr	r3, [r7, #16]
20001c16:	0a1a      	lsrs	r2, r3, #8
20001c18:	687b      	ldr	r3, [r7, #4]
20001c1a:	681b      	ldr	r3, [r3, #0]
20001c1c:	b2d2      	uxtb	r2, r2
20001c1e:	711a      	strb	r2, [r3, #4]
E:\Github_Repos\SF2_Eth_FFT\Softconsole\FFT_Accelerator\Debug/../firmware/drivers/mss_uart/mss_uart.c:1421
                this_uart->hw_reg->DLR = (uint8_t)baud_value;
20001c20:	687b      	ldr	r3, [r7, #4]
20001c22:	681b      	ldr	r3, [r3, #0]
20001c24:	693a      	ldr	r2, [r7, #16]
20001c26:	b2d2      	uxtb	r2, r2
20001c28:	701a      	strb	r2, [r3, #0]
E:\Github_Repos\SF2_Eth_FFT\Softconsole\FFT_Accelerator\Debug/../firmware/drivers/mss_uart/mss_uart.c:1424
                clear_bit_reg8(&this_uart->hw_reg->LCR,DLAB);
20001c2a:	687b      	ldr	r3, [r7, #4]
20001c2c:	681b      	ldr	r3, [r3, #0]
20001c2e:	330c      	adds	r3, #12
20001c30:	2107      	movs	r1, #7
20001c32:	4618      	mov	r0, r3
20001c34:	f7ff fd7b 	bl	2000172e <clear_bit_reg8>
E:\Github_Repos\SF2_Eth_FFT\Softconsole\FFT_Accelerator\Debug/../firmware/drivers/mss_uart/mss_uart.c:1427
                clear_bit_reg8(&this_uart->hw_reg->MM0,EFBR);
20001c38:	687b      	ldr	r3, [r7, #4]
20001c3a:	681b      	ldr	r3, [r3, #0]
20001c3c:	3330      	adds	r3, #48	; 0x30
20001c3e:	2107      	movs	r1, #7
20001c40:	4618      	mov	r0, r3
20001c42:	f7ff fd74 	bl	2000172e <clear_bit_reg8>
E:\Github_Repos\SF2_Eth_FFT\Softconsole\FFT_Accelerator\Debug/../firmware/drivers/mss_uart/mss_uart.c:1431
}
20001c46:	bf00      	nop
20001c48:	3720      	adds	r7, #32
20001c4a:	46bd      	mov	sp, r7
20001c4c:	bd80      	pop	{r7, pc}
20001c4e:	bf00      	nop
20001c50:	200081a0 	.word	0x200081a0
20001c54:	20008160 	.word	0x20008160
20001c58:	20005050 	.word	0x20005050
20001c5c:	20005054 	.word	0x20005054

20001c60 <global_init>:
global_init():
E:\Github_Repos\SF2_Eth_FFT\Softconsole\FFT_Accelerator\Debug/../firmware/drivers/mss_uart/mss_uart.c:1468
(
    mss_uart_instance_t * this_uart,
    uint32_t baud_rate,
    uint8_t line_config
)
{
20001c60:	b580      	push	{r7, lr}
20001c62:	b084      	sub	sp, #16
20001c64:	af00      	add	r7, sp, #0
20001c66:	60f8      	str	r0, [r7, #12]
20001c68:	60b9      	str	r1, [r7, #8]
20001c6a:	4613      	mov	r3, r2
20001c6c:	71fb      	strb	r3, [r7, #7]
E:\Github_Repos\SF2_Eth_FFT\Softconsole\FFT_Accelerator\Debug/../firmware/drivers/mss_uart/mss_uart.c:1471
    /* The driver expects g_mss_uart0 and g_mss_uart1 to be the only
     * mss_uart_instance_t instances used to identify UART0 and UART1. */
    ASSERT((this_uart == &g_mss_uart0) || (this_uart == &g_mss_uart1));
20001c6e:	68fb      	ldr	r3, [r7, #12]
20001c70:	4a6d      	ldr	r2, [pc, #436]	; (20001e28 <global_init+0x1c8>)
20001c72:	4293      	cmp	r3, r2
20001c74:	d004      	beq.n	20001c80 <global_init+0x20>
E:\Github_Repos\SF2_Eth_FFT\Softconsole\FFT_Accelerator\Debug/../firmware/drivers/mss_uart/mss_uart.c:1471 (discriminator 1)
20001c76:	68fb      	ldr	r3, [r7, #12]
20001c78:	4a6c      	ldr	r2, [pc, #432]	; (20001e2c <global_init+0x1cc>)
20001c7a:	4293      	cmp	r3, r2
20001c7c:	d000      	beq.n	20001c80 <global_init+0x20>
E:\Github_Repos\SF2_Eth_FFT\Softconsole\FFT_Accelerator\Debug/../firmware/drivers/mss_uart/mss_uart.c:1471 (discriminator 2)
20001c7e:	be00      	bkpt	0x0000
E:\Github_Repos\SF2_Eth_FFT\Softconsole\FFT_Accelerator\Debug/../firmware/drivers/mss_uart/mss_uart.c:1473

    if(this_uart == &g_mss_uart0)
20001c80:	68fb      	ldr	r3, [r7, #12]
20001c82:	4a69      	ldr	r2, [pc, #420]	; (20001e28 <global_init+0x1c8>)
20001c84:	4293      	cmp	r3, r2
20001c86:	d116      	bne.n	20001cb6 <global_init+0x56>
E:\Github_Repos\SF2_Eth_FFT\Softconsole\FFT_Accelerator\Debug/../firmware/drivers/mss_uart/mss_uart.c:1475
    {
        this_uart->hw_reg = UART0;
20001c88:	68fb      	ldr	r3, [r7, #12]
20001c8a:	f04f 4280 	mov.w	r2, #1073741824	; 0x40000000
20001c8e:	601a      	str	r2, [r3, #0]
E:\Github_Repos\SF2_Eth_FFT\Softconsole\FFT_Accelerator\Debug/../firmware/drivers/mss_uart/mss_uart.c:1476
        this_uart->irqn = UART0_IRQn;
20001c90:	68fb      	ldr	r3, [r7, #12]
20001c92:	220a      	movs	r2, #10
20001c94:	711a      	strb	r2, [r3, #4]
E:\Github_Repos\SF2_Eth_FFT\Softconsole\FFT_Accelerator\Debug/../firmware/drivers/mss_uart/mss_uart.c:1478
        /* reset UART0 */
        SYSREG->SOFT_RST_CR |= SYSREG_MMUART0_SOFTRESET_MASK;
20001c96:	4b66      	ldr	r3, [pc, #408]	; (20001e30 <global_init+0x1d0>)
20001c98:	6c9b      	ldr	r3, [r3, #72]	; 0x48
20001c9a:	4a65      	ldr	r2, [pc, #404]	; (20001e30 <global_init+0x1d0>)
20001c9c:	f043 0380 	orr.w	r3, r3, #128	; 0x80
20001ca0:	6493      	str	r3, [r2, #72]	; 0x48
E:\Github_Repos\SF2_Eth_FFT\Softconsole\FFT_Accelerator\Debug/../firmware/drivers/mss_uart/mss_uart.c:1480
        /* Clear any previously pended UART0 interrupt */
        NVIC_ClearPendingIRQ(UART0_IRQn);
20001ca2:	200a      	movs	r0, #10
20001ca4:	f7ff fd0c 	bl	200016c0 <NVIC_ClearPendingIRQ>
E:\Github_Repos\SF2_Eth_FFT\Softconsole\FFT_Accelerator\Debug/../firmware/drivers/mss_uart/mss_uart.c:1482
        /* Take UART0 out of reset. */
        SYSREG->SOFT_RST_CR &= ~SYSREG_MMUART0_SOFTRESET_MASK;
20001ca8:	4b61      	ldr	r3, [pc, #388]	; (20001e30 <global_init+0x1d0>)
20001caa:	6c9b      	ldr	r3, [r3, #72]	; 0x48
20001cac:	4a60      	ldr	r2, [pc, #384]	; (20001e30 <global_init+0x1d0>)
20001cae:	f023 0380 	bic.w	r3, r3, #128	; 0x80
20001cb2:	6493      	str	r3, [r2, #72]	; 0x48
20001cb4:	e014      	b.n	20001ce0 <global_init+0x80>
E:\Github_Repos\SF2_Eth_FFT\Softconsole\FFT_Accelerator\Debug/../firmware/drivers/mss_uart/mss_uart.c:1486
    }
    else
    {
        this_uart->hw_reg = UART1;
20001cb6:	68fb      	ldr	r3, [r7, #12]
20001cb8:	4a5e      	ldr	r2, [pc, #376]	; (20001e34 <global_init+0x1d4>)
20001cba:	601a      	str	r2, [r3, #0]
E:\Github_Repos\SF2_Eth_FFT\Softconsole\FFT_Accelerator\Debug/../firmware/drivers/mss_uart/mss_uart.c:1487
        this_uart->irqn = UART1_IRQn;
20001cbc:	68fb      	ldr	r3, [r7, #12]
20001cbe:	220b      	movs	r2, #11
20001cc0:	711a      	strb	r2, [r3, #4]
E:\Github_Repos\SF2_Eth_FFT\Softconsole\FFT_Accelerator\Debug/../firmware/drivers/mss_uart/mss_uart.c:1489
        /* Reset UART1 */
        SYSREG->SOFT_RST_CR |= SYSREG_MMUART1_SOFTRESET_MASK;
20001cc2:	4b5b      	ldr	r3, [pc, #364]	; (20001e30 <global_init+0x1d0>)
20001cc4:	6c9b      	ldr	r3, [r3, #72]	; 0x48
20001cc6:	4a5a      	ldr	r2, [pc, #360]	; (20001e30 <global_init+0x1d0>)
20001cc8:	f443 7380 	orr.w	r3, r3, #256	; 0x100
20001ccc:	6493      	str	r3, [r2, #72]	; 0x48
E:\Github_Repos\SF2_Eth_FFT\Softconsole\FFT_Accelerator\Debug/../firmware/drivers/mss_uart/mss_uart.c:1491
        /* Clear any previously pended UART1 interrupt */
        NVIC_ClearPendingIRQ(UART1_IRQn);
20001cce:	200b      	movs	r0, #11
20001cd0:	f7ff fcf6 	bl	200016c0 <NVIC_ClearPendingIRQ>
E:\Github_Repos\SF2_Eth_FFT\Softconsole\FFT_Accelerator\Debug/../firmware/drivers/mss_uart/mss_uart.c:1493
        /* Take UART1 out of reset. */
        SYSREG->SOFT_RST_CR &= ~SYSREG_MMUART1_SOFTRESET_MASK;
20001cd4:	4b56      	ldr	r3, [pc, #344]	; (20001e30 <global_init+0x1d0>)
20001cd6:	6c9b      	ldr	r3, [r3, #72]	; 0x48
20001cd8:	4a55      	ldr	r2, [pc, #340]	; (20001e30 <global_init+0x1d0>)
20001cda:	f423 7380 	bic.w	r3, r3, #256	; 0x100
20001cde:	6493      	str	r3, [r2, #72]	; 0x48
E:\Github_Repos\SF2_Eth_FFT\Softconsole\FFT_Accelerator\Debug/../firmware/drivers/mss_uart/mss_uart.c:1497
    }

    /* disable interrupts */
    this_uart->hw_reg->IER = 0u;
20001ce0:	68fb      	ldr	r3, [r7, #12]
20001ce2:	681b      	ldr	r3, [r3, #0]
20001ce4:	2200      	movs	r2, #0
20001ce6:	711a      	strb	r2, [r3, #4]
E:\Github_Repos\SF2_Eth_FFT\Softconsole\FFT_Accelerator\Debug/../firmware/drivers/mss_uart/mss_uart.c:1500

    /* FIFO configuration */
    this_uart->hw_reg->FCR = (uint8_t)MSS_UART_FIFO_SINGLE_BYTE;
20001ce8:	68fb      	ldr	r3, [r7, #12]
20001cea:	681b      	ldr	r3, [r3, #0]
20001cec:	2200      	movs	r2, #0
20001cee:	721a      	strb	r2, [r3, #8]
E:\Github_Repos\SF2_Eth_FFT\Softconsole\FFT_Accelerator\Debug/../firmware/drivers/mss_uart/mss_uart.c:1502
    /* clear receiver FIFO */
    set_bit_reg8(&this_uart->hw_reg->FCR,CLEAR_RX_FIFO);
20001cf0:	68fb      	ldr	r3, [r7, #12]
20001cf2:	681b      	ldr	r3, [r3, #0]
20001cf4:	3308      	adds	r3, #8
20001cf6:	2101      	movs	r1, #1
20001cf8:	4618      	mov	r0, r3
20001cfa:	f7ff fcfb 	bl	200016f4 <set_bit_reg8>
E:\Github_Repos\SF2_Eth_FFT\Softconsole\FFT_Accelerator\Debug/../firmware/drivers/mss_uart/mss_uart.c:1504
    /* clear transmitter FIFO */
    set_bit_reg8(&this_uart->hw_reg->FCR,CLEAR_TX_FIFO);
20001cfe:	68fb      	ldr	r3, [r7, #12]
20001d00:	681b      	ldr	r3, [r3, #0]
20001d02:	3308      	adds	r3, #8
20001d04:	2102      	movs	r1, #2
20001d06:	4618      	mov	r0, r3
20001d08:	f7ff fcf4 	bl	200016f4 <set_bit_reg8>
E:\Github_Repos\SF2_Eth_FFT\Softconsole\FFT_Accelerator\Debug/../firmware/drivers/mss_uart/mss_uart.c:1509

    /* set default READY mode : Mode 0*/
    /* enable RXRDYN and TXRDYN pins. The earlier FCR write to set the TX FIFO
     * trigger level inadvertently disabled the FCR_RXRDY_TXRDYN_EN bit. */
    set_bit_reg8(&this_uart->hw_reg->FCR,RXRDY_TXRDYN_EN);
20001d0c:	68fb      	ldr	r3, [r7, #12]
20001d0e:	681b      	ldr	r3, [r3, #0]
20001d10:	3308      	adds	r3, #8
20001d12:	2100      	movs	r1, #0
20001d14:	4618      	mov	r0, r3
20001d16:	f7ff fced 	bl	200016f4 <set_bit_reg8>
E:\Github_Repos\SF2_Eth_FFT\Softconsole\FFT_Accelerator\Debug/../firmware/drivers/mss_uart/mss_uart.c:1512

    /* disable loopback : local * remote */
    clear_bit_reg8(&this_uart->hw_reg->MCR,LOOP);
20001d1a:	68fb      	ldr	r3, [r7, #12]
20001d1c:	681b      	ldr	r3, [r3, #0]
20001d1e:	3310      	adds	r3, #16
20001d20:	2104      	movs	r1, #4
20001d22:	4618      	mov	r0, r3
20001d24:	f7ff fd03 	bl	2000172e <clear_bit_reg8>
E:\Github_Repos\SF2_Eth_FFT\Softconsole\FFT_Accelerator\Debug/../firmware/drivers/mss_uart/mss_uart.c:1513
    clear_bit_reg8(&this_uart->hw_reg->MCR,RLOOP);
20001d28:	68fb      	ldr	r3, [r7, #12]
20001d2a:	681b      	ldr	r3, [r3, #0]
20001d2c:	3310      	adds	r3, #16
20001d2e:	2105      	movs	r1, #5
20001d30:	4618      	mov	r0, r3
20001d32:	f7ff fcfc 	bl	2000172e <clear_bit_reg8>
E:\Github_Repos\SF2_Eth_FFT\Softconsole\FFT_Accelerator\Debug/../firmware/drivers/mss_uart/mss_uart.c:1516

    /* set default TX endian */
    clear_bit_reg8(&this_uart->hw_reg->MM1,E_MSB_TX);
20001d36:	68fb      	ldr	r3, [r7, #12]
20001d38:	681b      	ldr	r3, [r3, #0]
20001d3a:	3334      	adds	r3, #52	; 0x34
20001d3c:	2101      	movs	r1, #1
20001d3e:	4618      	mov	r0, r3
20001d40:	f7ff fcf5 	bl	2000172e <clear_bit_reg8>
E:\Github_Repos\SF2_Eth_FFT\Softconsole\FFT_Accelerator\Debug/../firmware/drivers/mss_uart/mss_uart.c:1518
    /* set default RX endian */
    clear_bit_reg8(&this_uart->hw_reg->MM1,E_MSB_RX);
20001d44:	68fb      	ldr	r3, [r7, #12]
20001d46:	681b      	ldr	r3, [r3, #0]
20001d48:	3334      	adds	r3, #52	; 0x34
20001d4a:	2100      	movs	r1, #0
20001d4c:	4618      	mov	r0, r3
20001d4e:	f7ff fcee 	bl	2000172e <clear_bit_reg8>
E:\Github_Repos\SF2_Eth_FFT\Softconsole\FFT_Accelerator\Debug/../firmware/drivers/mss_uart/mss_uart.c:1521

    /* default AFM : disabled */
    clear_bit_reg8(&this_uart->hw_reg->MM2,EAFM);
20001d52:	68fb      	ldr	r3, [r7, #12]
20001d54:	681b      	ldr	r3, [r3, #0]
20001d56:	3338      	adds	r3, #56	; 0x38
20001d58:	2101      	movs	r1, #1
20001d5a:	4618      	mov	r0, r3
20001d5c:	f7ff fce7 	bl	2000172e <clear_bit_reg8>
E:\Github_Repos\SF2_Eth_FFT\Softconsole\FFT_Accelerator\Debug/../firmware/drivers/mss_uart/mss_uart.c:1524

    /* disable TX time gaurd */
    clear_bit_reg8(&this_uart->hw_reg->MM0,ETTG); 
20001d60:	68fb      	ldr	r3, [r7, #12]
20001d62:	681b      	ldr	r3, [r3, #0]
20001d64:	3330      	adds	r3, #48	; 0x30
20001d66:	2105      	movs	r1, #5
20001d68:	4618      	mov	r0, r3
20001d6a:	f7ff fce0 	bl	2000172e <clear_bit_reg8>
E:\Github_Repos\SF2_Eth_FFT\Softconsole\FFT_Accelerator\Debug/../firmware/drivers/mss_uart/mss_uart.c:1527

    /* set default RX timeout */
    clear_bit_reg8(&this_uart->hw_reg->MM0,ERTO); 
20001d6e:	68fb      	ldr	r3, [r7, #12]
20001d70:	681b      	ldr	r3, [r3, #0]
20001d72:	3330      	adds	r3, #48	; 0x30
20001d74:	2106      	movs	r1, #6
20001d76:	4618      	mov	r0, r3
20001d78:	f7ff fcd9 	bl	2000172e <clear_bit_reg8>
E:\Github_Repos\SF2_Eth_FFT\Softconsole\FFT_Accelerator\Debug/../firmware/drivers/mss_uart/mss_uart.c:1530

    /* disable fractional baud-rate */
    clear_bit_reg8(&this_uart->hw_reg->MM0,EFBR); 
20001d7c:	68fb      	ldr	r3, [r7, #12]
20001d7e:	681b      	ldr	r3, [r3, #0]
20001d80:	3330      	adds	r3, #48	; 0x30
20001d82:	2107      	movs	r1, #7
20001d84:	4618      	mov	r0, r3
20001d86:	f7ff fcd2 	bl	2000172e <clear_bit_reg8>
E:\Github_Repos\SF2_Eth_FFT\Softconsole\FFT_Accelerator\Debug/../firmware/drivers/mss_uart/mss_uart.c:1533

    /* disable single wire mode */
    clear_bit_reg8(&this_uart->hw_reg->MM2,ESWM);
20001d8a:	68fb      	ldr	r3, [r7, #12]
20001d8c:	681b      	ldr	r3, [r3, #0]
20001d8e:	3338      	adds	r3, #56	; 0x38
20001d90:	2103      	movs	r1, #3
20001d92:	4618      	mov	r0, r3
20001d94:	f7ff fccb 	bl	2000172e <clear_bit_reg8>
E:\Github_Repos\SF2_Eth_FFT\Softconsole\FFT_Accelerator\Debug/../firmware/drivers/mss_uart/mss_uart.c:1536

    /* set filter to minimum value */
    this_uart->hw_reg->GFR = 0u;
20001d98:	68fb      	ldr	r3, [r7, #12]
20001d9a:	681b      	ldr	r3, [r3, #0]
20001d9c:	2200      	movs	r2, #0
20001d9e:	f883 2044 	strb.w	r2, [r3, #68]	; 0x44
E:\Github_Repos\SF2_Eth_FFT\Softconsole\FFT_Accelerator\Debug/../firmware/drivers/mss_uart/mss_uart.c:1538
    /* set default TX time gaurd */
    this_uart->hw_reg->TTG = 0u;
20001da2:	68fb      	ldr	r3, [r7, #12]
20001da4:	681b      	ldr	r3, [r3, #0]
20001da6:	2200      	movs	r2, #0
20001da8:	f883 2048 	strb.w	r2, [r3, #72]	; 0x48
E:\Github_Repos\SF2_Eth_FFT\Softconsole\FFT_Accelerator\Debug/../firmware/drivers/mss_uart/mss_uart.c:1540
    /* set default RX timeout */
    this_uart->hw_reg->RTO = 0u;
20001dac:	68fb      	ldr	r3, [r7, #12]
20001dae:	681b      	ldr	r3, [r3, #0]
20001db0:	2200      	movs	r2, #0
20001db2:	f883 204c 	strb.w	r2, [r3, #76]	; 0x4c
E:\Github_Repos\SF2_Eth_FFT\Softconsole\FFT_Accelerator\Debug/../firmware/drivers/mss_uart/mss_uart.c:1546
    
    /* 
     * Configure baud rate divisors. This uses the frational baud rate divisor
     * where possible to provide the most accurate baud rat possible.
     */
    config_baud_divisors(this_uart, baud_rate);
20001db6:	68b9      	ldr	r1, [r7, #8]
20001db8:	68f8      	ldr	r0, [r7, #12]
20001dba:	f7ff feab 	bl	20001b14 <config_baud_divisors>
E:\Github_Repos\SF2_Eth_FFT\Softconsole\FFT_Accelerator\Debug/../firmware/drivers/mss_uart/mss_uart.c:1549

    /* set the line control register (bit length, stop bits, parity) */
    this_uart->hw_reg->LCR = line_config;
20001dbe:	68fb      	ldr	r3, [r7, #12]
20001dc0:	681b      	ldr	r3, [r3, #0]
20001dc2:	79fa      	ldrb	r2, [r7, #7]
20001dc4:	731a      	strb	r2, [r3, #12]
E:\Github_Repos\SF2_Eth_FFT\Softconsole\FFT_Accelerator\Debug/../firmware/drivers/mss_uart/mss_uart.c:1552

    /* Instance setup */
    this_uart->baudrate = baud_rate;
20001dc6:	68fb      	ldr	r3, [r7, #12]
20001dc8:	68ba      	ldr	r2, [r7, #8]
20001dca:	609a      	str	r2, [r3, #8]
E:\Github_Repos\SF2_Eth_FFT\Softconsole\FFT_Accelerator\Debug/../firmware/drivers/mss_uart/mss_uart.c:1553
    this_uart->lineconfig = line_config;
20001dcc:	68fb      	ldr	r3, [r7, #12]
20001dce:	79fa      	ldrb	r2, [r7, #7]
20001dd0:	731a      	strb	r2, [r3, #12]
E:\Github_Repos\SF2_Eth_FFT\Softconsole\FFT_Accelerator\Debug/../firmware/drivers/mss_uart/mss_uart.c:1554
    this_uart->tx_buff_size = TX_COMPLETE;
20001dd2:	68fb      	ldr	r3, [r7, #12]
20001dd4:	2200      	movs	r2, #0
20001dd6:	615a      	str	r2, [r3, #20]
E:\Github_Repos\SF2_Eth_FFT\Softconsole\FFT_Accelerator\Debug/../firmware/drivers/mss_uart/mss_uart.c:1555
    this_uart->tx_buffer = (const uint8_t *)0;
20001dd8:	68fb      	ldr	r3, [r7, #12]
20001dda:	2200      	movs	r2, #0
20001ddc:	611a      	str	r2, [r3, #16]
E:\Github_Repos\SF2_Eth_FFT\Softconsole\FFT_Accelerator\Debug/../firmware/drivers/mss_uart/mss_uart.c:1556
    this_uart->tx_idx = 0u;
20001dde:	68fb      	ldr	r3, [r7, #12]
20001de0:	2200      	movs	r2, #0
20001de2:	619a      	str	r2, [r3, #24]
E:\Github_Repos\SF2_Eth_FFT\Softconsole\FFT_Accelerator\Debug/../firmware/drivers/mss_uart/mss_uart.c:1559

    /* Default handlers for MSS UART interrupts */
    this_uart->rx_handler       = NULL_HANDLER;
20001de4:	68fb      	ldr	r3, [r7, #12]
20001de6:	2200      	movs	r2, #0
20001de8:	621a      	str	r2, [r3, #32]
E:\Github_Repos\SF2_Eth_FFT\Softconsole\FFT_Accelerator\Debug/../firmware/drivers/mss_uart/mss_uart.c:1560
    this_uart->tx_handler       = NULL_HANDLER;
20001dea:	68fb      	ldr	r3, [r7, #12]
20001dec:	2200      	movs	r2, #0
20001dee:	625a      	str	r2, [r3, #36]	; 0x24
E:\Github_Repos\SF2_Eth_FFT\Softconsole\FFT_Accelerator\Debug/../firmware/drivers/mss_uart/mss_uart.c:1561
    this_uart->linests_handler  = NULL_HANDLER;
20001df0:	68fb      	ldr	r3, [r7, #12]
20001df2:	2200      	movs	r2, #0
20001df4:	61da      	str	r2, [r3, #28]
E:\Github_Repos\SF2_Eth_FFT\Softconsole\FFT_Accelerator\Debug/../firmware/drivers/mss_uart/mss_uart.c:1562
    this_uart->modemsts_handler = NULL_HANDLER;
20001df6:	68fb      	ldr	r3, [r7, #12]
20001df8:	2200      	movs	r2, #0
20001dfa:	629a      	str	r2, [r3, #40]	; 0x28
E:\Github_Repos\SF2_Eth_FFT\Softconsole\FFT_Accelerator\Debug/../firmware/drivers/mss_uart/mss_uart.c:1563
    this_uart->rto_handler      = NULL_HANDLER;    
20001dfc:	68fb      	ldr	r3, [r7, #12]
20001dfe:	2200      	movs	r2, #0
20001e00:	62da      	str	r2, [r3, #44]	; 0x2c
E:\Github_Repos\SF2_Eth_FFT\Softconsole\FFT_Accelerator\Debug/../firmware/drivers/mss_uart/mss_uart.c:1564
    this_uart->nack_handler     = NULL_HANDLER;   
20001e02:	68fb      	ldr	r3, [r7, #12]
20001e04:	2200      	movs	r2, #0
20001e06:	631a      	str	r2, [r3, #48]	; 0x30
E:\Github_Repos\SF2_Eth_FFT\Softconsole\FFT_Accelerator\Debug/../firmware/drivers/mss_uart/mss_uart.c:1565
    this_uart->pid_pei_handler  = NULL_HANDLER;
20001e08:	68fb      	ldr	r3, [r7, #12]
20001e0a:	2200      	movs	r2, #0
20001e0c:	635a      	str	r2, [r3, #52]	; 0x34
E:\Github_Repos\SF2_Eth_FFT\Softconsole\FFT_Accelerator\Debug/../firmware/drivers/mss_uart/mss_uart.c:1566
    this_uart->break_handler    = NULL_HANDLER;    
20001e0e:	68fb      	ldr	r3, [r7, #12]
20001e10:	2200      	movs	r2, #0
20001e12:	639a      	str	r2, [r3, #56]	; 0x38
E:\Github_Repos\SF2_Eth_FFT\Softconsole\FFT_Accelerator\Debug/../firmware/drivers/mss_uart/mss_uart.c:1567
    this_uart->sync_handler     = NULL_HANDLER;   
20001e14:	68fb      	ldr	r3, [r7, #12]
20001e16:	2200      	movs	r2, #0
20001e18:	63da      	str	r2, [r3, #60]	; 0x3c
E:\Github_Repos\SF2_Eth_FFT\Softconsole\FFT_Accelerator\Debug/../firmware/drivers/mss_uart/mss_uart.c:1570

    /* Initialize the sticky status */
    this_uart->status = 0u;
20001e1a:	68fb      	ldr	r3, [r7, #12]
20001e1c:	2200      	movs	r2, #0
20001e1e:	735a      	strb	r2, [r3, #13]
E:\Github_Repos\SF2_Eth_FFT\Softconsole\FFT_Accelerator\Debug/../firmware/drivers/mss_uart/mss_uart.c:1571
}
20001e20:	bf00      	nop
20001e22:	3710      	adds	r7, #16
20001e24:	46bd      	mov	sp, r7
20001e26:	bd80      	pop	{r7, pc}
20001e28:	200081a0 	.word	0x200081a0
20001e2c:	20008160 	.word	0x20008160
20001e30:	40038000 	.word	0x40038000
20001e34:	40010000 	.word	0x40010000

20001e38 <MSS_UART_isr>:
MSS_UART_isr():
E:\Github_Repos\SF2_Eth_FFT\Softconsole\FFT_Accelerator\Debug/../firmware/drivers/mss_uart/mss_uart.c:1586
static void
MSS_UART_isr
(
    mss_uart_instance_t * this_uart
)
{
20001e38:	b580      	push	{r7, lr}
20001e3a:	b084      	sub	sp, #16
20001e3c:	af00      	add	r7, sp, #0
20001e3e:	6078      	str	r0, [r7, #4]
E:\Github_Repos\SF2_Eth_FFT\Softconsole\FFT_Accelerator\Debug/../firmware/drivers/mss_uart/mss_uart.c:1589
    uint8_t iirf;

    ASSERT((this_uart == &g_mss_uart0) || (this_uart == &g_mss_uart1));
20001e40:	687b      	ldr	r3, [r7, #4]
20001e42:	4a7d      	ldr	r2, [pc, #500]	; (20002038 <MSS_UART_isr+0x200>)
20001e44:	4293      	cmp	r3, r2
20001e46:	d004      	beq.n	20001e52 <MSS_UART_isr+0x1a>
E:\Github_Repos\SF2_Eth_FFT\Softconsole\FFT_Accelerator\Debug/../firmware/drivers/mss_uart/mss_uart.c:1589 (discriminator 1)
20001e48:	687b      	ldr	r3, [r7, #4]
20001e4a:	4a7c      	ldr	r2, [pc, #496]	; (2000203c <MSS_UART_isr+0x204>)
20001e4c:	4293      	cmp	r3, r2
20001e4e:	d000      	beq.n	20001e52 <MSS_UART_isr+0x1a>
E:\Github_Repos\SF2_Eth_FFT\Softconsole\FFT_Accelerator\Debug/../firmware/drivers/mss_uart/mss_uart.c:1589 (discriminator 2)
20001e50:	be00      	bkpt	0x0000
E:\Github_Repos\SF2_Eth_FFT\Softconsole\FFT_Accelerator\Debug/../firmware/drivers/mss_uart/mss_uart.c:1591

    if((this_uart == &g_mss_uart0) || (this_uart == &g_mss_uart1))
20001e52:	687b      	ldr	r3, [r7, #4]
20001e54:	4a78      	ldr	r2, [pc, #480]	; (20002038 <MSS_UART_isr+0x200>)
20001e56:	4293      	cmp	r3, r2
20001e58:	d004      	beq.n	20001e64 <MSS_UART_isr+0x2c>
E:\Github_Repos\SF2_Eth_FFT\Softconsole\FFT_Accelerator\Debug/../firmware/drivers/mss_uart/mss_uart.c:1591 (discriminator 1)
20001e5a:	687b      	ldr	r3, [r7, #4]
20001e5c:	4a77      	ldr	r2, [pc, #476]	; (2000203c <MSS_UART_isr+0x204>)
20001e5e:	4293      	cmp	r3, r2
20001e60:	f040 80da 	bne.w	20002018 <MSS_UART_isr+0x1e0>
E:\Github_Repos\SF2_Eth_FFT\Softconsole\FFT_Accelerator\Debug/../firmware/drivers/mss_uart/mss_uart.c:1593
    {
        iirf = this_uart->hw_reg->IIR & IIRF_MASK;
20001e64:	687b      	ldr	r3, [r7, #4]
20001e66:	681b      	ldr	r3, [r3, #0]
20001e68:	7a1b      	ldrb	r3, [r3, #8]
20001e6a:	b2db      	uxtb	r3, r3
20001e6c:	f003 030f 	and.w	r3, r3, #15
20001e70:	73fb      	strb	r3, [r7, #15]
E:\Github_Repos\SF2_Eth_FFT\Softconsole\FFT_Accelerator\Debug/../firmware/drivers/mss_uart/mss_uart.c:1595

        switch (iirf)
20001e72:	7bfb      	ldrb	r3, [r7, #15]
20001e74:	2b0c      	cmp	r3, #12
20001e76:	f200 80cd 	bhi.w	20002014 <MSS_UART_isr+0x1dc>
20001e7a:	a201      	add	r2, pc, #4	; (adr r2, 20001e80 <MSS_UART_isr+0x48>)
20001e7c:	f852 f023 	ldr.w	pc, [r2, r3, lsl #2]
20001e80:	20001eb5 	.word	0x20001eb5
20001e84:	20002015 	.word	0x20002015
20001e88:	20001ed3 	.word	0x20001ed3
20001e8c:	20001f2d 	.word	0x20001f2d
20001e90:	20001ef1 	.word	0x20001ef1
20001e94:	20002015 	.word	0x20002015
20001e98:	20001f0f 	.word	0x20001f0f
20001e9c:	20002015 	.word	0x20002015
20001ea0:	20002015 	.word	0x20002015
20001ea4:	20002015 	.word	0x20002015
20001ea8:	20002015 	.word	0x20002015
20001eac:	20002015 	.word	0x20002015
20001eb0:	20001ef1 	.word	0x20001ef1
E:\Github_Repos\SF2_Eth_FFT\Softconsole\FFT_Accelerator\Debug/../firmware/drivers/mss_uart/mss_uart.c:1599
        {
            case IIRF_MODEM_STATUS:  /* Modem status interrupt */
            {
                ASSERT(NULL_HANDLER != this_uart->modemsts_handler);
20001eb4:	687b      	ldr	r3, [r7, #4]
20001eb6:	6a9b      	ldr	r3, [r3, #40]	; 0x28
20001eb8:	2b00      	cmp	r3, #0
20001eba:	d100      	bne.n	20001ebe <MSS_UART_isr+0x86>
E:\Github_Repos\SF2_Eth_FFT\Softconsole\FFT_Accelerator\Debug/../firmware/drivers/mss_uart/mss_uart.c:1599 (discriminator 1)
20001ebc:	be00      	bkpt	0x0000
E:\Github_Repos\SF2_Eth_FFT\Softconsole\FFT_Accelerator\Debug/../firmware/drivers/mss_uart/mss_uart.c:1600
                if(NULL_HANDLER != this_uart->modemsts_handler)
20001ebe:	687b      	ldr	r3, [r7, #4]
20001ec0:	6a9b      	ldr	r3, [r3, #40]	; 0x28
20001ec2:	2b00      	cmp	r3, #0
20001ec4:	f000 80aa 	beq.w	2000201c <MSS_UART_isr+0x1e4>
E:\Github_Repos\SF2_Eth_FFT\Softconsole\FFT_Accelerator\Debug/../firmware/drivers/mss_uart/mss_uart.c:1602
                {
                   (*(this_uart->modemsts_handler))(this_uart);
20001ec8:	687b      	ldr	r3, [r7, #4]
20001eca:	6a9b      	ldr	r3, [r3, #40]	; 0x28
20001ecc:	6878      	ldr	r0, [r7, #4]
20001ece:	4798      	blx	r3
E:\Github_Repos\SF2_Eth_FFT\Softconsole\FFT_Accelerator\Debug/../firmware/drivers/mss_uart/mss_uart.c:1605
                }
            }
            break;
20001ed0:	e0a4      	b.n	2000201c <MSS_UART_isr+0x1e4>
E:\Github_Repos\SF2_Eth_FFT\Softconsole\FFT_Accelerator\Debug/../firmware/drivers/mss_uart/mss_uart.c:1609

            case IIRF_THRE: /* Transmitter Holding Register Empty */
            {
                ASSERT(NULL_HANDLER != this_uart->tx_handler);
20001ed2:	687b      	ldr	r3, [r7, #4]
20001ed4:	6a5b      	ldr	r3, [r3, #36]	; 0x24
20001ed6:	2b00      	cmp	r3, #0
20001ed8:	d100      	bne.n	20001edc <MSS_UART_isr+0xa4>
E:\Github_Repos\SF2_Eth_FFT\Softconsole\FFT_Accelerator\Debug/../firmware/drivers/mss_uart/mss_uart.c:1609 (discriminator 1)
20001eda:	be00      	bkpt	0x0000
E:\Github_Repos\SF2_Eth_FFT\Softconsole\FFT_Accelerator\Debug/../firmware/drivers/mss_uart/mss_uart.c:1610
                if(NULL_HANDLER != this_uart->tx_handler)
20001edc:	687b      	ldr	r3, [r7, #4]
20001ede:	6a5b      	ldr	r3, [r3, #36]	; 0x24
20001ee0:	2b00      	cmp	r3, #0
20001ee2:	f000 809d 	beq.w	20002020 <MSS_UART_isr+0x1e8>
E:\Github_Repos\SF2_Eth_FFT\Softconsole\FFT_Accelerator\Debug/../firmware/drivers/mss_uart/mss_uart.c:1612
                {
                    (*(this_uart->tx_handler))(this_uart);
20001ee6:	687b      	ldr	r3, [r7, #4]
20001ee8:	6a5b      	ldr	r3, [r3, #36]	; 0x24
20001eea:	6878      	ldr	r0, [r7, #4]
20001eec:	4798      	blx	r3
E:\Github_Repos\SF2_Eth_FFT\Softconsole\FFT_Accelerator\Debug/../firmware/drivers/mss_uart/mss_uart.c:1615
                }
            }
            break;
20001eee:	e097      	b.n	20002020 <MSS_UART_isr+0x1e8>
E:\Github_Repos\SF2_Eth_FFT\Softconsole\FFT_Accelerator\Debug/../firmware/drivers/mss_uart/mss_uart.c:1620

            case IIRF_RX_DATA:      /* Received Data Available */
            case IIRF_DATA_TIMEOUT: /* Received Data Timed-out */
            {
                ASSERT(NULL_HANDLER != this_uart->rx_handler);
20001ef0:	687b      	ldr	r3, [r7, #4]
20001ef2:	6a1b      	ldr	r3, [r3, #32]
20001ef4:	2b00      	cmp	r3, #0
20001ef6:	d100      	bne.n	20001efa <MSS_UART_isr+0xc2>
E:\Github_Repos\SF2_Eth_FFT\Softconsole\FFT_Accelerator\Debug/../firmware/drivers/mss_uart/mss_uart.c:1620 (discriminator 1)
20001ef8:	be00      	bkpt	0x0000
E:\Github_Repos\SF2_Eth_FFT\Softconsole\FFT_Accelerator\Debug/../firmware/drivers/mss_uart/mss_uart.c:1621
                if(NULL_HANDLER != this_uart->rx_handler)
20001efa:	687b      	ldr	r3, [r7, #4]
20001efc:	6a1b      	ldr	r3, [r3, #32]
20001efe:	2b00      	cmp	r3, #0
20001f00:	f000 8090 	beq.w	20002024 <MSS_UART_isr+0x1ec>
E:\Github_Repos\SF2_Eth_FFT\Softconsole\FFT_Accelerator\Debug/../firmware/drivers/mss_uart/mss_uart.c:1623
                {
                    (*(this_uart->rx_handler))(this_uart);
20001f04:	687b      	ldr	r3, [r7, #4]
20001f06:	6a1b      	ldr	r3, [r3, #32]
20001f08:	6878      	ldr	r0, [r7, #4]
20001f0a:	4798      	blx	r3
E:\Github_Repos\SF2_Eth_FFT\Softconsole\FFT_Accelerator\Debug/../firmware/drivers/mss_uart/mss_uart.c:1626
                }
            }
            break;
20001f0c:	e08a      	b.n	20002024 <MSS_UART_isr+0x1ec>
E:\Github_Repos\SF2_Eth_FFT\Softconsole\FFT_Accelerator\Debug/../firmware/drivers/mss_uart/mss_uart.c:1630

            case IIRF_RX_LINE_STATUS:  /* Line Status Interrupt */
            {
                ASSERT(NULL_HANDLER != this_uart->linests_handler);
20001f0e:	687b      	ldr	r3, [r7, #4]
20001f10:	69db      	ldr	r3, [r3, #28]
20001f12:	2b00      	cmp	r3, #0
20001f14:	d100      	bne.n	20001f18 <MSS_UART_isr+0xe0>
E:\Github_Repos\SF2_Eth_FFT\Softconsole\FFT_Accelerator\Debug/../firmware/drivers/mss_uart/mss_uart.c:1630 (discriminator 1)
20001f16:	be00      	bkpt	0x0000
E:\Github_Repos\SF2_Eth_FFT\Softconsole\FFT_Accelerator\Debug/../firmware/drivers/mss_uart/mss_uart.c:1631
                if(NULL_HANDLER != this_uart->linests_handler)
20001f18:	687b      	ldr	r3, [r7, #4]
20001f1a:	69db      	ldr	r3, [r3, #28]
20001f1c:	2b00      	cmp	r3, #0
20001f1e:	f000 8083 	beq.w	20002028 <MSS_UART_isr+0x1f0>
E:\Github_Repos\SF2_Eth_FFT\Softconsole\FFT_Accelerator\Debug/../firmware/drivers/mss_uart/mss_uart.c:1633
                {
                   (*(this_uart->linests_handler))(this_uart);
20001f22:	687b      	ldr	r3, [r7, #4]
20001f24:	69db      	ldr	r3, [r3, #28]
20001f26:	6878      	ldr	r0, [r7, #4]
20001f28:	4798      	blx	r3
E:\Github_Repos\SF2_Eth_FFT\Softconsole\FFT_Accelerator\Debug/../firmware/drivers/mss_uart/mss_uart.c:1636
                }
            }
            break;
20001f2a:	e07d      	b.n	20002028 <MSS_UART_isr+0x1f0>
E:\Github_Repos\SF2_Eth_FFT\Softconsole\FFT_Accelerator\Debug/../firmware/drivers/mss_uart/mss_uart.c:1643
            case IIRF_MMI:
            {
                /* Identify multimode interrupts and handle */

                /* Receiver time-out interrupt */
                if(read_bit_reg8(&this_uart->hw_reg->IIM,ERTOI))
20001f2c:	687b      	ldr	r3, [r7, #4]
20001f2e:	681b      	ldr	r3, [r3, #0]
20001f30:	3328      	adds	r3, #40	; 0x28
20001f32:	2100      	movs	r1, #0
20001f34:	4618      	mov	r0, r3
20001f36:	f7ff fc17 	bl	20001768 <read_bit_reg8>
20001f3a:	4603      	mov	r3, r0
20001f3c:	2b00      	cmp	r3, #0
20001f3e:	d00c      	beq.n	20001f5a <MSS_UART_isr+0x122>
E:\Github_Repos\SF2_Eth_FFT\Softconsole\FFT_Accelerator\Debug/../firmware/drivers/mss_uart/mss_uart.c:1645
                {
                    ASSERT(NULL_HANDLER != this_uart->rto_handler);
20001f40:	687b      	ldr	r3, [r7, #4]
20001f42:	6adb      	ldr	r3, [r3, #44]	; 0x2c
20001f44:	2b00      	cmp	r3, #0
20001f46:	d100      	bne.n	20001f4a <MSS_UART_isr+0x112>
E:\Github_Repos\SF2_Eth_FFT\Softconsole\FFT_Accelerator\Debug/../firmware/drivers/mss_uart/mss_uart.c:1645 (discriminator 1)
20001f48:	be00      	bkpt	0x0000
E:\Github_Repos\SF2_Eth_FFT\Softconsole\FFT_Accelerator\Debug/../firmware/drivers/mss_uart/mss_uart.c:1646
                    if(NULL_HANDLER != this_uart->rto_handler)
20001f4a:	687b      	ldr	r3, [r7, #4]
20001f4c:	6adb      	ldr	r3, [r3, #44]	; 0x2c
20001f4e:	2b00      	cmp	r3, #0
20001f50:	d003      	beq.n	20001f5a <MSS_UART_isr+0x122>
E:\Github_Repos\SF2_Eth_FFT\Softconsole\FFT_Accelerator\Debug/../firmware/drivers/mss_uart/mss_uart.c:1648
                    {
                        (*(this_uart->rto_handler))(this_uart);
20001f52:	687b      	ldr	r3, [r7, #4]
20001f54:	6adb      	ldr	r3, [r3, #44]	; 0x2c
20001f56:	6878      	ldr	r0, [r7, #4]
20001f58:	4798      	blx	r3
E:\Github_Repos\SF2_Eth_FFT\Softconsole\FFT_Accelerator\Debug/../firmware/drivers/mss_uart/mss_uart.c:1652
                    }
                }
                /* NACK interrupt */
                if(read_bit_reg8(&this_uart->hw_reg->IIM,ENACKI))
20001f5a:	687b      	ldr	r3, [r7, #4]
20001f5c:	681b      	ldr	r3, [r3, #0]
20001f5e:	3328      	adds	r3, #40	; 0x28
20001f60:	2101      	movs	r1, #1
20001f62:	4618      	mov	r0, r3
20001f64:	f7ff fc00 	bl	20001768 <read_bit_reg8>
20001f68:	4603      	mov	r3, r0
20001f6a:	2b00      	cmp	r3, #0
20001f6c:	d00c      	beq.n	20001f88 <MSS_UART_isr+0x150>
E:\Github_Repos\SF2_Eth_FFT\Softconsole\FFT_Accelerator\Debug/../firmware/drivers/mss_uart/mss_uart.c:1654
                {
                    ASSERT(NULL_HANDLER != this_uart->nack_handler);
20001f6e:	687b      	ldr	r3, [r7, #4]
20001f70:	6b1b      	ldr	r3, [r3, #48]	; 0x30
20001f72:	2b00      	cmp	r3, #0
20001f74:	d100      	bne.n	20001f78 <MSS_UART_isr+0x140>
E:\Github_Repos\SF2_Eth_FFT\Softconsole\FFT_Accelerator\Debug/../firmware/drivers/mss_uart/mss_uart.c:1654 (discriminator 1)
20001f76:	be00      	bkpt	0x0000
E:\Github_Repos\SF2_Eth_FFT\Softconsole\FFT_Accelerator\Debug/../firmware/drivers/mss_uart/mss_uart.c:1655
                    if(NULL_HANDLER != this_uart->nack_handler)
20001f78:	687b      	ldr	r3, [r7, #4]
20001f7a:	6b1b      	ldr	r3, [r3, #48]	; 0x30
20001f7c:	2b00      	cmp	r3, #0
20001f7e:	d003      	beq.n	20001f88 <MSS_UART_isr+0x150>
E:\Github_Repos\SF2_Eth_FFT\Softconsole\FFT_Accelerator\Debug/../firmware/drivers/mss_uart/mss_uart.c:1657
                    {
                        (*(this_uart->nack_handler))(this_uart);
20001f80:	687b      	ldr	r3, [r7, #4]
20001f82:	6b1b      	ldr	r3, [r3, #48]	; 0x30
20001f84:	6878      	ldr	r0, [r7, #4]
20001f86:	4798      	blx	r3
E:\Github_Repos\SF2_Eth_FFT\Softconsole\FFT_Accelerator\Debug/../firmware/drivers/mss_uart/mss_uart.c:1662
                    }
                }

                /* PID parity error interrupt */
                if(read_bit_reg8(&this_uart->hw_reg->IIM,EPID_PEI))
20001f88:	687b      	ldr	r3, [r7, #4]
20001f8a:	681b      	ldr	r3, [r3, #0]
20001f8c:	3328      	adds	r3, #40	; 0x28
20001f8e:	2102      	movs	r1, #2
20001f90:	4618      	mov	r0, r3
20001f92:	f7ff fbe9 	bl	20001768 <read_bit_reg8>
20001f96:	4603      	mov	r3, r0
20001f98:	2b00      	cmp	r3, #0
20001f9a:	d00c      	beq.n	20001fb6 <MSS_UART_isr+0x17e>
E:\Github_Repos\SF2_Eth_FFT\Softconsole\FFT_Accelerator\Debug/../firmware/drivers/mss_uart/mss_uart.c:1664
                {
                    ASSERT(NULL_HANDLER != this_uart->pid_pei_handler);
20001f9c:	687b      	ldr	r3, [r7, #4]
20001f9e:	6b5b      	ldr	r3, [r3, #52]	; 0x34
20001fa0:	2b00      	cmp	r3, #0
20001fa2:	d100      	bne.n	20001fa6 <MSS_UART_isr+0x16e>
E:\Github_Repos\SF2_Eth_FFT\Softconsole\FFT_Accelerator\Debug/../firmware/drivers/mss_uart/mss_uart.c:1664 (discriminator 1)
20001fa4:	be00      	bkpt	0x0000
E:\Github_Repos\SF2_Eth_FFT\Softconsole\FFT_Accelerator\Debug/../firmware/drivers/mss_uart/mss_uart.c:1665
                    if(NULL_HANDLER != this_uart->pid_pei_handler)
20001fa6:	687b      	ldr	r3, [r7, #4]
20001fa8:	6b5b      	ldr	r3, [r3, #52]	; 0x34
20001faa:	2b00      	cmp	r3, #0
20001fac:	d003      	beq.n	20001fb6 <MSS_UART_isr+0x17e>
E:\Github_Repos\SF2_Eth_FFT\Softconsole\FFT_Accelerator\Debug/../firmware/drivers/mss_uart/mss_uart.c:1667
                    {
                        (*(this_uart->pid_pei_handler))(this_uart);
20001fae:	687b      	ldr	r3, [r7, #4]
20001fb0:	6b5b      	ldr	r3, [r3, #52]	; 0x34
20001fb2:	6878      	ldr	r0, [r7, #4]
20001fb4:	4798      	blx	r3
E:\Github_Repos\SF2_Eth_FFT\Softconsole\FFT_Accelerator\Debug/../firmware/drivers/mss_uart/mss_uart.c:1672
                    }
                }

                /* LIN break detection interrupt */
                if(read_bit_reg8(&this_uart->hw_reg->IIM,ELINBI))
20001fb6:	687b      	ldr	r3, [r7, #4]
20001fb8:	681b      	ldr	r3, [r3, #0]
20001fba:	3328      	adds	r3, #40	; 0x28
20001fbc:	2103      	movs	r1, #3
20001fbe:	4618      	mov	r0, r3
20001fc0:	f7ff fbd2 	bl	20001768 <read_bit_reg8>
20001fc4:	4603      	mov	r3, r0
20001fc6:	2b00      	cmp	r3, #0
20001fc8:	d00c      	beq.n	20001fe4 <MSS_UART_isr+0x1ac>
E:\Github_Repos\SF2_Eth_FFT\Softconsole\FFT_Accelerator\Debug/../firmware/drivers/mss_uart/mss_uart.c:1674
                {
                    ASSERT(NULL_HANDLER != this_uart->break_handler);
20001fca:	687b      	ldr	r3, [r7, #4]
20001fcc:	6b9b      	ldr	r3, [r3, #56]	; 0x38
20001fce:	2b00      	cmp	r3, #0
20001fd0:	d100      	bne.n	20001fd4 <MSS_UART_isr+0x19c>
E:\Github_Repos\SF2_Eth_FFT\Softconsole\FFT_Accelerator\Debug/../firmware/drivers/mss_uart/mss_uart.c:1674 (discriminator 1)
20001fd2:	be00      	bkpt	0x0000
E:\Github_Repos\SF2_Eth_FFT\Softconsole\FFT_Accelerator\Debug/../firmware/drivers/mss_uart/mss_uart.c:1675
                    if(NULL_HANDLER != this_uart->break_handler)
20001fd4:	687b      	ldr	r3, [r7, #4]
20001fd6:	6b9b      	ldr	r3, [r3, #56]	; 0x38
20001fd8:	2b00      	cmp	r3, #0
20001fda:	d003      	beq.n	20001fe4 <MSS_UART_isr+0x1ac>
E:\Github_Repos\SF2_Eth_FFT\Softconsole\FFT_Accelerator\Debug/../firmware/drivers/mss_uart/mss_uart.c:1677
                    {
                        (*(this_uart->break_handler))(this_uart);
20001fdc:	687b      	ldr	r3, [r7, #4]
20001fde:	6b9b      	ldr	r3, [r3, #56]	; 0x38
20001fe0:	6878      	ldr	r0, [r7, #4]
20001fe2:	4798      	blx	r3
E:\Github_Repos\SF2_Eth_FFT\Softconsole\FFT_Accelerator\Debug/../firmware/drivers/mss_uart/mss_uart.c:1682
                    }
                }

                /* LIN Sync detection interrupt */
                if(read_bit_reg8(&this_uart->hw_reg->IIM,ELINSI))
20001fe4:	687b      	ldr	r3, [r7, #4]
20001fe6:	681b      	ldr	r3, [r3, #0]
20001fe8:	3328      	adds	r3, #40	; 0x28
20001fea:	2104      	movs	r1, #4
20001fec:	4618      	mov	r0, r3
20001fee:	f7ff fbbb 	bl	20001768 <read_bit_reg8>
20001ff2:	4603      	mov	r3, r0
20001ff4:	2b00      	cmp	r3, #0
20001ff6:	d019      	beq.n	2000202c <MSS_UART_isr+0x1f4>
E:\Github_Repos\SF2_Eth_FFT\Softconsole\FFT_Accelerator\Debug/../firmware/drivers/mss_uart/mss_uart.c:1684
                {
                    ASSERT(NULL_HANDLER != this_uart->sync_handler);
20001ff8:	687b      	ldr	r3, [r7, #4]
20001ffa:	6bdb      	ldr	r3, [r3, #60]	; 0x3c
20001ffc:	2b00      	cmp	r3, #0
20001ffe:	d100      	bne.n	20002002 <MSS_UART_isr+0x1ca>
E:\Github_Repos\SF2_Eth_FFT\Softconsole\FFT_Accelerator\Debug/../firmware/drivers/mss_uart/mss_uart.c:1684 (discriminator 1)
20002000:	be00      	bkpt	0x0000
E:\Github_Repos\SF2_Eth_FFT\Softconsole\FFT_Accelerator\Debug/../firmware/drivers/mss_uart/mss_uart.c:1685
                    if(NULL_HANDLER != this_uart->sync_handler)
20002002:	687b      	ldr	r3, [r7, #4]
20002004:	6bdb      	ldr	r3, [r3, #60]	; 0x3c
20002006:	2b00      	cmp	r3, #0
20002008:	d010      	beq.n	2000202c <MSS_UART_isr+0x1f4>
E:\Github_Repos\SF2_Eth_FFT\Softconsole\FFT_Accelerator\Debug/../firmware/drivers/mss_uart/mss_uart.c:1687
                    {
                        (*(this_uart->sync_handler))(this_uart);
2000200a:	687b      	ldr	r3, [r7, #4]
2000200c:	6bdb      	ldr	r3, [r3, #60]	; 0x3c
2000200e:	6878      	ldr	r0, [r7, #4]
20002010:	4798      	blx	r3
E:\Github_Repos\SF2_Eth_FFT\Softconsole\FFT_Accelerator\Debug/../firmware/drivers/mss_uart/mss_uart.c:1690
                    }
                }
                break;
20002012:	e00b      	b.n	2000202c <MSS_UART_isr+0x1f4>
E:\Github_Repos\SF2_Eth_FFT\Softconsole\FFT_Accelerator\Debug/../firmware/drivers/mss_uart/mss_uart.c:1695 (discriminator 1)
            }

            default:
            {
                ASSERT(INVALID_INTERRUPT);
20002014:	be00      	bkpt	0x0000
E:\Github_Repos\SF2_Eth_FFT\Softconsole\FFT_Accelerator\Debug/../firmware/drivers/mss_uart/mss_uart.c:1697 (discriminator 1)
            }
            break;
20002016:	e00a      	b.n	2000202e <MSS_UART_isr+0x1f6>
E:\Github_Repos\SF2_Eth_FFT\Softconsole\FFT_Accelerator\Debug/../firmware/drivers/mss_uart/mss_uart.c:1699
        }
    }
20002018:	bf00      	nop
2000201a:	e008      	b.n	2000202e <MSS_UART_isr+0x1f6>
E:\Github_Repos\SF2_Eth_FFT\Softconsole\FFT_Accelerator\Debug/../firmware/drivers/mss_uart/mss_uart.c:1605
            break;
2000201c:	bf00      	nop
2000201e:	e006      	b.n	2000202e <MSS_UART_isr+0x1f6>
E:\Github_Repos\SF2_Eth_FFT\Softconsole\FFT_Accelerator\Debug/../firmware/drivers/mss_uart/mss_uart.c:1615
            break;
20002020:	bf00      	nop
20002022:	e004      	b.n	2000202e <MSS_UART_isr+0x1f6>
E:\Github_Repos\SF2_Eth_FFT\Softconsole\FFT_Accelerator\Debug/../firmware/drivers/mss_uart/mss_uart.c:1626
            break;
20002024:	bf00      	nop
20002026:	e002      	b.n	2000202e <MSS_UART_isr+0x1f6>
E:\Github_Repos\SF2_Eth_FFT\Softconsole\FFT_Accelerator\Debug/../firmware/drivers/mss_uart/mss_uart.c:1636
            break;
20002028:	bf00      	nop
2000202a:	e000      	b.n	2000202e <MSS_UART_isr+0x1f6>
E:\Github_Repos\SF2_Eth_FFT\Softconsole\FFT_Accelerator\Debug/../firmware/drivers/mss_uart/mss_uart.c:1690
                break;
2000202c:	bf00      	nop
E:\Github_Repos\SF2_Eth_FFT\Softconsole\FFT_Accelerator\Debug/../firmware/drivers/mss_uart/mss_uart.c:1700
}
2000202e:	bf00      	nop
20002030:	3710      	adds	r7, #16
20002032:	46bd      	mov	sp, r7
20002034:	bd80      	pop	{r7, pc}
20002036:	bf00      	nop
20002038:	200081a0 	.word	0x200081a0
2000203c:	20008160 	.word	0x20008160

20002040 <default_tx_handler>:
default_tx_handler():
E:\Github_Repos\SF2_Eth_FFT\Softconsole\FFT_Accelerator\Debug/../firmware/drivers/mss_uart/mss_uart.c:1710
static void
default_tx_handler
(
    mss_uart_instance_t * this_uart
)
{
20002040:	b580      	push	{r7, lr}
20002042:	b086      	sub	sp, #24
20002044:	af00      	add	r7, sp, #0
20002046:	6078      	str	r0, [r7, #4]
E:\Github_Repos\SF2_Eth_FFT\Softconsole\FFT_Accelerator\Debug/../firmware/drivers/mss_uart/mss_uart.c:1713
    uint8_t status;

    ASSERT((this_uart == &g_mss_uart0) || (this_uart == &g_mss_uart1));
20002048:	687b      	ldr	r3, [r7, #4]
2000204a:	4a35      	ldr	r2, [pc, #212]	; (20002120 <default_tx_handler+0xe0>)
2000204c:	4293      	cmp	r3, r2
2000204e:	d004      	beq.n	2000205a <default_tx_handler+0x1a>
E:\Github_Repos\SF2_Eth_FFT\Softconsole\FFT_Accelerator\Debug/../firmware/drivers/mss_uart/mss_uart.c:1713 (discriminator 1)
20002050:	687b      	ldr	r3, [r7, #4]
20002052:	4a34      	ldr	r2, [pc, #208]	; (20002124 <default_tx_handler+0xe4>)
20002054:	4293      	cmp	r3, r2
20002056:	d000      	beq.n	2000205a <default_tx_handler+0x1a>
E:\Github_Repos\SF2_Eth_FFT\Softconsole\FFT_Accelerator\Debug/../firmware/drivers/mss_uart/mss_uart.c:1713 (discriminator 2)
20002058:	be00      	bkpt	0x0000
E:\Github_Repos\SF2_Eth_FFT\Softconsole\FFT_Accelerator\Debug/../firmware/drivers/mss_uart/mss_uart.c:1714
    ASSERT(( (uint8_t *)0 ) != this_uart->tx_buffer);
2000205a:	687b      	ldr	r3, [r7, #4]
2000205c:	691b      	ldr	r3, [r3, #16]
2000205e:	2b00      	cmp	r3, #0
20002060:	d100      	bne.n	20002064 <default_tx_handler+0x24>
E:\Github_Repos\SF2_Eth_FFT\Softconsole\FFT_Accelerator\Debug/../firmware/drivers/mss_uart/mss_uart.c:1714 (discriminator 1)
20002062:	be00      	bkpt	0x0000
E:\Github_Repos\SF2_Eth_FFT\Softconsole\FFT_Accelerator\Debug/../firmware/drivers/mss_uart/mss_uart.c:1715
    ASSERT(0u < this_uart->tx_buff_size);
20002064:	687b      	ldr	r3, [r7, #4]
20002066:	695b      	ldr	r3, [r3, #20]
20002068:	2b00      	cmp	r3, #0
2000206a:	d100      	bne.n	2000206e <default_tx_handler+0x2e>
E:\Github_Repos\SF2_Eth_FFT\Softconsole\FFT_Accelerator\Debug/../firmware/drivers/mss_uart/mss_uart.c:1715 (discriminator 1)
2000206c:	be00      	bkpt	0x0000
E:\Github_Repos\SF2_Eth_FFT\Softconsole\FFT_Accelerator\Debug/../firmware/drivers/mss_uart/mss_uart.c:1717

    if(((this_uart == &g_mss_uart0) || (this_uart == &g_mss_uart1)) &&
2000206e:	687b      	ldr	r3, [r7, #4]
20002070:	4a2b      	ldr	r2, [pc, #172]	; (20002120 <default_tx_handler+0xe0>)
20002072:	4293      	cmp	r3, r2
20002074:	d003      	beq.n	2000207e <default_tx_handler+0x3e>
E:\Github_Repos\SF2_Eth_FFT\Softconsole\FFT_Accelerator\Debug/../firmware/drivers/mss_uart/mss_uart.c:1717 (discriminator 2)
20002076:	687b      	ldr	r3, [r7, #4]
20002078:	4a2a      	ldr	r2, [pc, #168]	; (20002124 <default_tx_handler+0xe4>)
2000207a:	4293      	cmp	r3, r2
2000207c:	d14c      	bne.n	20002118 <default_tx_handler+0xd8>
E:\Github_Repos\SF2_Eth_FFT\Softconsole\FFT_Accelerator\Debug/../firmware/drivers/mss_uart/mss_uart.c:1718 (discriminator 3)
       (((uint8_t *)0 ) != this_uart->tx_buffer) &&
2000207e:	687b      	ldr	r3, [r7, #4]
20002080:	691b      	ldr	r3, [r3, #16]
E:\Github_Repos\SF2_Eth_FFT\Softconsole\FFT_Accelerator\Debug/../firmware/drivers/mss_uart/mss_uart.c:1717 (discriminator 3)
    if(((this_uart == &g_mss_uart0) || (this_uart == &g_mss_uart1)) &&
20002082:	2b00      	cmp	r3, #0
20002084:	d048      	beq.n	20002118 <default_tx_handler+0xd8>
E:\Github_Repos\SF2_Eth_FFT\Softconsole\FFT_Accelerator\Debug/../firmware/drivers/mss_uart/mss_uart.c:1719
       (0u < this_uart->tx_buff_size))
20002086:	687b      	ldr	r3, [r7, #4]
20002088:	695b      	ldr	r3, [r3, #20]
E:\Github_Repos\SF2_Eth_FFT\Softconsole\FFT_Accelerator\Debug/../firmware/drivers/mss_uart/mss_uart.c:1718
       (((uint8_t *)0 ) != this_uart->tx_buffer) &&
2000208a:	2b00      	cmp	r3, #0
2000208c:	d044      	beq.n	20002118 <default_tx_handler+0xd8>
E:\Github_Repos\SF2_Eth_FFT\Softconsole\FFT_Accelerator\Debug/../firmware/drivers/mss_uart/mss_uart.c:1722
    {
        /* Read the Line Status Register and update the sticky record. */
        status = this_uart->hw_reg->LSR;
2000208e:	687b      	ldr	r3, [r7, #4]
20002090:	681b      	ldr	r3, [r3, #0]
20002092:	7d1b      	ldrb	r3, [r3, #20]
20002094:	73fb      	strb	r3, [r7, #15]
E:\Github_Repos\SF2_Eth_FFT\Softconsole\FFT_Accelerator\Debug/../firmware/drivers/mss_uart/mss_uart.c:1723
        this_uart->status |= status;
20002096:	687b      	ldr	r3, [r7, #4]
20002098:	7b5a      	ldrb	r2, [r3, #13]
2000209a:	7bfb      	ldrb	r3, [r7, #15]
2000209c:	4313      	orrs	r3, r2
2000209e:	b2da      	uxtb	r2, r3
200020a0:	687b      	ldr	r3, [r7, #4]
200020a2:	735a      	strb	r2, [r3, #13]
E:\Github_Repos\SF2_Eth_FFT\Softconsole\FFT_Accelerator\Debug/../firmware/drivers/mss_uart/mss_uart.c:1729

        /*
         * This function should only be called as a result of a THRE interrupt.
         * Verify that this is true before proceeding to transmit data.
         */
        if(status & MSS_UART_THRE)
200020a4:	7bfb      	ldrb	r3, [r7, #15]
200020a6:	f003 0320 	and.w	r3, r3, #32
200020aa:	2b00      	cmp	r3, #0
200020ac:	d024      	beq.n	200020f8 <default_tx_handler+0xb8>
E:\Github_Repos\SF2_Eth_FFT\Softconsole\FFT_Accelerator\Debug/../firmware/drivers/mss_uart/mss_uart.c:1732
        {
            uint32_t i;
            uint32_t fill_size = TX_FIFO_SIZE;
200020ae:	2310      	movs	r3, #16
200020b0:	613b      	str	r3, [r7, #16]
E:\Github_Repos\SF2_Eth_FFT\Softconsole\FFT_Accelerator\Debug/../firmware/drivers/mss_uart/mss_uart.c:1733
            uint32_t tx_remain = this_uart->tx_buff_size - this_uart->tx_idx;
200020b2:	687b      	ldr	r3, [r7, #4]
200020b4:	695a      	ldr	r2, [r3, #20]
200020b6:	687b      	ldr	r3, [r7, #4]
200020b8:	699b      	ldr	r3, [r3, #24]
200020ba:	1ad3      	subs	r3, r2, r3
200020bc:	60bb      	str	r3, [r7, #8]
E:\Github_Repos\SF2_Eth_FFT\Softconsole\FFT_Accelerator\Debug/../firmware/drivers/mss_uart/mss_uart.c:1736

            /* Calculate the number of bytes to transmit. */
            if(tx_remain < TX_FIFO_SIZE)
200020be:	68bb      	ldr	r3, [r7, #8]
200020c0:	2b0f      	cmp	r3, #15
200020c2:	d801      	bhi.n	200020c8 <default_tx_handler+0x88>
E:\Github_Repos\SF2_Eth_FFT\Softconsole\FFT_Accelerator\Debug/../firmware/drivers/mss_uart/mss_uart.c:1738
            {
                fill_size = tx_remain;
200020c4:	68bb      	ldr	r3, [r7, #8]
200020c6:	613b      	str	r3, [r7, #16]
E:\Github_Repos\SF2_Eth_FFT\Softconsole\FFT_Accelerator\Debug/../firmware/drivers/mss_uart/mss_uart.c:1742
            }

            /* Fill the TX FIFO with the calculated the number of bytes. */
            for(i = 0u; i < fill_size; ++i)
200020c8:	2300      	movs	r3, #0
200020ca:	617b      	str	r3, [r7, #20]
200020cc:	e010      	b.n	200020f0 <default_tx_handler+0xb0>
E:\Github_Repos\SF2_Eth_FFT\Softconsole\FFT_Accelerator\Debug/../firmware/drivers/mss_uart/mss_uart.c:1745 (discriminator 3)
            {
                /* Send next character in the buffer. */
                this_uart->hw_reg->THR = this_uart->tx_buffer[this_uart->tx_idx];
200020ce:	687b      	ldr	r3, [r7, #4]
200020d0:	691a      	ldr	r2, [r3, #16]
200020d2:	687b      	ldr	r3, [r7, #4]
200020d4:	699b      	ldr	r3, [r3, #24]
200020d6:	441a      	add	r2, r3
200020d8:	687b      	ldr	r3, [r7, #4]
200020da:	681b      	ldr	r3, [r3, #0]
200020dc:	7812      	ldrb	r2, [r2, #0]
200020de:	701a      	strb	r2, [r3, #0]
E:\Github_Repos\SF2_Eth_FFT\Softconsole\FFT_Accelerator\Debug/../firmware/drivers/mss_uart/mss_uart.c:1746 (discriminator 3)
                ++this_uart->tx_idx;
200020e0:	687b      	ldr	r3, [r7, #4]
200020e2:	699b      	ldr	r3, [r3, #24]
200020e4:	1c5a      	adds	r2, r3, #1
200020e6:	687b      	ldr	r3, [r7, #4]
200020e8:	619a      	str	r2, [r3, #24]
E:\Github_Repos\SF2_Eth_FFT\Softconsole\FFT_Accelerator\Debug/../firmware/drivers/mss_uart/mss_uart.c:1742 (discriminator 3)
            for(i = 0u; i < fill_size; ++i)
200020ea:	697b      	ldr	r3, [r7, #20]
200020ec:	3301      	adds	r3, #1
200020ee:	617b      	str	r3, [r7, #20]
E:\Github_Repos\SF2_Eth_FFT\Softconsole\FFT_Accelerator\Debug/../firmware/drivers/mss_uart/mss_uart.c:1742 (discriminator 1)
200020f0:	697a      	ldr	r2, [r7, #20]
200020f2:	693b      	ldr	r3, [r7, #16]
200020f4:	429a      	cmp	r2, r3
200020f6:	d3ea      	bcc.n	200020ce <default_tx_handler+0x8e>
E:\Github_Repos\SF2_Eth_FFT\Softconsole\FFT_Accelerator\Debug/../firmware/drivers/mss_uart/mss_uart.c:1751
            }
        }

        /* Flag Tx as complete if all data has been pushed into the Tx FIFO. */
        if(this_uart->tx_idx == this_uart->tx_buff_size)
200020f8:	687b      	ldr	r3, [r7, #4]
200020fa:	699a      	ldr	r2, [r3, #24]
200020fc:	687b      	ldr	r3, [r7, #4]
200020fe:	695b      	ldr	r3, [r3, #20]
20002100:	429a      	cmp	r2, r3
20002102:	d109      	bne.n	20002118 <default_tx_handler+0xd8>
E:\Github_Repos\SF2_Eth_FFT\Softconsole\FFT_Accelerator\Debug/../firmware/drivers/mss_uart/mss_uart.c:1753
        {
            this_uart->tx_buff_size = TX_COMPLETE;
20002104:	687b      	ldr	r3, [r7, #4]
20002106:	2200      	movs	r2, #0
20002108:	615a      	str	r2, [r3, #20]
E:\Github_Repos\SF2_Eth_FFT\Softconsole\FFT_Accelerator\Debug/../firmware/drivers/mss_uart/mss_uart.c:1755
            /* disables TX interrupt */
            clear_bit_reg8(&this_uart->hw_reg->IER,ETBEI);
2000210a:	687b      	ldr	r3, [r7, #4]
2000210c:	681b      	ldr	r3, [r3, #0]
2000210e:	3304      	adds	r3, #4
20002110:	2101      	movs	r1, #1
20002112:	4618      	mov	r0, r3
20002114:	f7ff fb0b 	bl	2000172e <clear_bit_reg8>
E:\Github_Repos\SF2_Eth_FFT\Softconsole\FFT_Accelerator\Debug/../firmware/drivers/mss_uart/mss_uart.c:1758
        }
    }
}
20002118:	bf00      	nop
2000211a:	3718      	adds	r7, #24
2000211c:	46bd      	mov	sp, r7
2000211e:	bd80      	pop	{r7, pc}
20002120:	200081a0 	.word	0x200081a0
20002124:	20008160 	.word	0x20008160

20002128 <ComBlk_IRQHandler>:
ComBlk_IRQHandler():
E:\Github_Repos\SF2_Eth_FFT\Softconsole\FFT_Accelerator\Debug/../firmware/drivers/mss_sys_services/mss_comblk.c:360

/*==============================================================================
 * COMBLK interrupt handler.
 */
void ComBlk_IRQHandler(void)
{
20002128:	b580      	push	{r7, lr}
2000212a:	b082      	sub	sp, #8
2000212c:	af00      	add	r7, sp, #0
E:\Github_Repos\SF2_Eth_FFT\Softconsole\FFT_Accelerator\Debug/../firmware/drivers/mss_sys_services/mss_comblk.c:365
    uint8_t status;
    uint8_t tx_okay;
    uint8_t rcv_okay;
    
    status = (uint8_t)COMBLK->STATUS;
2000212e:	4b0f      	ldr	r3, [pc, #60]	; (2000216c <ComBlk_IRQHandler+0x44>)
20002130:	685b      	ldr	r3, [r3, #4]
20002132:	71fb      	strb	r3, [r7, #7]
E:\Github_Repos\SF2_Eth_FFT\Softconsole\FFT_Accelerator\Debug/../firmware/drivers/mss_sys_services/mss_comblk.c:368
    
    /* Mask off interrupt that are not enabled.*/
    status &= COMBLK->INT_ENABLE;
20002134:	4b0d      	ldr	r3, [pc, #52]	; (2000216c <ComBlk_IRQHandler+0x44>)
20002136:	689b      	ldr	r3, [r3, #8]
20002138:	b2da      	uxtb	r2, r3
2000213a:	79fb      	ldrb	r3, [r7, #7]
2000213c:	4013      	ands	r3, r2
2000213e:	71fb      	strb	r3, [r7, #7]
E:\Github_Repos\SF2_Eth_FFT\Softconsole\FFT_Accelerator\Debug/../firmware/drivers/mss_sys_services/mss_comblk.c:370
    
    rcv_okay = status & RCVOKAY_MASK;
20002140:	79fb      	ldrb	r3, [r7, #7]
20002142:	f003 0302 	and.w	r3, r3, #2
20002146:	71bb      	strb	r3, [r7, #6]
E:\Github_Repos\SF2_Eth_FFT\Softconsole\FFT_Accelerator\Debug/../firmware/drivers/mss_sys_services/mss_comblk.c:372
    
    if(rcv_okay)
20002148:	79bb      	ldrb	r3, [r7, #6]
2000214a:	2b00      	cmp	r3, #0
2000214c:	d001      	beq.n	20002152 <ComBlk_IRQHandler+0x2a>
E:\Github_Repos\SF2_Eth_FFT\Softconsole\FFT_Accelerator\Debug/../firmware/drivers/mss_sys_services/mss_comblk.c:374
    {
        handle_rx_okay_irq();
2000214e:	f000 f8e5 	bl	2000231c <handle_rx_okay_irq>
E:\Github_Repos\SF2_Eth_FFT\Softconsole\FFT_Accelerator\Debug/../firmware/drivers/mss_sys_services/mss_comblk.c:377
    }
        
    tx_okay = status & TXTOKAY_MASK;
20002152:	79fb      	ldrb	r3, [r7, #7]
20002154:	f003 0301 	and.w	r3, r3, #1
20002158:	717b      	strb	r3, [r7, #5]
E:\Github_Repos\SF2_Eth_FFT\Softconsole\FFT_Accelerator\Debug/../firmware/drivers/mss_sys_services/mss_comblk.c:378
    if(tx_okay)
2000215a:	797b      	ldrb	r3, [r7, #5]
2000215c:	2b00      	cmp	r3, #0
2000215e:	d001      	beq.n	20002164 <ComBlk_IRQHandler+0x3c>
E:\Github_Repos\SF2_Eth_FFT\Softconsole\FFT_Accelerator\Debug/../firmware/drivers/mss_sys_services/mss_comblk.c:380
    {
        handle_tx_okay_irq();
20002160:	f000 f806 	bl	20002170 <handle_tx_okay_irq>
E:\Github_Repos\SF2_Eth_FFT\Softconsole\FFT_Accelerator\Debug/../firmware/drivers/mss_sys_services/mss_comblk.c:382
    }
}
20002164:	bf00      	nop
20002166:	3708      	adds	r7, #8
20002168:	46bd      	mov	sp, r7
2000216a:	bd80      	pop	{r7, pc}
2000216c:	40016000 	.word	0x40016000

20002170 <handle_tx_okay_irq>:
handle_tx_okay_irq():
E:\Github_Repos\SF2_Eth_FFT\Softconsole\FFT_Accelerator\Debug/../firmware/drivers/mss_sys_services/mss_comblk.c:388

/*==============================================================================
 *
 */
static void handle_tx_okay_irq(void)
{
20002170:	b580      	push	{r7, lr}
20002172:	b084      	sub	sp, #16
20002174:	af00      	add	r7, sp, #0
E:\Github_Repos\SF2_Eth_FFT\Softconsole\FFT_Accelerator\Debug/../firmware/drivers/mss_sys_services/mss_comblk.c:389
    switch(g_comblk_state)
20002176:	4b62      	ldr	r3, [pc, #392]	; (20002300 <handle_tx_okay_irq+0x190>)
20002178:	781b      	ldrb	r3, [r3, #0]
2000217a:	2b02      	cmp	r3, #2
2000217c:	d03d      	beq.n	200021fa <handle_tx_okay_irq+0x8a>
2000217e:	2b05      	cmp	r3, #5
20002180:	d068      	beq.n	20002254 <handle_tx_okay_irq+0xe4>
20002182:	2b01      	cmp	r3, #1
20002184:	f040 80aa 	bne.w	200022dc <handle_tx_okay_irq+0x16c>
E:\Github_Repos\SF2_Eth_FFT\Softconsole\FFT_Accelerator\Debug/../firmware/drivers/mss_sys_services/mss_comblk.c:396
        /*----------------------------------------------------------------------
         * The TX_OKAY interrupt should only be enabled for states COMBLK_TX_CMD
         * and COMBLK_TX_DATA.
         */
        case COMBLK_TX_CMD:
            if(g_comblk_cmd_size > 0u)
20002188:	4b5e      	ldr	r3, [pc, #376]	; (20002304 <handle_tx_okay_irq+0x194>)
2000218a:	881b      	ldrh	r3, [r3, #0]
2000218c:	b29b      	uxth	r3, r3
2000218e:	2b00      	cmp	r3, #0
20002190:	d02f      	beq.n	200021f2 <handle_tx_okay_irq+0x82>
E:\Github_Repos\SF2_Eth_FFT\Softconsole\FFT_Accelerator\Debug/../firmware/drivers/mss_sys_services/mss_comblk.c:399
            {
                uint32_t size_sent;
                size_sent = fill_tx_fifo(g_comblk_p_cmd, g_comblk_cmd_size);
20002192:	4b5d      	ldr	r3, [pc, #372]	; (20002308 <handle_tx_okay_irq+0x198>)
20002194:	681a      	ldr	r2, [r3, #0]
20002196:	4b5b      	ldr	r3, [pc, #364]	; (20002304 <handle_tx_okay_irq+0x194>)
20002198:	881b      	ldrh	r3, [r3, #0]
2000219a:	b29b      	uxth	r3, r3
2000219c:	4619      	mov	r1, r3
2000219e:	4610      	mov	r0, r2
200021a0:	f000 fa0a 	bl	200025b8 <fill_tx_fifo>
200021a4:	60f8      	str	r0, [r7, #12]
E:\Github_Repos\SF2_Eth_FFT\Softconsole\FFT_Accelerator\Debug/../firmware/drivers/mss_sys_services/mss_comblk.c:400
                if(size_sent < g_comblk_cmd_size)
200021a6:	4b57      	ldr	r3, [pc, #348]	; (20002304 <handle_tx_okay_irq+0x194>)
200021a8:	881b      	ldrh	r3, [r3, #0]
200021aa:	b29b      	uxth	r3, r3
200021ac:	461a      	mov	r2, r3
200021ae:	68fb      	ldr	r3, [r7, #12]
200021b0:	4293      	cmp	r3, r2
200021b2:	d20f      	bcs.n	200021d4 <handle_tx_okay_irq+0x64>
E:\Github_Repos\SF2_Eth_FFT\Softconsole\FFT_Accelerator\Debug/../firmware/drivers/mss_sys_services/mss_comblk.c:402
                {
                    g_comblk_cmd_size = g_comblk_cmd_size - (uint16_t)size_sent;
200021b4:	4b53      	ldr	r3, [pc, #332]	; (20002304 <handle_tx_okay_irq+0x194>)
200021b6:	881b      	ldrh	r3, [r3, #0]
200021b8:	b29a      	uxth	r2, r3
200021ba:	68fb      	ldr	r3, [r7, #12]
200021bc:	b29b      	uxth	r3, r3
200021be:	1ad3      	subs	r3, r2, r3
200021c0:	b29a      	uxth	r2, r3
200021c2:	4b50      	ldr	r3, [pc, #320]	; (20002304 <handle_tx_okay_irq+0x194>)
200021c4:	801a      	strh	r2, [r3, #0]
E:\Github_Repos\SF2_Eth_FFT\Softconsole\FFT_Accelerator\Debug/../firmware/drivers/mss_sys_services/mss_comblk.c:403
                    g_comblk_p_cmd = &g_comblk_p_cmd[size_sent];
200021c6:	4b50      	ldr	r3, [pc, #320]	; (20002308 <handle_tx_okay_irq+0x198>)
200021c8:	681a      	ldr	r2, [r3, #0]
200021ca:	68fb      	ldr	r3, [r7, #12]
200021cc:	4413      	add	r3, r2
200021ce:	4a4e      	ldr	r2, [pc, #312]	; (20002308 <handle_tx_okay_irq+0x198>)
200021d0:	6013      	str	r3, [r2, #0]
E:\Github_Repos\SF2_Eth_FFT\Softconsole\FFT_Accelerator\Debug/../firmware/drivers/mss_sys_services/mss_comblk.c:427
                 * or corrupted memory.
                 */
                ASSERT(0);
                abort_current_cmd();
            }
        break;
200021d2:	e090      	b.n	200022f6 <handle_tx_okay_irq+0x186>
E:\Github_Repos\SF2_Eth_FFT\Softconsole\FFT_Accelerator\Debug/../firmware/drivers/mss_sys_services/mss_comblk.c:407
                    g_comblk_cmd_size = 0u;
200021d4:	4b4b      	ldr	r3, [pc, #300]	; (20002304 <handle_tx_okay_irq+0x194>)
200021d6:	2200      	movs	r2, #0
200021d8:	801a      	strh	r2, [r3, #0]
E:\Github_Repos\SF2_Eth_FFT\Softconsole\FFT_Accelerator\Debug/../firmware/drivers/mss_sys_services/mss_comblk.c:408
                    if(g_comblk_data_size > 0u)
200021da:	4b4c      	ldr	r3, [pc, #304]	; (2000230c <handle_tx_okay_irq+0x19c>)
200021dc:	681b      	ldr	r3, [r3, #0]
200021de:	2b00      	cmp	r3, #0
200021e0:	d003      	beq.n	200021ea <handle_tx_okay_irq+0x7a>
E:\Github_Repos\SF2_Eth_FFT\Softconsole\FFT_Accelerator\Debug/../firmware/drivers/mss_sys_services/mss_comblk.c:410
                        g_comblk_state = COMBLK_TX_DATA;
200021e2:	4b47      	ldr	r3, [pc, #284]	; (20002300 <handle_tx_okay_irq+0x190>)
200021e4:	2202      	movs	r2, #2
200021e6:	701a      	strb	r2, [r3, #0]
E:\Github_Repos\SF2_Eth_FFT\Softconsole\FFT_Accelerator\Debug/../firmware/drivers/mss_sys_services/mss_comblk.c:427
        break;
200021e8:	e085      	b.n	200022f6 <handle_tx_okay_irq+0x186>
E:\Github_Repos\SF2_Eth_FFT\Softconsole\FFT_Accelerator\Debug/../firmware/drivers/mss_sys_services/mss_comblk.c:414
                        g_comblk_state = COMBLK_WAIT_RESPONSE;
200021ea:	4b45      	ldr	r3, [pc, #276]	; (20002300 <handle_tx_okay_irq+0x190>)
200021ec:	2203      	movs	r2, #3
200021ee:	701a      	strb	r2, [r3, #0]
E:\Github_Repos\SF2_Eth_FFT\Softconsole\FFT_Accelerator\Debug/../firmware/drivers/mss_sys_services/mss_comblk.c:427
        break;
200021f0:	e081      	b.n	200022f6 <handle_tx_okay_irq+0x186>
E:\Github_Repos\SF2_Eth_FFT\Softconsole\FFT_Accelerator\Debug/../firmware/drivers/mss_sys_services/mss_comblk.c:424 (discriminator 1)
                ASSERT(0);
200021f2:	be00      	bkpt	0x0000
E:\Github_Repos\SF2_Eth_FFT\Softconsole\FFT_Accelerator\Debug/../firmware/drivers/mss_sys_services/mss_comblk.c:425 (discriminator 1)
                abort_current_cmd();
200021f4:	f000 f9ba 	bl	2000256c <abort_current_cmd>
E:\Github_Repos\SF2_Eth_FFT\Softconsole\FFT_Accelerator\Debug/../firmware/drivers/mss_sys_services/mss_comblk.c:427 (discriminator 1)
        break;
200021f8:	e07d      	b.n	200022f6 <handle_tx_okay_irq+0x186>
E:\Github_Repos\SF2_Eth_FFT\Softconsole\FFT_Accelerator\Debug/../firmware/drivers/mss_sys_services/mss_comblk.c:430
            
        case COMBLK_TX_DATA:
            if(g_comblk_data_size > 0u)
200021fa:	4b44      	ldr	r3, [pc, #272]	; (2000230c <handle_tx_okay_irq+0x19c>)
200021fc:	681b      	ldr	r3, [r3, #0]
200021fe:	2b00      	cmp	r3, #0
20002200:	d024      	beq.n	2000224c <handle_tx_okay_irq+0xdc>
E:\Github_Repos\SF2_Eth_FFT\Softconsole\FFT_Accelerator\Debug/../firmware/drivers/mss_sys_services/mss_comblk.c:433
            {
                uint32_t size_sent;
                size_sent = fill_tx_fifo(g_comblk_p_data, g_comblk_data_size);
20002202:	4b43      	ldr	r3, [pc, #268]	; (20002310 <handle_tx_okay_irq+0x1a0>)
20002204:	681a      	ldr	r2, [r3, #0]
20002206:	4b41      	ldr	r3, [pc, #260]	; (2000230c <handle_tx_okay_irq+0x19c>)
20002208:	681b      	ldr	r3, [r3, #0]
2000220a:	4619      	mov	r1, r3
2000220c:	4610      	mov	r0, r2
2000220e:	f000 f9d3 	bl	200025b8 <fill_tx_fifo>
20002212:	60b8      	str	r0, [r7, #8]
E:\Github_Repos\SF2_Eth_FFT\Softconsole\FFT_Accelerator\Debug/../firmware/drivers/mss_sys_services/mss_comblk.c:434
                if(size_sent < g_comblk_data_size)
20002214:	4b3d      	ldr	r3, [pc, #244]	; (2000230c <handle_tx_okay_irq+0x19c>)
20002216:	681b      	ldr	r3, [r3, #0]
20002218:	68ba      	ldr	r2, [r7, #8]
2000221a:	429a      	cmp	r2, r3
2000221c:	d20c      	bcs.n	20002238 <handle_tx_okay_irq+0xc8>
E:\Github_Repos\SF2_Eth_FFT\Softconsole\FFT_Accelerator\Debug/../firmware/drivers/mss_sys_services/mss_comblk.c:436
                {
                    g_comblk_data_size = g_comblk_data_size - size_sent;
2000221e:	4b3b      	ldr	r3, [pc, #236]	; (2000230c <handle_tx_okay_irq+0x19c>)
20002220:	681a      	ldr	r2, [r3, #0]
20002222:	68bb      	ldr	r3, [r7, #8]
20002224:	1ad3      	subs	r3, r2, r3
20002226:	4a39      	ldr	r2, [pc, #228]	; (2000230c <handle_tx_okay_irq+0x19c>)
20002228:	6013      	str	r3, [r2, #0]
E:\Github_Repos\SF2_Eth_FFT\Softconsole\FFT_Accelerator\Debug/../firmware/drivers/mss_sys_services/mss_comblk.c:437
                    g_comblk_p_data = &g_comblk_p_data[size_sent];
2000222a:	4b39      	ldr	r3, [pc, #228]	; (20002310 <handle_tx_okay_irq+0x1a0>)
2000222c:	681a      	ldr	r2, [r3, #0]
2000222e:	68bb      	ldr	r3, [r7, #8]
20002230:	4413      	add	r3, r2
20002232:	4a37      	ldr	r2, [pc, #220]	; (20002310 <handle_tx_okay_irq+0x1a0>)
20002234:	6013      	str	r3, [r2, #0]
E:\Github_Repos\SF2_Eth_FFT\Softconsole\FFT_Accelerator\Debug/../firmware/drivers/mss_sys_services/mss_comblk.c:454
                 * or corrupted memory.
                 */
                ASSERT(0);
                abort_current_cmd();
            }
        break;
20002236:	e05e      	b.n	200022f6 <handle_tx_okay_irq+0x186>
E:\Github_Repos\SF2_Eth_FFT\Softconsole\FFT_Accelerator\Debug/../firmware/drivers/mss_sys_services/mss_comblk.c:441
                    COMBLK->INT_ENABLE &= ~TXTOKAY_MASK;
20002238:	4b36      	ldr	r3, [pc, #216]	; (20002314 <handle_tx_okay_irq+0x1a4>)
2000223a:	689b      	ldr	r3, [r3, #8]
2000223c:	4a35      	ldr	r2, [pc, #212]	; (20002314 <handle_tx_okay_irq+0x1a4>)
2000223e:	f023 0301 	bic.w	r3, r3, #1
20002242:	6093      	str	r3, [r2, #8]
E:\Github_Repos\SF2_Eth_FFT\Softconsole\FFT_Accelerator\Debug/../firmware/drivers/mss_sys_services/mss_comblk.c:442
                    g_comblk_state = COMBLK_WAIT_RESPONSE;
20002244:	4b2e      	ldr	r3, [pc, #184]	; (20002300 <handle_tx_okay_irq+0x190>)
20002246:	2203      	movs	r2, #3
20002248:	701a      	strb	r2, [r3, #0]
E:\Github_Repos\SF2_Eth_FFT\Softconsole\FFT_Accelerator\Debug/../firmware/drivers/mss_sys_services/mss_comblk.c:454
        break;
2000224a:	e054      	b.n	200022f6 <handle_tx_okay_irq+0x186>
E:\Github_Repos\SF2_Eth_FFT\Softconsole\FFT_Accelerator\Debug/../firmware/drivers/mss_sys_services/mss_comblk.c:451 (discriminator 1)
                ASSERT(0);
2000224c:	be00      	bkpt	0x0000
E:\Github_Repos\SF2_Eth_FFT\Softconsole\FFT_Accelerator\Debug/../firmware/drivers/mss_sys_services/mss_comblk.c:452 (discriminator 1)
                abort_current_cmd();
2000224e:	f000 f98d 	bl	2000256c <abort_current_cmd>
E:\Github_Repos\SF2_Eth_FFT\Softconsole\FFT_Accelerator\Debug/../firmware/drivers/mss_sys_services/mss_comblk.c:454 (discriminator 1)
        break;
20002252:	e050      	b.n	200022f6 <handle_tx_okay_irq+0x186>
E:\Github_Repos\SF2_Eth_FFT\Softconsole\FFT_Accelerator\Debug/../firmware/drivers/mss_sys_services/mss_comblk.c:460
           
        case COMBLK_TX_PAGED_DATA:
            /*
             * Read a page of data if required.
             */
            if(0u == g_comblk_data_size)
20002254:	4b2d      	ldr	r3, [pc, #180]	; (2000230c <handle_tx_okay_irq+0x19c>)
20002256:	681b      	ldr	r3, [r3, #0]
20002258:	2b00      	cmp	r3, #0
2000225a:	d11b      	bne.n	20002294 <handle_tx_okay_irq+0x124>
E:\Github_Repos\SF2_Eth_FFT\Softconsole\FFT_Accelerator\Debug/../firmware/drivers/mss_sys_services/mss_comblk.c:462
            {
                if(g_comblk_page_handler != 0)
2000225c:	4b2e      	ldr	r3, [pc, #184]	; (20002318 <handle_tx_okay_irq+0x1a8>)
2000225e:	681b      	ldr	r3, [r3, #0]
20002260:	2b00      	cmp	r3, #0
20002262:	d014      	beq.n	2000228e <handle_tx_okay_irq+0x11e>
E:\Github_Repos\SF2_Eth_FFT\Softconsole\FFT_Accelerator\Debug/../firmware/drivers/mss_sys_services/mss_comblk.c:464
                {
                    g_comblk_data_size = g_comblk_page_handler(&g_comblk_p_data);
20002264:	4b2c      	ldr	r3, [pc, #176]	; (20002318 <handle_tx_okay_irq+0x1a8>)
20002266:	681b      	ldr	r3, [r3, #0]
20002268:	4829      	ldr	r0, [pc, #164]	; (20002310 <handle_tx_okay_irq+0x1a0>)
2000226a:	4798      	blx	r3
2000226c:	4602      	mov	r2, r0
2000226e:	4b27      	ldr	r3, [pc, #156]	; (2000230c <handle_tx_okay_irq+0x19c>)
20002270:	601a      	str	r2, [r3, #0]
E:\Github_Repos\SF2_Eth_FFT\Softconsole\FFT_Accelerator\Debug/../firmware/drivers/mss_sys_services/mss_comblk.c:465
                    if(0u == g_comblk_data_size)
20002272:	4b26      	ldr	r3, [pc, #152]	; (2000230c <handle_tx_okay_irq+0x19c>)
20002274:	681b      	ldr	r3, [r3, #0]
20002276:	2b00      	cmp	r3, #0
20002278:	d10c      	bne.n	20002294 <handle_tx_okay_irq+0x124>
E:\Github_Repos\SF2_Eth_FFT\Softconsole\FFT_Accelerator\Debug/../firmware/drivers/mss_sys_services/mss_comblk.c:467
                    {
                        COMBLK->INT_ENABLE &= ~TXTOKAY_MASK;
2000227a:	4b26      	ldr	r3, [pc, #152]	; (20002314 <handle_tx_okay_irq+0x1a4>)
2000227c:	689b      	ldr	r3, [r3, #8]
2000227e:	4a25      	ldr	r2, [pc, #148]	; (20002314 <handle_tx_okay_irq+0x1a4>)
20002280:	f023 0301 	bic.w	r3, r3, #1
20002284:	6093      	str	r3, [r2, #8]
E:\Github_Repos\SF2_Eth_FFT\Softconsole\FFT_Accelerator\Debug/../firmware/drivers/mss_sys_services/mss_comblk.c:468
                        g_comblk_state = COMBLK_WAIT_RESPONSE;
20002286:	4b1e      	ldr	r3, [pc, #120]	; (20002300 <handle_tx_okay_irq+0x190>)
20002288:	2203      	movs	r2, #3
2000228a:	701a      	strb	r2, [r3, #0]
2000228c:	e002      	b.n	20002294 <handle_tx_okay_irq+0x124>
E:\Github_Repos\SF2_Eth_FFT\Softconsole\FFT_Accelerator\Debug/../firmware/drivers/mss_sys_services/mss_comblk.c:473 (discriminator 1)
                    }
                }
                else
                {
                    ASSERT(0);
2000228e:	be00      	bkpt	0x0000
E:\Github_Repos\SF2_Eth_FFT\Softconsole\FFT_Accelerator\Debug/../firmware/drivers/mss_sys_services/mss_comblk.c:474 (discriminator 1)
                    abort_current_cmd();
20002290:	f000 f96c 	bl	2000256c <abort_current_cmd>
E:\Github_Repos\SF2_Eth_FFT\Softconsole\FFT_Accelerator\Debug/../firmware/drivers/mss_sys_services/mss_comblk.c:483
            /*
             * Transmit the page data or move to COMBLK_WAIT_RESPONSE state if
             * no further page data could be obtained by the call to the page
             * handler above.
             */
            if(0u == g_comblk_data_size)
20002294:	4b1d      	ldr	r3, [pc, #116]	; (2000230c <handle_tx_okay_irq+0x19c>)
20002296:	681b      	ldr	r3, [r3, #0]
20002298:	2b00      	cmp	r3, #0
2000229a:	d109      	bne.n	200022b0 <handle_tx_okay_irq+0x140>
E:\Github_Repos\SF2_Eth_FFT\Softconsole\FFT_Accelerator\Debug/../firmware/drivers/mss_sys_services/mss_comblk.c:485
            {
                COMBLK->INT_ENABLE &= ~TXTOKAY_MASK;
2000229c:	4b1d      	ldr	r3, [pc, #116]	; (20002314 <handle_tx_okay_irq+0x1a4>)
2000229e:	689b      	ldr	r3, [r3, #8]
200022a0:	4a1c      	ldr	r2, [pc, #112]	; (20002314 <handle_tx_okay_irq+0x1a4>)
200022a2:	f023 0301 	bic.w	r3, r3, #1
200022a6:	6093      	str	r3, [r2, #8]
E:\Github_Repos\SF2_Eth_FFT\Softconsole\FFT_Accelerator\Debug/../firmware/drivers/mss_sys_services/mss_comblk.c:486
                g_comblk_state = COMBLK_WAIT_RESPONSE;
200022a8:	4b15      	ldr	r3, [pc, #84]	; (20002300 <handle_tx_okay_irq+0x190>)
200022aa:	2203      	movs	r2, #3
200022ac:	701a      	strb	r2, [r3, #0]
E:\Github_Repos\SF2_Eth_FFT\Softconsole\FFT_Accelerator\Debug/../firmware/drivers/mss_sys_services/mss_comblk.c:495
                uint32_t size_sent;
                size_sent = fill_tx_fifo(g_comblk_p_data, g_comblk_data_size);
                g_comblk_data_size = g_comblk_data_size - size_sent;
                g_comblk_p_data = &g_comblk_p_data[size_sent];
            }
        break;
200022ae:	e022      	b.n	200022f6 <handle_tx_okay_irq+0x186>
E:\Github_Repos\SF2_Eth_FFT\Softconsole\FFT_Accelerator\Debug/../firmware/drivers/mss_sys_services/mss_comblk.c:491
                size_sent = fill_tx_fifo(g_comblk_p_data, g_comblk_data_size);
200022b0:	4b17      	ldr	r3, [pc, #92]	; (20002310 <handle_tx_okay_irq+0x1a0>)
200022b2:	681a      	ldr	r2, [r3, #0]
200022b4:	4b15      	ldr	r3, [pc, #84]	; (2000230c <handle_tx_okay_irq+0x19c>)
200022b6:	681b      	ldr	r3, [r3, #0]
200022b8:	4619      	mov	r1, r3
200022ba:	4610      	mov	r0, r2
200022bc:	f000 f97c 	bl	200025b8 <fill_tx_fifo>
200022c0:	6078      	str	r0, [r7, #4]
E:\Github_Repos\SF2_Eth_FFT\Softconsole\FFT_Accelerator\Debug/../firmware/drivers/mss_sys_services/mss_comblk.c:492
                g_comblk_data_size = g_comblk_data_size - size_sent;
200022c2:	4b12      	ldr	r3, [pc, #72]	; (2000230c <handle_tx_okay_irq+0x19c>)
200022c4:	681a      	ldr	r2, [r3, #0]
200022c6:	687b      	ldr	r3, [r7, #4]
200022c8:	1ad3      	subs	r3, r2, r3
200022ca:	4a10      	ldr	r2, [pc, #64]	; (2000230c <handle_tx_okay_irq+0x19c>)
200022cc:	6013      	str	r3, [r2, #0]
E:\Github_Repos\SF2_Eth_FFT\Softconsole\FFT_Accelerator\Debug/../firmware/drivers/mss_sys_services/mss_comblk.c:493
                g_comblk_p_data = &g_comblk_p_data[size_sent];
200022ce:	4b10      	ldr	r3, [pc, #64]	; (20002310 <handle_tx_okay_irq+0x1a0>)
200022d0:	681a      	ldr	r2, [r3, #0]
200022d2:	687b      	ldr	r3, [r7, #4]
200022d4:	4413      	add	r3, r2
200022d6:	4a0e      	ldr	r2, [pc, #56]	; (20002310 <handle_tx_okay_irq+0x1a0>)
200022d8:	6013      	str	r3, [r2, #0]
E:\Github_Repos\SF2_Eth_FFT\Softconsole\FFT_Accelerator\Debug/../firmware/drivers/mss_sys_services/mss_comblk.c:495
        break;
200022da:	e00c      	b.n	200022f6 <handle_tx_okay_irq+0x186>
E:\Github_Repos\SF2_Eth_FFT\Softconsole\FFT_Accelerator\Debug/../firmware/drivers/mss_sys_services/mss_comblk.c:508
        case COMBLK_WAIT_RESPONSE:
            /* Fall through */
        case COMBLK_RX_RESPONSE:
            /* Fall through */
        default:
            COMBLK->INT_ENABLE &= ~TXTOKAY_MASK;
200022dc:	4b0d      	ldr	r3, [pc, #52]	; (20002314 <handle_tx_okay_irq+0x1a4>)
200022de:	689b      	ldr	r3, [r3, #8]
200022e0:	4a0c      	ldr	r2, [pc, #48]	; (20002314 <handle_tx_okay_irq+0x1a4>)
200022e2:	f023 0301 	bic.w	r3, r3, #1
200022e6:	6093      	str	r3, [r2, #8]
E:\Github_Repos\SF2_Eth_FFT\Softconsole\FFT_Accelerator\Debug/../firmware/drivers/mss_sys_services/mss_comblk.c:509
            complete_request(0u);
200022e8:	2000      	movs	r0, #0
200022ea:	f000 f91f 	bl	2000252c <complete_request>
E:\Github_Repos\SF2_Eth_FFT\Softconsole\FFT_Accelerator\Debug/../firmware/drivers/mss_sys_services/mss_comblk.c:510
            g_comblk_state = COMBLK_IDLE;
200022ee:	4b04      	ldr	r3, [pc, #16]	; (20002300 <handle_tx_okay_irq+0x190>)
200022f0:	2200      	movs	r2, #0
200022f2:	701a      	strb	r2, [r3, #0]
E:\Github_Repos\SF2_Eth_FFT\Softconsole\FFT_Accelerator\Debug/../firmware/drivers/mss_sys_services/mss_comblk.c:511
        break;
200022f4:	bf00      	nop
E:\Github_Repos\SF2_Eth_FFT\Softconsole\FFT_Accelerator\Debug/../firmware/drivers/mss_sys_services/mss_comblk.c:513
    }
}
200022f6:	bf00      	nop
200022f8:	3710      	adds	r7, #16
200022fa:	46bd      	mov	sp, r7
200022fc:	bd80      	pop	{r7, pc}
200022fe:	bf00      	nop
20002300:	20008081 	.word	0x20008081
20002304:	20008064 	.word	0x20008064
20002308:	20008060 	.word	0x20008060
2000230c:	2000806c 	.word	0x2000806c
20002310:	20008068 	.word	0x20008068
20002314:	40016000 	.word	0x40016000
20002318:	2000807c 	.word	0x2000807c

2000231c <handle_rx_okay_irq>:
handle_rx_okay_irq():
E:\Github_Repos\SF2_Eth_FFT\Softconsole\FFT_Accelerator\Debug/../firmware/drivers/mss_sys_services/mss_comblk.c:519

/*==============================================================================
 *
 */
static void handle_rx_okay_irq(void)
{
2000231c:	b580      	push	{r7, lr}
2000231e:	b084      	sub	sp, #16
20002320:	af00      	add	r7, sp, #0
E:\Github_Repos\SF2_Eth_FFT\Softconsole\FFT_Accelerator\Debug/../firmware/drivers/mss_sys_services/mss_comblk.c:524
    uint16_t data16;
    uint16_t is_command;
    uint8_t data8;
    
    data16 = (uint16_t)COMBLK->DATA8;
20002322:	4b7c      	ldr	r3, [pc, #496]	; (20002514 <handle_rx_okay_irq+0x1f8>)
20002324:	691b      	ldr	r3, [r3, #16]
20002326:	81fb      	strh	r3, [r7, #14]
E:\Github_Repos\SF2_Eth_FFT\Softconsole\FFT_Accelerator\Debug/../firmware/drivers/mss_sys_services/mss_comblk.c:525
    is_command = data16 & DATA8_COMMAND_MASK;
20002328:	89fb      	ldrh	r3, [r7, #14]
2000232a:	f423 43ff 	bic.w	r3, r3, #32640	; 0x7f80
2000232e:	f023 037f 	bic.w	r3, r3, #127	; 0x7f
20002332:	81bb      	strh	r3, [r7, #12]
E:\Github_Repos\SF2_Eth_FFT\Softconsole\FFT_Accelerator\Debug/../firmware/drivers/mss_sys_services/mss_comblk.c:526
    data8 = (uint8_t)data16;
20002334:	89fb      	ldrh	r3, [r7, #14]
20002336:	72fb      	strb	r3, [r7, #11]
E:\Github_Repos\SF2_Eth_FFT\Softconsole\FFT_Accelerator\Debug/../firmware/drivers/mss_sys_services/mss_comblk.c:528
            
    switch(g_comblk_state)
20002338:	4b77      	ldr	r3, [pc, #476]	; (20002518 <handle_rx_okay_irq+0x1fc>)
2000233a:	781b      	ldrb	r3, [r3, #0]
2000233c:	2b05      	cmp	r3, #5
2000233e:	f200 80d6 	bhi.w	200024ee <handle_rx_okay_irq+0x1d2>
20002342:	a201      	add	r2, pc, #4	; (adr r2, 20002348 <handle_rx_okay_irq+0x2c>)
20002344:	f852 f023 	ldr.w	pc, [r2, r3, lsl #2]
20002348:	20002361 	.word	0x20002361
2000234c:	200024db 	.word	0x200024db
20002350:	200024db 	.word	0x200024db
20002354:	200023b9 	.word	0x200023b9
20002358:	20002407 	.word	0x20002407
2000235c:	200024af 	.word	0x200024af
E:\Github_Repos\SF2_Eth_FFT\Softconsole\FFT_Accelerator\Debug/../firmware/drivers/mss_sys_services/mss_comblk.c:536
        * MSS_COMBLK_init() enables the RCV_OKAY interrupt for the COMBLK_IDLE
        * state to receive the asynchronous power-on-reset from the system
        * controller.
        */
        case COMBLK_IDLE:
            if(is_command)
20002360:	89bb      	ldrh	r3, [r7, #12]
20002362:	2b00      	cmp	r3, #0
20002364:	f000 80ca 	beq.w	200024fc <handle_rx_okay_irq+0x1e0>
E:\Github_Repos\SF2_Eth_FFT\Softconsole\FFT_Accelerator\Debug/../firmware/drivers/mss_sys_services/mss_comblk.c:538
            {
                if(data8 != POR_DIGEST_ERROR_OPCODE)
20002368:	7afb      	ldrb	r3, [r7, #11]
2000236a:	2bf1      	cmp	r3, #241	; 0xf1
2000236c:	d006      	beq.n	2000237c <handle_rx_okay_irq+0x60>
E:\Github_Repos\SF2_Eth_FFT\Softconsole\FFT_Accelerator\Debug/../firmware/drivers/mss_sys_services/mss_comblk.c:541
                {
                    uint8_t rxed_opcode;
                    rxed_opcode = data8;
2000236e:	7afb      	ldrb	r3, [r7, #11]
20002370:	72bb      	strb	r3, [r7, #10]
E:\Github_Repos\SF2_Eth_FFT\Softconsole\FFT_Accelerator\Debug/../firmware/drivers/mss_sys_services/mss_comblk.c:542
                    process_sys_ctrl_command(rxed_opcode);
20002372:	7abb      	ldrb	r3, [r7, #10]
20002374:	4618      	mov	r0, r3
20002376:	f000 f94f 	bl	20002618 <process_sys_ctrl_command>
E:\Github_Repos\SF2_Eth_FFT\Softconsole\FFT_Accelerator\Debug/../firmware/drivers/mss_sys_services/mss_comblk.c:553
                    g_comblk_response_idx++;
                    g_comblk_p_response[g_comblk_response_idx] = 0x00u;                
                    g_comblk_state = COMBLK_RX_RESPONSE;
                }
            }
        break;
2000237a:	e0bf      	b.n	200024fc <handle_rx_okay_irq+0x1e0>
E:\Github_Repos\SF2_Eth_FFT\Softconsole\FFT_Accelerator\Debug/../firmware/drivers/mss_sys_services/mss_comblk.c:546
                    g_comblk_response_idx = 0;
2000237c:	4b67      	ldr	r3, [pc, #412]	; (2000251c <handle_rx_okay_irq+0x200>)
2000237e:	2200      	movs	r2, #0
20002380:	801a      	strh	r2, [r3, #0]
E:\Github_Repos\SF2_Eth_FFT\Softconsole\FFT_Accelerator\Debug/../firmware/drivers/mss_sys_services/mss_comblk.c:547
                    g_comblk_p_response[g_comblk_response_idx] = data8;
20002382:	4b67      	ldr	r3, [pc, #412]	; (20002520 <handle_rx_okay_irq+0x204>)
20002384:	681b      	ldr	r3, [r3, #0]
20002386:	4a65      	ldr	r2, [pc, #404]	; (2000251c <handle_rx_okay_irq+0x200>)
20002388:	8812      	ldrh	r2, [r2, #0]
2000238a:	b292      	uxth	r2, r2
2000238c:	4413      	add	r3, r2
2000238e:	7afa      	ldrb	r2, [r7, #11]
20002390:	701a      	strb	r2, [r3, #0]
E:\Github_Repos\SF2_Eth_FFT\Softconsole\FFT_Accelerator\Debug/../firmware/drivers/mss_sys_services/mss_comblk.c:548
                    g_comblk_response_idx++;
20002392:	4b62      	ldr	r3, [pc, #392]	; (2000251c <handle_rx_okay_irq+0x200>)
20002394:	881b      	ldrh	r3, [r3, #0]
20002396:	b29b      	uxth	r3, r3
20002398:	3301      	adds	r3, #1
2000239a:	b29a      	uxth	r2, r3
2000239c:	4b5f      	ldr	r3, [pc, #380]	; (2000251c <handle_rx_okay_irq+0x200>)
2000239e:	801a      	strh	r2, [r3, #0]
E:\Github_Repos\SF2_Eth_FFT\Softconsole\FFT_Accelerator\Debug/../firmware/drivers/mss_sys_services/mss_comblk.c:549
                    g_comblk_p_response[g_comblk_response_idx] = 0x00u;                
200023a0:	4b5f      	ldr	r3, [pc, #380]	; (20002520 <handle_rx_okay_irq+0x204>)
200023a2:	681b      	ldr	r3, [r3, #0]
200023a4:	4a5d      	ldr	r2, [pc, #372]	; (2000251c <handle_rx_okay_irq+0x200>)
200023a6:	8812      	ldrh	r2, [r2, #0]
200023a8:	b292      	uxth	r2, r2
200023aa:	4413      	add	r3, r2
200023ac:	2200      	movs	r2, #0
200023ae:	701a      	strb	r2, [r3, #0]
E:\Github_Repos\SF2_Eth_FFT\Softconsole\FFT_Accelerator\Debug/../firmware/drivers/mss_sys_services/mss_comblk.c:550
                    g_comblk_state = COMBLK_RX_RESPONSE;
200023b0:	4b59      	ldr	r3, [pc, #356]	; (20002518 <handle_rx_okay_irq+0x1fc>)
200023b2:	2204      	movs	r2, #4
200023b4:	701a      	strb	r2, [r3, #0]
E:\Github_Repos\SF2_Eth_FFT\Softconsole\FFT_Accelerator\Debug/../firmware/drivers/mss_sys_services/mss_comblk.c:553
        break;
200023b6:	e0a1      	b.n	200024fc <handle_rx_okay_irq+0x1e0>
E:\Github_Repos\SF2_Eth_FFT\Softconsole\FFT_Accelerator\Debug/../firmware/drivers/mss_sys_services/mss_comblk.c:560
        /*----------------------------------------------------------------------
         * The RCV_OKAY interrupt should only be enabled for states
         * COMBLK_WAIT_RESPONSE and COMBLK_RX_RESPONSE. 
         */
        case COMBLK_WAIT_RESPONSE:
            if(is_command)
200023b8:	89bb      	ldrh	r3, [r7, #12]
200023ba:	2b00      	cmp	r3, #0
200023bc:	f000 80a0 	beq.w	20002500 <handle_rx_okay_irq+0x1e4>
E:\Github_Repos\SF2_Eth_FFT\Softconsole\FFT_Accelerator\Debug/../firmware/drivers/mss_sys_services/mss_comblk.c:563
            {
                uint8_t rxed_opcode;
                rxed_opcode = data8;
200023c0:	7afb      	ldrb	r3, [r7, #11]
200023c2:	727b      	strb	r3, [r7, #9]
E:\Github_Repos\SF2_Eth_FFT\Softconsole\FFT_Accelerator\Debug/../firmware/drivers/mss_sys_services/mss_comblk.c:564
                if(rxed_opcode == g_comblk_cmd_opcode)
200023c4:	4b57      	ldr	r3, [pc, #348]	; (20002524 <handle_rx_okay_irq+0x208>)
200023c6:	781b      	ldrb	r3, [r3, #0]
200023c8:	b2db      	uxtb	r3, r3
200023ca:	7a7a      	ldrb	r2, [r7, #9]
200023cc:	429a      	cmp	r2, r3
200023ce:	d115      	bne.n	200023fc <handle_rx_okay_irq+0xe0>
E:\Github_Repos\SF2_Eth_FFT\Softconsole\FFT_Accelerator\Debug/../firmware/drivers/mss_sys_services/mss_comblk.c:566
                {
                    g_comblk_response_idx = 0u;
200023d0:	4b52      	ldr	r3, [pc, #328]	; (2000251c <handle_rx_okay_irq+0x200>)
200023d2:	2200      	movs	r2, #0
200023d4:	801a      	strh	r2, [r3, #0]
E:\Github_Repos\SF2_Eth_FFT\Softconsole\FFT_Accelerator\Debug/../firmware/drivers/mss_sys_services/mss_comblk.c:567
                    g_comblk_p_response[g_comblk_response_idx] = rxed_opcode;
200023d6:	4b52      	ldr	r3, [pc, #328]	; (20002520 <handle_rx_okay_irq+0x204>)
200023d8:	681b      	ldr	r3, [r3, #0]
200023da:	4a50      	ldr	r2, [pc, #320]	; (2000251c <handle_rx_okay_irq+0x200>)
200023dc:	8812      	ldrh	r2, [r2, #0]
200023de:	b292      	uxth	r2, r2
200023e0:	4413      	add	r3, r2
200023e2:	7a7a      	ldrb	r2, [r7, #9]
200023e4:	701a      	strb	r2, [r3, #0]
E:\Github_Repos\SF2_Eth_FFT\Softconsole\FFT_Accelerator\Debug/../firmware/drivers/mss_sys_services/mss_comblk.c:568
                    ++g_comblk_response_idx;
200023e6:	4b4d      	ldr	r3, [pc, #308]	; (2000251c <handle_rx_okay_irq+0x200>)
200023e8:	881b      	ldrh	r3, [r3, #0]
200023ea:	b29b      	uxth	r3, r3
200023ec:	3301      	adds	r3, #1
200023ee:	b29a      	uxth	r2, r3
200023f0:	4b4a      	ldr	r3, [pc, #296]	; (2000251c <handle_rx_okay_irq+0x200>)
200023f2:	801a      	strh	r2, [r3, #0]
E:\Github_Repos\SF2_Eth_FFT\Softconsole\FFT_Accelerator\Debug/../firmware/drivers/mss_sys_services/mss_comblk.c:569
                    g_comblk_state = COMBLK_RX_RESPONSE;
200023f4:	4b48      	ldr	r3, [pc, #288]	; (20002518 <handle_rx_okay_irq+0x1fc>)
200023f6:	2204      	movs	r2, #4
200023f8:	701a      	strb	r2, [r3, #0]
E:\Github_Repos\SF2_Eth_FFT\Softconsole\FFT_Accelerator\Debug/../firmware/drivers/mss_sys_services/mss_comblk.c:576
                else
                {
                    process_sys_ctrl_command(rxed_opcode);
                }
            }
        break;
200023fa:	e081      	b.n	20002500 <handle_rx_okay_irq+0x1e4>
E:\Github_Repos\SF2_Eth_FFT\Softconsole\FFT_Accelerator\Debug/../firmware/drivers/mss_sys_services/mss_comblk.c:573
                    process_sys_ctrl_command(rxed_opcode);
200023fc:	7a7b      	ldrb	r3, [r7, #9]
200023fe:	4618      	mov	r0, r3
20002400:	f000 f90a 	bl	20002618 <process_sys_ctrl_command>
E:\Github_Repos\SF2_Eth_FFT\Softconsole\FFT_Accelerator\Debug/../firmware/drivers/mss_sys_services/mss_comblk.c:576
        break;
20002404:	e07c      	b.n	20002500 <handle_rx_okay_irq+0x1e4>
E:\Github_Repos\SF2_Eth_FFT\Softconsole\FFT_Accelerator\Debug/../firmware/drivers/mss_sys_services/mss_comblk.c:579
            
        case COMBLK_RX_RESPONSE:
            if(is_command)
20002406:	89bb      	ldrh	r3, [r7, #12]
20002408:	2b00      	cmp	r3, #0
2000240a:	d006      	beq.n	2000241a <handle_rx_okay_irq+0xfe>
E:\Github_Repos\SF2_Eth_FFT\Softconsole\FFT_Accelerator\Debug/../firmware/drivers/mss_sys_services/mss_comblk.c:582
            {
                uint8_t rxed_opcode;
                rxed_opcode = data8;
2000240c:	7afb      	ldrb	r3, [r7, #11]
2000240e:	723b      	strb	r3, [r7, #8]
E:\Github_Repos\SF2_Eth_FFT\Softconsole\FFT_Accelerator\Debug/../firmware/drivers/mss_sys_services/mss_comblk.c:583
                process_sys_ctrl_command(rxed_opcode);
20002410:	7a3b      	ldrb	r3, [r7, #8]
20002412:	4618      	mov	r0, r3
20002414:	f000 f900 	bl	20002618 <process_sys_ctrl_command>
E:\Github_Repos\SF2_Eth_FFT\Softconsole\FFT_Accelerator\Debug/../firmware/drivers/mss_sys_services/mss_comblk.c:611
                        complete_request(g_comblk_response_idx);
                        g_comblk_state = COMBLK_IDLE;
                    }
                }
            }
        break;
20002418:	e074      	b.n	20002504 <handle_rx_okay_irq+0x1e8>
E:\Github_Repos\SF2_Eth_FFT\Softconsole\FFT_Accelerator\Debug/../firmware/drivers/mss_sys_services/mss_comblk.c:587
                if( g_comblk_p_response[g_comblk_response_idx-1] == POR_DIGEST_ERROR_OPCODE)
2000241a:	4b41      	ldr	r3, [pc, #260]	; (20002520 <handle_rx_okay_irq+0x204>)
2000241c:	681a      	ldr	r2, [r3, #0]
2000241e:	4b3f      	ldr	r3, [pc, #252]	; (2000251c <handle_rx_okay_irq+0x200>)
20002420:	881b      	ldrh	r3, [r3, #0]
20002422:	b29b      	uxth	r3, r3
20002424:	3b01      	subs	r3, #1
20002426:	4413      	add	r3, r2
20002428:	781b      	ldrb	r3, [r3, #0]
2000242a:	2bf1      	cmp	r3, #241	; 0xf1
2000242c:	d116      	bne.n	2000245c <handle_rx_okay_irq+0x140>
E:\Github_Repos\SF2_Eth_FFT\Softconsole\FFT_Accelerator\Debug/../firmware/drivers/mss_sys_services/mss_comblk.c:589
                    g_comblk_p_response[g_comblk_response_idx] = data8;
2000242e:	4b3c      	ldr	r3, [pc, #240]	; (20002520 <handle_rx_okay_irq+0x204>)
20002430:	681b      	ldr	r3, [r3, #0]
20002432:	4a3a      	ldr	r2, [pc, #232]	; (2000251c <handle_rx_okay_irq+0x200>)
20002434:	8812      	ldrh	r2, [r2, #0]
20002436:	b292      	uxth	r2, r2
20002438:	4413      	add	r3, r2
2000243a:	7afa      	ldrb	r2, [r7, #11]
2000243c:	701a      	strb	r2, [r3, #0]
E:\Github_Repos\SF2_Eth_FFT\Softconsole\FFT_Accelerator\Debug/../firmware/drivers/mss_sys_services/mss_comblk.c:590
                    process_sys_ctrl_command(g_comblk_p_response[g_comblk_response_idx-1]);
2000243e:	4b38      	ldr	r3, [pc, #224]	; (20002520 <handle_rx_okay_irq+0x204>)
20002440:	681a      	ldr	r2, [r3, #0]
20002442:	4b36      	ldr	r3, [pc, #216]	; (2000251c <handle_rx_okay_irq+0x200>)
20002444:	881b      	ldrh	r3, [r3, #0]
20002446:	b29b      	uxth	r3, r3
20002448:	3b01      	subs	r3, #1
2000244a:	4413      	add	r3, r2
2000244c:	781b      	ldrb	r3, [r3, #0]
2000244e:	4618      	mov	r0, r3
20002450:	f000 f8e2 	bl	20002618 <process_sys_ctrl_command>
E:\Github_Repos\SF2_Eth_FFT\Softconsole\FFT_Accelerator\Debug/../firmware/drivers/mss_sys_services/mss_comblk.c:591
                    g_comblk_state = COMBLK_IDLE;
20002454:	4b30      	ldr	r3, [pc, #192]	; (20002518 <handle_rx_okay_irq+0x1fc>)
20002456:	2200      	movs	r2, #0
20002458:	701a      	strb	r2, [r3, #0]
E:\Github_Repos\SF2_Eth_FFT\Softconsole\FFT_Accelerator\Debug/../firmware/drivers/mss_sys_services/mss_comblk.c:611
        break;
2000245a:	e053      	b.n	20002504 <handle_rx_okay_irq+0x1e8>
E:\Github_Repos\SF2_Eth_FFT\Softconsole\FFT_Accelerator\Debug/../firmware/drivers/mss_sys_services/mss_comblk.c:595
                    if(g_comblk_response_idx < g_comblk_response_size)
2000245c:	4b2f      	ldr	r3, [pc, #188]	; (2000251c <handle_rx_okay_irq+0x200>)
2000245e:	881b      	ldrh	r3, [r3, #0]
20002460:	b29a      	uxth	r2, r3
20002462:	4b31      	ldr	r3, [pc, #196]	; (20002528 <handle_rx_okay_irq+0x20c>)
20002464:	881b      	ldrh	r3, [r3, #0]
20002466:	429a      	cmp	r2, r3
20002468:	d210      	bcs.n	2000248c <handle_rx_okay_irq+0x170>
E:\Github_Repos\SF2_Eth_FFT\Softconsole\FFT_Accelerator\Debug/../firmware/drivers/mss_sys_services/mss_comblk.c:599
                        rxed_data = data8;
2000246a:	7afb      	ldrb	r3, [r7, #11]
2000246c:	71fb      	strb	r3, [r7, #7]
E:\Github_Repos\SF2_Eth_FFT\Softconsole\FFT_Accelerator\Debug/../firmware/drivers/mss_sys_services/mss_comblk.c:600
                        g_comblk_p_response[g_comblk_response_idx] = rxed_data;
2000246e:	4b2c      	ldr	r3, [pc, #176]	; (20002520 <handle_rx_okay_irq+0x204>)
20002470:	681b      	ldr	r3, [r3, #0]
20002472:	4a2a      	ldr	r2, [pc, #168]	; (2000251c <handle_rx_okay_irq+0x200>)
20002474:	8812      	ldrh	r2, [r2, #0]
20002476:	b292      	uxth	r2, r2
20002478:	4413      	add	r3, r2
2000247a:	79fa      	ldrb	r2, [r7, #7]
2000247c:	701a      	strb	r2, [r3, #0]
E:\Github_Repos\SF2_Eth_FFT\Softconsole\FFT_Accelerator\Debug/../firmware/drivers/mss_sys_services/mss_comblk.c:601
                        ++g_comblk_response_idx;
2000247e:	4b27      	ldr	r3, [pc, #156]	; (2000251c <handle_rx_okay_irq+0x200>)
20002480:	881b      	ldrh	r3, [r3, #0]
20002482:	b29b      	uxth	r3, r3
20002484:	3301      	adds	r3, #1
20002486:	b29a      	uxth	r2, r3
20002488:	4b24      	ldr	r3, [pc, #144]	; (2000251c <handle_rx_okay_irq+0x200>)
2000248a:	801a      	strh	r2, [r3, #0]
E:\Github_Repos\SF2_Eth_FFT\Softconsole\FFT_Accelerator\Debug/../firmware/drivers/mss_sys_services/mss_comblk.c:604
                    if(g_comblk_response_idx == g_comblk_response_size)
2000248c:	4b23      	ldr	r3, [pc, #140]	; (2000251c <handle_rx_okay_irq+0x200>)
2000248e:	881b      	ldrh	r3, [r3, #0]
20002490:	b29a      	uxth	r2, r3
20002492:	4b25      	ldr	r3, [pc, #148]	; (20002528 <handle_rx_okay_irq+0x20c>)
20002494:	881b      	ldrh	r3, [r3, #0]
20002496:	429a      	cmp	r2, r3
20002498:	d134      	bne.n	20002504 <handle_rx_okay_irq+0x1e8>
E:\Github_Repos\SF2_Eth_FFT\Softconsole\FFT_Accelerator\Debug/../firmware/drivers/mss_sys_services/mss_comblk.c:606
                        complete_request(g_comblk_response_idx);
2000249a:	4b20      	ldr	r3, [pc, #128]	; (2000251c <handle_rx_okay_irq+0x200>)
2000249c:	881b      	ldrh	r3, [r3, #0]
2000249e:	b29b      	uxth	r3, r3
200024a0:	4618      	mov	r0, r3
200024a2:	f000 f843 	bl	2000252c <complete_request>
E:\Github_Repos\SF2_Eth_FFT\Softconsole\FFT_Accelerator\Debug/../firmware/drivers/mss_sys_services/mss_comblk.c:607
                        g_comblk_state = COMBLK_IDLE;
200024a6:	4b1c      	ldr	r3, [pc, #112]	; (20002518 <handle_rx_okay_irq+0x1fc>)
200024a8:	2200      	movs	r2, #0
200024aa:	701a      	strb	r2, [r3, #0]
E:\Github_Repos\SF2_Eth_FFT\Softconsole\FFT_Accelerator\Debug/../firmware/drivers/mss_sys_services/mss_comblk.c:611
        break;
200024ac:	e02a      	b.n	20002504 <handle_rx_okay_irq+0x1e8>
E:\Github_Repos\SF2_Eth_FFT\Softconsole\FFT_Accelerator\Debug/../firmware/drivers/mss_sys_services/mss_comblk.c:619
         * The RCV_OKAY interrupt should NOT be enabled for states
         * COMBLK_IDLE, COMBLK_TX_CMD and COMBLK_TX_DATA.
         */
        case COMBLK_TX_PAGED_DATA:
            /* This is needed because when there is an error, we need to terminate loading the data */
            if(!is_command)
200024ae:	89bb      	ldrh	r3, [r7, #12]
200024b0:	2b00      	cmp	r3, #0
200024b2:	d10b      	bne.n	200024cc <handle_rx_okay_irq+0x1b0>
E:\Github_Repos\SF2_Eth_FFT\Softconsole\FFT_Accelerator\Debug/../firmware/drivers/mss_sys_services/mss_comblk.c:621
            {
                g_comblk_p_response[1] = data8;
200024b4:	4b1a      	ldr	r3, [pc, #104]	; (20002520 <handle_rx_okay_irq+0x204>)
200024b6:	681b      	ldr	r3, [r3, #0]
200024b8:	3301      	adds	r3, #1
200024ba:	7afa      	ldrb	r2, [r7, #11]
200024bc:	701a      	strb	r2, [r3, #0]
E:\Github_Repos\SF2_Eth_FFT\Softconsole\FFT_Accelerator\Debug/../firmware/drivers/mss_sys_services/mss_comblk.c:622
                complete_request(2u);
200024be:	2002      	movs	r0, #2
200024c0:	f000 f834 	bl	2000252c <complete_request>
E:\Github_Repos\SF2_Eth_FFT\Softconsole\FFT_Accelerator\Debug/../firmware/drivers/mss_sys_services/mss_comblk.c:623
                g_comblk_state = COMBLK_IDLE;
200024c4:	4b14      	ldr	r3, [pc, #80]	; (20002518 <handle_rx_okay_irq+0x1fc>)
200024c6:	2200      	movs	r2, #0
200024c8:	701a      	strb	r2, [r3, #0]
E:\Github_Repos\SF2_Eth_FFT\Softconsole\FFT_Accelerator\Debug/../firmware/drivers/mss_sys_services/mss_comblk.c:631
            {
                uint8_t rxed_opcode;
                rxed_opcode = data8;
                process_sys_ctrl_command(rxed_opcode);
            }
        break;
200024ca:	e01e      	b.n	2000250a <handle_rx_okay_irq+0x1ee>
E:\Github_Repos\SF2_Eth_FFT\Softconsole\FFT_Accelerator\Debug/../firmware/drivers/mss_sys_services/mss_comblk.c:628
                rxed_opcode = data8;
200024cc:	7afb      	ldrb	r3, [r7, #11]
200024ce:	71bb      	strb	r3, [r7, #6]
E:\Github_Repos\SF2_Eth_FFT\Softconsole\FFT_Accelerator\Debug/../firmware/drivers/mss_sys_services/mss_comblk.c:629
                process_sys_ctrl_command(rxed_opcode);
200024d0:	79bb      	ldrb	r3, [r7, #6]
200024d2:	4618      	mov	r0, r3
200024d4:	f000 f8a0 	bl	20002618 <process_sys_ctrl_command>
E:\Github_Repos\SF2_Eth_FFT\Softconsole\FFT_Accelerator\Debug/../firmware/drivers/mss_sys_services/mss_comblk.c:631
        break;
200024d8:	e017      	b.n	2000250a <handle_rx_okay_irq+0x1ee>
E:\Github_Repos\SF2_Eth_FFT\Softconsole\FFT_Accelerator\Debug/../firmware/drivers/mss_sys_services/mss_comblk.c:637
        
        case COMBLK_TX_CMD:
            /* Fall through */
        case COMBLK_TX_DATA:
            /* Fall through */
            if(is_command)
200024da:	89bb      	ldrh	r3, [r7, #12]
200024dc:	2b00      	cmp	r3, #0
200024de:	d013      	beq.n	20002508 <handle_rx_okay_irq+0x1ec>
E:\Github_Repos\SF2_Eth_FFT\Softconsole\FFT_Accelerator\Debug/../firmware/drivers/mss_sys_services/mss_comblk.c:640
            {
                uint8_t rxed_opcode;
                rxed_opcode = data8;
200024e0:	7afb      	ldrb	r3, [r7, #11]
200024e2:	717b      	strb	r3, [r7, #5]
E:\Github_Repos\SF2_Eth_FFT\Softconsole\FFT_Accelerator\Debug/../firmware/drivers/mss_sys_services/mss_comblk.c:641
                process_sys_ctrl_command(rxed_opcode);
200024e4:	797b      	ldrb	r3, [r7, #5]
200024e6:	4618      	mov	r0, r3
200024e8:	f000 f896 	bl	20002618 <process_sys_ctrl_command>
E:\Github_Repos\SF2_Eth_FFT\Softconsole\FFT_Accelerator\Debug/../firmware/drivers/mss_sys_services/mss_comblk.c:643
            }
        break;
200024ec:	e00c      	b.n	20002508 <handle_rx_okay_irq+0x1ec>
E:\Github_Repos\SF2_Eth_FFT\Softconsole\FFT_Accelerator\Debug/../firmware/drivers/mss_sys_services/mss_comblk.c:646
        
        default:
            complete_request(0u);
200024ee:	2000      	movs	r0, #0
200024f0:	f000 f81c 	bl	2000252c <complete_request>
E:\Github_Repos\SF2_Eth_FFT\Softconsole\FFT_Accelerator\Debug/../firmware/drivers/mss_sys_services/mss_comblk.c:647
            g_comblk_state = COMBLK_IDLE;
200024f4:	4b08      	ldr	r3, [pc, #32]	; (20002518 <handle_rx_okay_irq+0x1fc>)
200024f6:	2200      	movs	r2, #0
200024f8:	701a      	strb	r2, [r3, #0]
E:\Github_Repos\SF2_Eth_FFT\Softconsole\FFT_Accelerator\Debug/../firmware/drivers/mss_sys_services/mss_comblk.c:648
        break;
200024fa:	e006      	b.n	2000250a <handle_rx_okay_irq+0x1ee>
E:\Github_Repos\SF2_Eth_FFT\Softconsole\FFT_Accelerator\Debug/../firmware/drivers/mss_sys_services/mss_comblk.c:553
        break;
200024fc:	bf00      	nop
200024fe:	e004      	b.n	2000250a <handle_rx_okay_irq+0x1ee>
E:\Github_Repos\SF2_Eth_FFT\Softconsole\FFT_Accelerator\Debug/../firmware/drivers/mss_sys_services/mss_comblk.c:576
        break;
20002500:	bf00      	nop
20002502:	e002      	b.n	2000250a <handle_rx_okay_irq+0x1ee>
E:\Github_Repos\SF2_Eth_FFT\Softconsole\FFT_Accelerator\Debug/../firmware/drivers/mss_sys_services/mss_comblk.c:611
        break;
20002504:	bf00      	nop
20002506:	e000      	b.n	2000250a <handle_rx_okay_irq+0x1ee>
E:\Github_Repos\SF2_Eth_FFT\Softconsole\FFT_Accelerator\Debug/../firmware/drivers/mss_sys_services/mss_comblk.c:643
        break;
20002508:	bf00      	nop
E:\Github_Repos\SF2_Eth_FFT\Softconsole\FFT_Accelerator\Debug/../firmware/drivers/mss_sys_services/mss_comblk.c:650
    }
}
2000250a:	bf00      	nop
2000250c:	3710      	adds	r7, #16
2000250e:	46bd      	mov	sp, r7
20002510:	bd80      	pop	{r7, pc}
20002512:	bf00      	nop
20002514:	40016000 	.word	0x40016000
20002518:	20008081 	.word	0x20008081
2000251c:	20008076 	.word	0x20008076
20002520:	20008070 	.word	0x20008070
20002524:	2000805c 	.word	0x2000805c
20002528:	20008074 	.word	0x20008074

2000252c <complete_request>:
complete_request():
E:\Github_Repos\SF2_Eth_FFT\Softconsole\FFT_Accelerator\Debug/../firmware/drivers/mss_sys_services/mss_comblk.c:659
 */
static void complete_request
(
    uint16_t response_length
)
{
2000252c:	b580      	push	{r7, lr}
2000252e:	b082      	sub	sp, #8
20002530:	af00      	add	r7, sp, #0
20002532:	4603      	mov	r3, r0
20002534:	80fb      	strh	r3, [r7, #6]
E:\Github_Repos\SF2_Eth_FFT\Softconsole\FFT_Accelerator\Debug/../firmware/drivers/mss_sys_services/mss_comblk.c:660
    if(g_comblk_completion_handler != 0)
20002536:	4b0a      	ldr	r3, [pc, #40]	; (20002560 <complete_request+0x34>)
20002538:	681b      	ldr	r3, [r3, #0]
2000253a:	2b00      	cmp	r3, #0
2000253c:	d00c      	beq.n	20002558 <complete_request+0x2c>
E:\Github_Repos\SF2_Eth_FFT\Softconsole\FFT_Accelerator\Debug/../firmware/drivers/mss_sys_services/mss_comblk.c:662
    {
        g_comblk_completion_handler(g_comblk_p_response, response_length);
2000253e:	4b08      	ldr	r3, [pc, #32]	; (20002560 <complete_request+0x34>)
20002540:	681b      	ldr	r3, [r3, #0]
20002542:	4a08      	ldr	r2, [pc, #32]	; (20002564 <complete_request+0x38>)
20002544:	6812      	ldr	r2, [r2, #0]
20002546:	88f9      	ldrh	r1, [r7, #6]
20002548:	4610      	mov	r0, r2
2000254a:	4798      	blx	r3
E:\Github_Repos\SF2_Eth_FFT\Softconsole\FFT_Accelerator\Debug/../firmware/drivers/mss_sys_services/mss_comblk.c:663
        g_comblk_completion_handler = 0;
2000254c:	4b04      	ldr	r3, [pc, #16]	; (20002560 <complete_request+0x34>)
2000254e:	2200      	movs	r2, #0
20002550:	601a      	str	r2, [r3, #0]
E:\Github_Repos\SF2_Eth_FFT\Softconsole\FFT_Accelerator\Debug/../firmware/drivers/mss_sys_services/mss_comblk.c:664
        g_request_in_progress = 0u;
20002552:	4b05      	ldr	r3, [pc, #20]	; (20002568 <complete_request+0x3c>)
20002554:	2200      	movs	r2, #0
20002556:	701a      	strb	r2, [r3, #0]
E:\Github_Repos\SF2_Eth_FFT\Softconsole\FFT_Accelerator\Debug/../firmware/drivers/mss_sys_services/mss_comblk.c:666
    }
}
20002558:	bf00      	nop
2000255a:	3708      	adds	r7, #8
2000255c:	46bd      	mov	sp, r7
2000255e:	bd80      	pop	{r7, pc}
20002560:	20008078 	.word	0x20008078
20002564:	20008070 	.word	0x20008070
20002568:	20008080 	.word	0x20008080

2000256c <abort_current_cmd>:
abort_current_cmd():
E:\Github_Repos\SF2_Eth_FFT\Softconsole\FFT_Accelerator\Debug/../firmware/drivers/mss_sys_services/mss_comblk.c:672

/*==============================================================================
 *
 */
static void abort_current_cmd(void)
{
2000256c:	b580      	push	{r7, lr}
2000256e:	b082      	sub	sp, #8
20002570:	af00      	add	r7, sp, #0
E:\Github_Repos\SF2_Eth_FFT\Softconsole\FFT_Accelerator\Debug/../firmware/drivers/mss_sys_services/mss_comblk.c:673
    if(g_request_in_progress)
20002572:	4b0e      	ldr	r3, [pc, #56]	; (200025ac <abort_current_cmd+0x40>)
20002574:	781b      	ldrb	r3, [r3, #0]
20002576:	b2db      	uxtb	r3, r3
20002578:	2b00      	cmp	r3, #0
2000257a:	d013      	beq.n	200025a4 <abort_current_cmd+0x38>
E:\Github_Repos\SF2_Eth_FFT\Softconsole\FFT_Accelerator\Debug/../firmware/drivers/mss_sys_services/mss_comblk.c:681
        
        /*
         * Call completion handler just in case we are in a multi threaded system
         * to avoid a task lockup.
         */
        complete_request(g_comblk_response_idx);
2000257c:	4b0c      	ldr	r3, [pc, #48]	; (200025b0 <abort_current_cmd+0x44>)
2000257e:	881b      	ldrh	r3, [r3, #0]
20002580:	b29b      	uxth	r3, r3
20002582:	4618      	mov	r0, r3
20002584:	f7ff ffd2 	bl	2000252c <complete_request>
E:\Github_Repos\SF2_Eth_FFT\Softconsole\FFT_Accelerator\Debug/../firmware/drivers/mss_sys_services/mss_comblk.c:686
        
        /*
         * Flush the FIFOs
         */
        COMBLK->CONTROL |= CR_FLUSHOUT_MASK;
20002588:	4b0a      	ldr	r3, [pc, #40]	; (200025b4 <abort_current_cmd+0x48>)
2000258a:	681b      	ldr	r3, [r3, #0]
2000258c:	4a09      	ldr	r2, [pc, #36]	; (200025b4 <abort_current_cmd+0x48>)
2000258e:	f043 0301 	orr.w	r3, r3, #1
20002592:	6013      	str	r3, [r2, #0]
E:\Github_Repos\SF2_Eth_FFT\Softconsole\FFT_Accelerator\Debug/../firmware/drivers/mss_sys_services/mss_comblk.c:688 (discriminator 1)
        do {
            flush_in_progress = COMBLK->CONTROL & CR_FLUSHOUT_MASK;
20002594:	4b07      	ldr	r3, [pc, #28]	; (200025b4 <abort_current_cmd+0x48>)
20002596:	681b      	ldr	r3, [r3, #0]
20002598:	f003 0301 	and.w	r3, r3, #1
2000259c:	607b      	str	r3, [r7, #4]
E:\Github_Repos\SF2_Eth_FFT\Softconsole\FFT_Accelerator\Debug/../firmware/drivers/mss_sys_services/mss_comblk.c:689 (discriminator 1)
        } while(flush_in_progress);
2000259e:	687b      	ldr	r3, [r7, #4]
200025a0:	2b00      	cmp	r3, #0
200025a2:	d1f7      	bne.n	20002594 <abort_current_cmd+0x28>
E:\Github_Repos\SF2_Eth_FFT\Softconsole\FFT_Accelerator\Debug/../firmware/drivers/mss_sys_services/mss_comblk.c:691
    }
}
200025a4:	bf00      	nop
200025a6:	3708      	adds	r7, #8
200025a8:	46bd      	mov	sp, r7
200025aa:	bd80      	pop	{r7, pc}
200025ac:	20008080 	.word	0x20008080
200025b0:	20008076 	.word	0x20008076
200025b4:	40016000 	.word	0x40016000

200025b8 <fill_tx_fifo>:
fill_tx_fifo():
E:\Github_Repos\SF2_Eth_FFT\Softconsole\FFT_Accelerator\Debug/../firmware/drivers/mss_sys_services/mss_comblk.c:723
static uint32_t fill_tx_fifo
(
    const uint8_t * p_cmd,
    uint32_t cmd_size
)
{
200025b8:	b480      	push	{r7}
200025ba:	b085      	sub	sp, #20
200025bc:	af00      	add	r7, sp, #0
200025be:	6078      	str	r0, [r7, #4]
200025c0:	6039      	str	r1, [r7, #0]
E:\Github_Repos\SF2_Eth_FFT\Softconsole\FFT_Accelerator\Debug/../firmware/drivers/mss_sys_services/mss_comblk.c:728
    volatile uint32_t tx_okay;
    uint32_t size_sent;

    /* Set transmit FIFO to transfer bytes. */
    COMBLK->CONTROL &= ~CR_SIZETX_MASK;
200025c2:	4b14      	ldr	r3, [pc, #80]	; (20002614 <fill_tx_fifo+0x5c>)
200025c4:	681b      	ldr	r3, [r3, #0]
200025c6:	4a13      	ldr	r2, [pc, #76]	; (20002614 <fill_tx_fifo+0x5c>)
200025c8:	f023 0304 	bic.w	r3, r3, #4
200025cc:	6013      	str	r3, [r2, #0]
E:\Github_Repos\SF2_Eth_FFT\Softconsole\FFT_Accelerator\Debug/../firmware/drivers/mss_sys_services/mss_comblk.c:730
    
    size_sent = 0u;
200025ce:	2300      	movs	r3, #0
200025d0:	60fb      	str	r3, [r7, #12]
E:\Github_Repos\SF2_Eth_FFT\Softconsole\FFT_Accelerator\Debug/../firmware/drivers/mss_sys_services/mss_comblk.c:731
    tx_okay = COMBLK->STATUS & TXTOKAY_MASK;
200025d2:	4b10      	ldr	r3, [pc, #64]	; (20002614 <fill_tx_fifo+0x5c>)
200025d4:	685b      	ldr	r3, [r3, #4]
200025d6:	f003 0301 	and.w	r3, r3, #1
200025da:	60bb      	str	r3, [r7, #8]
E:\Github_Repos\SF2_Eth_FFT\Softconsole\FFT_Accelerator\Debug/../firmware/drivers/mss_sys_services/mss_comblk.c:732
    while((tx_okay != 0u) && (size_sent < cmd_size))
200025dc:	e00d      	b.n	200025fa <fill_tx_fifo+0x42>
E:\Github_Repos\SF2_Eth_FFT\Softconsole\FFT_Accelerator\Debug/../firmware/drivers/mss_sys_services/mss_comblk.c:734
    {
        COMBLK->DATA8 = p_cmd[size_sent];
200025de:	687a      	ldr	r2, [r7, #4]
200025e0:	68fb      	ldr	r3, [r7, #12]
200025e2:	4413      	add	r3, r2
200025e4:	781a      	ldrb	r2, [r3, #0]
200025e6:	4b0b      	ldr	r3, [pc, #44]	; (20002614 <fill_tx_fifo+0x5c>)
200025e8:	611a      	str	r2, [r3, #16]
E:\Github_Repos\SF2_Eth_FFT\Softconsole\FFT_Accelerator\Debug/../firmware/drivers/mss_sys_services/mss_comblk.c:735
        ++size_sent;
200025ea:	68fb      	ldr	r3, [r7, #12]
200025ec:	3301      	adds	r3, #1
200025ee:	60fb      	str	r3, [r7, #12]
E:\Github_Repos\SF2_Eth_FFT\Softconsole\FFT_Accelerator\Debug/../firmware/drivers/mss_sys_services/mss_comblk.c:736
        tx_okay = COMBLK->STATUS & TXTOKAY_MASK;
200025f0:	4b08      	ldr	r3, [pc, #32]	; (20002614 <fill_tx_fifo+0x5c>)
200025f2:	685b      	ldr	r3, [r3, #4]
200025f4:	f003 0301 	and.w	r3, r3, #1
200025f8:	60bb      	str	r3, [r7, #8]
E:\Github_Repos\SF2_Eth_FFT\Softconsole\FFT_Accelerator\Debug/../firmware/drivers/mss_sys_services/mss_comblk.c:732
    while((tx_okay != 0u) && (size_sent < cmd_size))
200025fa:	68bb      	ldr	r3, [r7, #8]
200025fc:	2b00      	cmp	r3, #0
200025fe:	d003      	beq.n	20002608 <fill_tx_fifo+0x50>
E:\Github_Repos\SF2_Eth_FFT\Softconsole\FFT_Accelerator\Debug/../firmware/drivers/mss_sys_services/mss_comblk.c:732 (discriminator 1)
20002600:	68fa      	ldr	r2, [r7, #12]
20002602:	683b      	ldr	r3, [r7, #0]
20002604:	429a      	cmp	r2, r3
20002606:	d3ea      	bcc.n	200025de <fill_tx_fifo+0x26>
E:\Github_Repos\SF2_Eth_FFT\Softconsole\FFT_Accelerator\Debug/../firmware/drivers/mss_sys_services/mss_comblk.c:739
    }
    
    return size_sent;
20002608:	68fb      	ldr	r3, [r7, #12]
E:\Github_Repos\SF2_Eth_FFT\Softconsole\FFT_Accelerator\Debug/../firmware/drivers/mss_sys_services/mss_comblk.c:740
}
2000260a:	4618      	mov	r0, r3
2000260c:	3714      	adds	r7, #20
2000260e:	46bd      	mov	sp, r7
20002610:	bc80      	pop	{r7}
20002612:	4770      	bx	lr
20002614:	40016000 	.word	0x40016000

20002618 <process_sys_ctrl_command>:
process_sys_ctrl_command():
E:\Github_Repos\SF2_Eth_FFT\Softconsole\FFT_Accelerator\Debug/../firmware/drivers/mss_sys_services/mss_comblk.c:746

/*==============================================================================
 *
 */
static void process_sys_ctrl_command(uint8_t cmd_opcode)
{
20002618:	b580      	push	{r7, lr}
2000261a:	b082      	sub	sp, #8
2000261c:	af00      	add	r7, sp, #0
2000261e:	4603      	mov	r3, r0
20002620:	71fb      	strb	r3, [r7, #7]
E:\Github_Repos\SF2_Eth_FFT\Softconsole\FFT_Accelerator\Debug/../firmware/drivers/mss_sys_services/mss_comblk.c:747
    if(g_async_event_handler != 0)
20002622:	4b06      	ldr	r3, [pc, #24]	; (2000263c <process_sys_ctrl_command+0x24>)
20002624:	681b      	ldr	r3, [r3, #0]
20002626:	2b00      	cmp	r3, #0
20002628:	d004      	beq.n	20002634 <process_sys_ctrl_command+0x1c>
E:\Github_Repos\SF2_Eth_FFT\Softconsole\FFT_Accelerator\Debug/../firmware/drivers/mss_sys_services/mss_comblk.c:749
    {
        g_async_event_handler(cmd_opcode);
2000262a:	4b04      	ldr	r3, [pc, #16]	; (2000263c <process_sys_ctrl_command+0x24>)
2000262c:	681b      	ldr	r3, [r3, #0]
2000262e:	79fa      	ldrb	r2, [r7, #7]
20002630:	4610      	mov	r0, r2
20002632:	4798      	blx	r3
E:\Github_Repos\SF2_Eth_FFT\Softconsole\FFT_Accelerator\Debug/../firmware/drivers/mss_sys_services/mss_comblk.c:751
    }
}
20002634:	bf00      	nop
20002636:	3708      	adds	r7, #8
20002638:	46bd      	mov	sp, r7
2000263a:	bd80      	pop	{r7, pc}
2000263c:	20008084 	.word	0x20008084

20002640 <start_transfer>:
start_transfer():
E:\Github_Repos\SF2_Eth_FFT\Softconsole\FFT_Accelerator\Debug/../firmware/drivers/mss_hpdma/mss_hpdma.c:197
    uint32_t src_addr,
    uint32_t dest_addr,
    uint32_t transfer_size,
    uint8_t transfer_dir
)
{
20002640:	b480      	push	{r7}
20002642:	b085      	sub	sp, #20
20002644:	af00      	add	r7, sp, #0
20002646:	60f8      	str	r0, [r7, #12]
20002648:	60b9      	str	r1, [r7, #8]
2000264a:	607a      	str	r2, [r7, #4]
2000264c:	70fb      	strb	r3, [r7, #3]
E:\Github_Repos\SF2_Eth_FFT\Softconsole\FFT_Accelerator\Debug/../firmware/drivers/mss_hpdma/mss_hpdma.c:199
    /* Set descriptor transfer direction */
    HPDMA_BITBAND->Descriptor[g_hpdma_end_desc].HPDMACR_DCP_XFR_DIR = transfer_dir;
2000264e:	484d      	ldr	r0, [pc, #308]	; (20002784 <start_transfer+0x144>)
20002650:	4b4d      	ldr	r3, [pc, #308]	; (20002788 <start_transfer+0x148>)
20002652:	681a      	ldr	r2, [r3, #0]
20002654:	78f9      	ldrb	r1, [r7, #3]
20002656:	4613      	mov	r3, r2
20002658:	009b      	lsls	r3, r3, #2
2000265a:	4413      	add	r3, r2
2000265c:	01db      	lsls	r3, r3, #7
2000265e:	4403      	add	r3, r0
20002660:	f503 73e2 	add.w	r3, r3, #452	; 0x1c4
20002664:	6019      	str	r1, [r3, #0]
E:\Github_Repos\SF2_Eth_FFT\Softconsole\FFT_Accelerator\Debug/../firmware/drivers/mss_hpdma/mss_hpdma.c:202
    
    /* Store Source and destination Address */
    HPDMA->Descriptor[g_hpdma_end_desc].HPDMASAR_REG = src_addr;
20002666:	4949      	ldr	r1, [pc, #292]	; (2000278c <start_transfer+0x14c>)
20002668:	4b47      	ldr	r3, [pc, #284]	; (20002788 <start_transfer+0x148>)
2000266a:	681a      	ldr	r2, [r3, #0]
2000266c:	4613      	mov	r3, r2
2000266e:	009b      	lsls	r3, r3, #2
20002670:	4413      	add	r3, r2
20002672:	009b      	lsls	r3, r3, #2
20002674:	440b      	add	r3, r1
20002676:	3304      	adds	r3, #4
20002678:	68fa      	ldr	r2, [r7, #12]
2000267a:	601a      	str	r2, [r3, #0]
E:\Github_Repos\SF2_Eth_FFT\Softconsole\FFT_Accelerator\Debug/../firmware/drivers/mss_hpdma/mss_hpdma.c:203
    HPDMA->Descriptor[g_hpdma_end_desc].HPDMADAR_REG = dest_addr;
2000267c:	4943      	ldr	r1, [pc, #268]	; (2000278c <start_transfer+0x14c>)
2000267e:	4b42      	ldr	r3, [pc, #264]	; (20002788 <start_transfer+0x148>)
20002680:	681a      	ldr	r2, [r3, #0]
20002682:	4613      	mov	r3, r2
20002684:	009b      	lsls	r3, r3, #2
20002686:	4413      	add	r3, r2
20002688:	009b      	lsls	r3, r3, #2
2000268a:	440b      	add	r3, r1
2000268c:	3308      	adds	r3, #8
2000268e:	68ba      	ldr	r2, [r7, #8]
20002690:	601a      	str	r2, [r3, #0]
E:\Github_Repos\SF2_Eth_FFT\Softconsole\FFT_Accelerator\Debug/../firmware/drivers/mss_hpdma/mss_hpdma.c:206
    
    /* Set the transfer size to 64K */
    HPDMA->Descriptor[g_hpdma_end_desc].HPDMACR_REG &= HPDMA_XFR_SIZE_MASK;
20002692:	493e      	ldr	r1, [pc, #248]	; (2000278c <start_transfer+0x14c>)
20002694:	4b3c      	ldr	r3, [pc, #240]	; (20002788 <start_transfer+0x148>)
20002696:	681a      	ldr	r2, [r3, #0]
20002698:	4613      	mov	r3, r2
2000269a:	009b      	lsls	r3, r3, #2
2000269c:	4413      	add	r3, r2
2000269e:	009b      	lsls	r3, r3, #2
200026a0:	440b      	add	r3, r1
200026a2:	330c      	adds	r3, #12
200026a4:	681b      	ldr	r3, [r3, #0]
200026a6:	4839      	ldr	r0, [pc, #228]	; (2000278c <start_transfer+0x14c>)
200026a8:	4a37      	ldr	r2, [pc, #220]	; (20002788 <start_transfer+0x148>)
200026aa:	6811      	ldr	r1, [r2, #0]
200026ac:	0c1a      	lsrs	r2, r3, #16
200026ae:	0412      	lsls	r2, r2, #16
200026b0:	460b      	mov	r3, r1
200026b2:	009b      	lsls	r3, r3, #2
200026b4:	440b      	add	r3, r1
200026b6:	009b      	lsls	r3, r3, #2
200026b8:	4403      	add	r3, r0
200026ba:	330c      	adds	r3, #12
200026bc:	601a      	str	r2, [r3, #0]
E:\Github_Repos\SF2_Eth_FFT\Softconsole\FFT_Accelerator\Debug/../firmware/drivers/mss_hpdma/mss_hpdma.c:208
    
    if(transfer_size > MAX_SIZE_PER_DMA_XFR)
200026be:	687b      	ldr	r3, [r7, #4]
200026c0:	f5b3 3f80 	cmp.w	r3, #65536	; 0x10000
200026c4:	d90f      	bls.n	200026e6 <start_transfer+0xa6>
E:\Github_Repos\SF2_Eth_FFT\Softconsole\FFT_Accelerator\Debug/../firmware/drivers/mss_hpdma/mss_hpdma.c:210
    {
        g_transfer.xfr_size = transfer_size - MAX_SIZE_PER_DMA_XFR;
200026c6:	687b      	ldr	r3, [r7, #4]
200026c8:	f5a3 3380 	sub.w	r3, r3, #65536	; 0x10000
200026cc:	4a30      	ldr	r2, [pc, #192]	; (20002790 <start_transfer+0x150>)
200026ce:	6113      	str	r3, [r2, #16]
E:\Github_Repos\SF2_Eth_FFT\Softconsole\FFT_Accelerator\Debug/../firmware/drivers/mss_hpdma/mss_hpdma.c:211
        g_transfer.des_addr = dest_addr + MAX_SIZE_PER_DMA_XFR;
200026d0:	68bb      	ldr	r3, [r7, #8]
200026d2:	f503 3380 	add.w	r3, r3, #65536	; 0x10000
200026d6:	4a2e      	ldr	r2, [pc, #184]	; (20002790 <start_transfer+0x150>)
200026d8:	60d3      	str	r3, [r2, #12]
E:\Github_Repos\SF2_Eth_FFT\Softconsole\FFT_Accelerator\Debug/../firmware/drivers/mss_hpdma/mss_hpdma.c:212
        g_transfer.src_addr = src_addr + MAX_SIZE_PER_DMA_XFR; 
200026da:	68fb      	ldr	r3, [r7, #12]
200026dc:	f503 3380 	add.w	r3, r3, #65536	; 0x10000
200026e0:	4a2b      	ldr	r2, [pc, #172]	; (20002790 <start_transfer+0x150>)
200026e2:	6093      	str	r3, [r2, #8]
200026e4:	e01a      	b.n	2000271c <start_transfer+0xdc>
E:\Github_Repos\SF2_Eth_FFT\Softconsole\FFT_Accelerator\Debug/../firmware/drivers/mss_hpdma/mss_hpdma.c:217
    }
    else
    {
        /* Set descriptor transfer size */
        HPDMA->Descriptor[g_hpdma_end_desc].HPDMACR_REG |= (uint16_t)transfer_size;
200026e6:	4929      	ldr	r1, [pc, #164]	; (2000278c <start_transfer+0x14c>)
200026e8:	4b27      	ldr	r3, [pc, #156]	; (20002788 <start_transfer+0x148>)
200026ea:	681a      	ldr	r2, [r3, #0]
200026ec:	4613      	mov	r3, r2
200026ee:	009b      	lsls	r3, r3, #2
200026f0:	4413      	add	r3, r2
200026f2:	009b      	lsls	r3, r3, #2
200026f4:	440b      	add	r3, r1
200026f6:	330c      	adds	r3, #12
200026f8:	681b      	ldr	r3, [r3, #0]
200026fa:	687a      	ldr	r2, [r7, #4]
200026fc:	b292      	uxth	r2, r2
200026fe:	4611      	mov	r1, r2
20002700:	4822      	ldr	r0, [pc, #136]	; (2000278c <start_transfer+0x14c>)
20002702:	4a21      	ldr	r2, [pc, #132]	; (20002788 <start_transfer+0x148>)
20002704:	6812      	ldr	r2, [r2, #0]
20002706:	4319      	orrs	r1, r3
20002708:	4613      	mov	r3, r2
2000270a:	009b      	lsls	r3, r3, #2
2000270c:	4413      	add	r3, r2
2000270e:	009b      	lsls	r3, r3, #2
20002710:	4403      	add	r3, r0
20002712:	330c      	adds	r3, #12
20002714:	6019      	str	r1, [r3, #0]
E:\Github_Repos\SF2_Eth_FFT\Softconsole\FFT_Accelerator\Debug/../firmware/drivers/mss_hpdma/mss_hpdma.c:218
        g_transfer.xfr_size = 0u;     
20002716:	4b1e      	ldr	r3, [pc, #120]	; (20002790 <start_transfer+0x150>)
20002718:	2200      	movs	r2, #0
2000271a:	611a      	str	r2, [r3, #16]
E:\Github_Repos\SF2_Eth_FFT\Softconsole\FFT_Accelerator\Debug/../firmware/drivers/mss_hpdma/mss_hpdma.c:221
    }    
    /* Enable interrupts for the requested descriptor. */
    HPDMA->Descriptor[g_hpdma_end_desc].HPDMACR_REG |= HPDMACR_ALL_IRQ_ENABLE_MASK;       
2000271c:	491b      	ldr	r1, [pc, #108]	; (2000278c <start_transfer+0x14c>)
2000271e:	4b1a      	ldr	r3, [pc, #104]	; (20002788 <start_transfer+0x148>)
20002720:	681a      	ldr	r2, [r3, #0]
20002722:	4613      	mov	r3, r2
20002724:	009b      	lsls	r3, r3, #2
20002726:	4413      	add	r3, r2
20002728:	009b      	lsls	r3, r3, #2
2000272a:	440b      	add	r3, r1
2000272c:	330c      	adds	r3, #12
2000272e:	681b      	ldr	r3, [r3, #0]
20002730:	4816      	ldr	r0, [pc, #88]	; (2000278c <start_transfer+0x14c>)
20002732:	4a15      	ldr	r2, [pc, #84]	; (20002788 <start_transfer+0x148>)
20002734:	6812      	ldr	r2, [r2, #0]
20002736:	f443 01e0 	orr.w	r1, r3, #7340032	; 0x700000
2000273a:	4613      	mov	r3, r2
2000273c:	009b      	lsls	r3, r3, #2
2000273e:	4413      	add	r3, r2
20002740:	009b      	lsls	r3, r3, #2
20002742:	4403      	add	r3, r0
20002744:	330c      	adds	r3, #12
20002746:	6019      	str	r1, [r3, #0]
E:\Github_Repos\SF2_Eth_FFT\Softconsole\FFT_Accelerator\Debug/../firmware/drivers/mss_hpdma/mss_hpdma.c:223
    /* Set valid descriptor to start transfer */
    HPDMA_BITBAND->Descriptor[g_hpdma_end_desc].HPDMACR_DCP_VALID = HPDMA_ENABLE;  
20002748:	490e      	ldr	r1, [pc, #56]	; (20002784 <start_transfer+0x144>)
2000274a:	4b0f      	ldr	r3, [pc, #60]	; (20002788 <start_transfer+0x148>)
2000274c:	681a      	ldr	r2, [r3, #0]
2000274e:	4613      	mov	r3, r2
20002750:	009b      	lsls	r3, r3, #2
20002752:	4413      	add	r3, r2
20002754:	01db      	lsls	r3, r3, #7
20002756:	440b      	add	r3, r1
20002758:	f503 73e0 	add.w	r3, r3, #448	; 0x1c0
2000275c:	2201      	movs	r2, #1
2000275e:	601a      	str	r2, [r3, #0]
E:\Github_Repos\SF2_Eth_FFT\Softconsole\FFT_Accelerator\Debug/../firmware/drivers/mss_hpdma/mss_hpdma.c:225
    /* Start transfer */
    HPDMA_BITBAND->Descriptor[g_hpdma_end_desc].HPDMACR_DCP_PAUSE = HPDMA_DISABLE;        
20002760:	4908      	ldr	r1, [pc, #32]	; (20002784 <start_transfer+0x144>)
20002762:	4b09      	ldr	r3, [pc, #36]	; (20002788 <start_transfer+0x148>)
20002764:	681a      	ldr	r2, [r3, #0]
20002766:	4613      	mov	r3, r2
20002768:	009b      	lsls	r3, r3, #2
2000276a:	4413      	add	r3, r2
2000276c:	01db      	lsls	r3, r3, #7
2000276e:	440b      	add	r3, r1
20002770:	f503 73e6 	add.w	r3, r3, #460	; 0x1cc
20002774:	2200      	movs	r2, #0
20002776:	601a      	str	r2, [r3, #0]
E:\Github_Repos\SF2_Eth_FFT\Softconsole\FFT_Accelerator\Debug/../firmware/drivers/mss_hpdma/mss_hpdma.c:226
}
20002778:	bf00      	nop
2000277a:	3714      	adds	r7, #20
2000277c:	46bd      	mov	sp, r7
2000277e:	bc80      	pop	{r7}
20002780:	4770      	bx	lr
20002782:	bf00      	nop
20002784:	42280000 	.word	0x42280000
20002788:	200080a0 	.word	0x200080a0
2000278c:	40014000 	.word	0x40014000
20002790:	20008088 	.word	0x20008088

20002794 <HPDMA_Complete_IRQHandler>:
HPDMA_Complete_IRQHandler():
E:\Github_Repos\SF2_Eth_FFT\Softconsole\FFT_Accelerator\Debug/../firmware/drivers/mss_hpdma/mss_hpdma.c:313
#if defined(__GNUC__)
__attribute__((__interrupt__)) void HPDMA_Complete_IRQHandler(void)
#else
void HPDMA_Complete_IRQHandler(void)
#endif 
{
20002794:	4668      	mov	r0, sp
20002796:	f020 0107 	bic.w	r1, r0, #7
2000279a:	468d      	mov	sp, r1
2000279c:	b589      	push	{r0, r3, r7, lr}
2000279e:	af00      	add	r7, sp, #0
E:\Github_Repos\SF2_Eth_FFT\Softconsole\FFT_Accelerator\Debug/../firmware/drivers/mss_hpdma/mss_hpdma.c:315
    /* Clear interrupt */
    HPDMA_BITBAND->HPDMAICR_CLR_XFR_INT[g_hpdma_current_desc] = HPDMA_ENABLE;
200027a0:	4a35      	ldr	r2, [pc, #212]	; (20002878 <HPDMA_Complete_IRQHandler+0xe4>)
200027a2:	4b36      	ldr	r3, [pc, #216]	; (2000287c <HPDMA_Complete_IRQHandler+0xe8>)
200027a4:	681b      	ldr	r3, [r3, #0]
200027a6:	f503 7328 	add.w	r3, r3, #672	; 0x2a0
200027aa:	2101      	movs	r1, #1
200027ac:	f842 1023 	str.w	r1, [r2, r3, lsl #2]
E:\Github_Repos\SF2_Eth_FFT\Softconsole\FFT_Accelerator\Debug/../firmware/drivers/mss_hpdma/mss_hpdma.c:317
    /* Disable interrupts */
    HPDMA->Descriptor[g_hpdma_current_desc].HPDMACR_REG &= ~HPDMACR_ALL_IRQ_ENABLE_MASK;
200027b0:	4933      	ldr	r1, [pc, #204]	; (20002880 <HPDMA_Complete_IRQHandler+0xec>)
200027b2:	4b32      	ldr	r3, [pc, #200]	; (2000287c <HPDMA_Complete_IRQHandler+0xe8>)
200027b4:	681a      	ldr	r2, [r3, #0]
200027b6:	4613      	mov	r3, r2
200027b8:	009b      	lsls	r3, r3, #2
200027ba:	4413      	add	r3, r2
200027bc:	009b      	lsls	r3, r3, #2
200027be:	440b      	add	r3, r1
200027c0:	330c      	adds	r3, #12
200027c2:	681b      	ldr	r3, [r3, #0]
200027c4:	482e      	ldr	r0, [pc, #184]	; (20002880 <HPDMA_Complete_IRQHandler+0xec>)
200027c6:	4a2d      	ldr	r2, [pc, #180]	; (2000287c <HPDMA_Complete_IRQHandler+0xe8>)
200027c8:	6812      	ldr	r2, [r2, #0]
200027ca:	f423 01e0 	bic.w	r1, r3, #7340032	; 0x700000
200027ce:	4613      	mov	r3, r2
200027d0:	009b      	lsls	r3, r3, #2
200027d2:	4413      	add	r3, r2
200027d4:	009b      	lsls	r3, r3, #2
200027d6:	4403      	add	r3, r0
200027d8:	330c      	adds	r3, #12
200027da:	6019      	str	r1, [r3, #0]
E:\Github_Repos\SF2_Eth_FFT\Softconsole\FFT_Accelerator\Debug/../firmware/drivers/mss_hpdma/mss_hpdma.c:319
    
    ++g_hpdma_current_desc;
200027dc:	4b27      	ldr	r3, [pc, #156]	; (2000287c <HPDMA_Complete_IRQHandler+0xe8>)
200027de:	681b      	ldr	r3, [r3, #0]
200027e0:	3301      	adds	r3, #1
200027e2:	4a26      	ldr	r2, [pc, #152]	; (2000287c <HPDMA_Complete_IRQHandler+0xe8>)
200027e4:	6013      	str	r3, [r2, #0]
E:\Github_Repos\SF2_Eth_FFT\Softconsole\FFT_Accelerator\Debug/../firmware/drivers/mss_hpdma/mss_hpdma.c:321
    
    if(NO_OF_HPDMA_DESCRIPTORS == g_hpdma_current_desc)
200027e6:	4b25      	ldr	r3, [pc, #148]	; (2000287c <HPDMA_Complete_IRQHandler+0xe8>)
200027e8:	681b      	ldr	r3, [r3, #0]
200027ea:	2b04      	cmp	r3, #4
200027ec:	d102      	bne.n	200027f4 <HPDMA_Complete_IRQHandler+0x60>
E:\Github_Repos\SF2_Eth_FFT\Softconsole\FFT_Accelerator\Debug/../firmware/drivers/mss_hpdma/mss_hpdma.c:323
    {
        g_hpdma_current_desc = 0u;
200027ee:	4b23      	ldr	r3, [pc, #140]	; (2000287c <HPDMA_Complete_IRQHandler+0xe8>)
200027f0:	2200      	movs	r2, #0
200027f2:	601a      	str	r2, [r3, #0]
E:\Github_Repos\SF2_Eth_FFT\Softconsole\FFT_Accelerator\Debug/../firmware/drivers/mss_hpdma/mss_hpdma.c:326
    } 
    
    if(g_transfer.xfr_size > 0u)
200027f4:	4b23      	ldr	r3, [pc, #140]	; (20002884 <HPDMA_Complete_IRQHandler+0xf0>)
200027f6:	691b      	ldr	r3, [r3, #16]
200027f8:	2b00      	cmp	r3, #0
200027fa:	d017      	beq.n	2000282c <HPDMA_Complete_IRQHandler+0x98>
E:\Github_Repos\SF2_Eth_FFT\Softconsole\FFT_Accelerator\Debug/../firmware/drivers/mss_hpdma/mss_hpdma.c:328
    {
        if(NO_OF_HPDMA_DESCRIPTORS == g_hpdma_end_desc)
200027fc:	4b22      	ldr	r3, [pc, #136]	; (20002888 <HPDMA_Complete_IRQHandler+0xf4>)
200027fe:	681b      	ldr	r3, [r3, #0]
20002800:	2b04      	cmp	r3, #4
20002802:	d103      	bne.n	2000280c <HPDMA_Complete_IRQHandler+0x78>
E:\Github_Repos\SF2_Eth_FFT\Softconsole\FFT_Accelerator\Debug/../firmware/drivers/mss_hpdma/mss_hpdma.c:330
        {
            g_hpdma_end_desc = 0u;
20002804:	4b20      	ldr	r3, [pc, #128]	; (20002888 <HPDMA_Complete_IRQHandler+0xf4>)
20002806:	2200      	movs	r2, #0
20002808:	601a      	str	r2, [r3, #0]
2000280a:	e004      	b.n	20002816 <HPDMA_Complete_IRQHandler+0x82>
E:\Github_Repos\SF2_Eth_FFT\Softconsole\FFT_Accelerator\Debug/../firmware/drivers/mss_hpdma/mss_hpdma.c:334
        }
        else
        {
            ++g_hpdma_end_desc;
2000280c:	4b1e      	ldr	r3, [pc, #120]	; (20002888 <HPDMA_Complete_IRQHandler+0xf4>)
2000280e:	681b      	ldr	r3, [r3, #0]
20002810:	3301      	adds	r3, #1
20002812:	4a1d      	ldr	r2, [pc, #116]	; (20002888 <HPDMA_Complete_IRQHandler+0xf4>)
20002814:	6013      	str	r3, [r2, #0]
E:\Github_Repos\SF2_Eth_FFT\Softconsole\FFT_Accelerator\Debug/../firmware/drivers/mss_hpdma/mss_hpdma.c:336
        }
        start_transfer(g_transfer.src_addr,
20002816:	4b1b      	ldr	r3, [pc, #108]	; (20002884 <HPDMA_Complete_IRQHandler+0xf0>)
20002818:	6898      	ldr	r0, [r3, #8]
2000281a:	4b1a      	ldr	r3, [pc, #104]	; (20002884 <HPDMA_Complete_IRQHandler+0xf0>)
2000281c:	68d9      	ldr	r1, [r3, #12]
2000281e:	4b19      	ldr	r3, [pc, #100]	; (20002884 <HPDMA_Complete_IRQHandler+0xf0>)
20002820:	691a      	ldr	r2, [r3, #16]
20002822:	4b18      	ldr	r3, [pc, #96]	; (20002884 <HPDMA_Complete_IRQHandler+0xf0>)
20002824:	7d1b      	ldrb	r3, [r3, #20]
20002826:	f7ff ff0b 	bl	20002640 <start_transfer>
E:\Github_Repos\SF2_Eth_FFT\Softconsole\FFT_Accelerator\Debug/../firmware/drivers/mss_hpdma/mss_hpdma.c:355
            {
                (*(g_transfer.completion_handler))(HPDMA_COMPLETED);
            }  
        }
    }
}
2000282a:	e01e      	b.n	2000286a <HPDMA_Complete_IRQHandler+0xd6>
E:\Github_Repos\SF2_Eth_FFT\Softconsole\FFT_Accelerator\Debug/../firmware/drivers/mss_hpdma/mss_hpdma.c:343
        if(((HPDMA->Descriptor[g_hpdma_current_desc].HPDMACR_REG) & HPDMACR_ALL_IRQ_ENABLE_MASK) == 0u)  
2000282c:	4914      	ldr	r1, [pc, #80]	; (20002880 <HPDMA_Complete_IRQHandler+0xec>)
2000282e:	4b13      	ldr	r3, [pc, #76]	; (2000287c <HPDMA_Complete_IRQHandler+0xe8>)
20002830:	681a      	ldr	r2, [r3, #0]
20002832:	4613      	mov	r3, r2
20002834:	009b      	lsls	r3, r3, #2
20002836:	4413      	add	r3, r2
20002838:	009b      	lsls	r3, r3, #2
2000283a:	440b      	add	r3, r1
2000283c:	330c      	adds	r3, #12
2000283e:	681b      	ldr	r3, [r3, #0]
20002840:	f403 03e0 	and.w	r3, r3, #7340032	; 0x700000
20002844:	2b00      	cmp	r3, #0
20002846:	d110      	bne.n	2000286a <HPDMA_Complete_IRQHandler+0xd6>
E:\Github_Repos\SF2_Eth_FFT\Softconsole\FFT_Accelerator\Debug/../firmware/drivers/mss_hpdma/mss_hpdma.c:345
            g_hpdma_current_desc = 0u;
20002848:	4b0c      	ldr	r3, [pc, #48]	; (2000287c <HPDMA_Complete_IRQHandler+0xe8>)
2000284a:	2200      	movs	r2, #0
2000284c:	601a      	str	r2, [r3, #0]
E:\Github_Repos\SF2_Eth_FFT\Softconsole\FFT_Accelerator\Debug/../firmware/drivers/mss_hpdma/mss_hpdma.c:346
            g_hpdma_end_desc = 0u;
2000284e:	4b0e      	ldr	r3, [pc, #56]	; (20002888 <HPDMA_Complete_IRQHandler+0xf4>)
20002850:	2200      	movs	r2, #0
20002852:	601a      	str	r2, [r3, #0]
E:\Github_Repos\SF2_Eth_FFT\Softconsole\FFT_Accelerator\Debug/../firmware/drivers/mss_hpdma/mss_hpdma.c:348
            g_transfer.state = HPDMA_COMPLETED;
20002854:	4b0b      	ldr	r3, [pc, #44]	; (20002884 <HPDMA_Complete_IRQHandler+0xf0>)
20002856:	2201      	movs	r2, #1
20002858:	701a      	strb	r2, [r3, #0]
E:\Github_Repos\SF2_Eth_FFT\Softconsole\FFT_Accelerator\Debug/../firmware/drivers/mss_hpdma/mss_hpdma.c:349
            if(g_transfer.completion_handler != NULL_HANDLER)
2000285a:	4b0a      	ldr	r3, [pc, #40]	; (20002884 <HPDMA_Complete_IRQHandler+0xf0>)
2000285c:	685b      	ldr	r3, [r3, #4]
2000285e:	2b00      	cmp	r3, #0
20002860:	d003      	beq.n	2000286a <HPDMA_Complete_IRQHandler+0xd6>
E:\Github_Repos\SF2_Eth_FFT\Softconsole\FFT_Accelerator\Debug/../firmware/drivers/mss_hpdma/mss_hpdma.c:351
                (*(g_transfer.completion_handler))(HPDMA_COMPLETED);
20002862:	4b08      	ldr	r3, [pc, #32]	; (20002884 <HPDMA_Complete_IRQHandler+0xf0>)
20002864:	685b      	ldr	r3, [r3, #4]
20002866:	2001      	movs	r0, #1
20002868:	4798      	blx	r3
E:\Github_Repos\SF2_Eth_FFT\Softconsole\FFT_Accelerator\Debug/../firmware/drivers/mss_hpdma/mss_hpdma.c:355
}
2000286a:	bf00      	nop
2000286c:	46bd      	mov	sp, r7
2000286e:	e8bd 4089 	ldmia.w	sp!, {r0, r3, r7, lr}
20002872:	4685      	mov	sp, r0
20002874:	4770      	bx	lr
20002876:	bf00      	nop
20002878:	42280000 	.word	0x42280000
2000287c:	200080a4 	.word	0x200080a4
20002880:	40014000 	.word	0x40014000
20002884:	20008088 	.word	0x20008088
20002888:	200080a0 	.word	0x200080a0

2000288c <HPDMA_Error_IRQHandler>:
HPDMA_Error_IRQHandler():
E:\Github_Repos\SF2_Eth_FFT\Softconsole\FFT_Accelerator\Debug/../firmware/drivers/mss_hpdma/mss_hpdma.c:367
#if defined(__GNUC__)
__attribute__((__interrupt__)) void HPDMA_Error_IRQHandler(void)
#else
void HPDMA_Error_IRQHandler(void)
#endif 
{
2000288c:	4668      	mov	r0, sp
2000288e:	f020 0107 	bic.w	r1, r0, #7
20002892:	468d      	mov	sp, r1
20002894:	b581      	push	{r0, r7, lr}
20002896:	b083      	sub	sp, #12
20002898:	af00      	add	r7, sp, #0
E:\Github_Repos\SF2_Eth_FFT\Softconsole\FFT_Accelerator\Debug/../firmware/drivers/mss_hpdma/mss_hpdma.c:374
    uint32_t inc;

    /*
     * Handle source/destination errors.
     */
    error_bits = HPDMA->HPDMAEDR_REG;
2000289a:	4b38      	ldr	r3, [pc, #224]	; (2000297c <HPDMA_Error_IRQHandler+0xf0>)
2000289c:	681b      	ldr	r3, [r3, #0]
2000289e:	603b      	str	r3, [r7, #0]
E:\Github_Repos\SF2_Eth_FFT\Softconsole\FFT_Accelerator\Debug/../firmware/drivers/mss_hpdma/mss_hpdma.c:375
    error_bits = error_bits & HPDMAEDR_DCP_ERR_MASK;
200028a0:	683b      	ldr	r3, [r7, #0]
200028a2:	f403 6370 	and.w	r3, r3, #3840	; 0xf00
200028a6:	603b      	str	r3, [r7, #0]
E:\Github_Repos\SF2_Eth_FFT\Softconsole\FFT_Accelerator\Debug/../firmware/drivers/mss_hpdma/mss_hpdma.c:377
    
    if(error_bits != 0u)
200028a8:	683b      	ldr	r3, [r7, #0]
200028aa:	2b00      	cmp	r3, #0
200028ac:	d02f      	beq.n	2000290e <HPDMA_Error_IRQHandler+0x82>
E:\Github_Repos\SF2_Eth_FFT\Softconsole\FFT_Accelerator\Debug/../firmware/drivers/mss_hpdma/mss_hpdma.c:379
    {
        if(HPDMA_BITBAND->Descriptor[g_hpdma_current_desc].HPDMASR_DCP_SERR != 0u)
200028ae:	4934      	ldr	r1, [pc, #208]	; (20002980 <HPDMA_Error_IRQHandler+0xf4>)
200028b0:	4b34      	ldr	r3, [pc, #208]	; (20002984 <HPDMA_Error_IRQHandler+0xf8>)
200028b2:	681a      	ldr	r2, [r3, #0]
200028b4:	4613      	mov	r3, r2
200028b6:	009b      	lsls	r3, r3, #2
200028b8:	4413      	add	r3, r2
200028ba:	01db      	lsls	r3, r3, #7
200028bc:	440b      	add	r3, r1
200028be:	f503 7302 	add.w	r3, r3, #520	; 0x208
200028c2:	681b      	ldr	r3, [r3, #0]
200028c4:	2b00      	cmp	r3, #0
200028c6:	d00a      	beq.n	200028de <HPDMA_Error_IRQHandler+0x52>
E:\Github_Repos\SF2_Eth_FFT\Softconsole\FFT_Accelerator\Debug/../firmware/drivers/mss_hpdma/mss_hpdma.c:381
        {
            g_transfer.state = HPDMA_SOURCE_ERROR;
200028c8:	4b2f      	ldr	r3, [pc, #188]	; (20002988 <HPDMA_Error_IRQHandler+0xfc>)
200028ca:	2202      	movs	r2, #2
200028cc:	701a      	strb	r2, [r3, #0]
E:\Github_Repos\SF2_Eth_FFT\Softconsole\FFT_Accelerator\Debug/../firmware/drivers/mss_hpdma/mss_hpdma.c:382
            if(g_transfer.completion_handler != NULL_HANDLER)
200028ce:	4b2e      	ldr	r3, [pc, #184]	; (20002988 <HPDMA_Error_IRQHandler+0xfc>)
200028d0:	685b      	ldr	r3, [r3, #4]
200028d2:	2b00      	cmp	r3, #0
200028d4:	d003      	beq.n	200028de <HPDMA_Error_IRQHandler+0x52>
E:\Github_Repos\SF2_Eth_FFT\Softconsole\FFT_Accelerator\Debug/../firmware/drivers/mss_hpdma/mss_hpdma.c:384
            {                        
                (*(g_transfer.completion_handler))(HPDMA_SOURCE_ERROR);
200028d6:	4b2c      	ldr	r3, [pc, #176]	; (20002988 <HPDMA_Error_IRQHandler+0xfc>)
200028d8:	685b      	ldr	r3, [r3, #4]
200028da:	2002      	movs	r0, #2
200028dc:	4798      	blx	r3
E:\Github_Repos\SF2_Eth_FFT\Softconsole\FFT_Accelerator\Debug/../firmware/drivers/mss_hpdma/mss_hpdma.c:388
            }
        }
        
        if(HPDMA_BITBAND->Descriptor[g_hpdma_current_desc].HPDMASR_DCP_DERR != 0u)
200028de:	4928      	ldr	r1, [pc, #160]	; (20002980 <HPDMA_Error_IRQHandler+0xf4>)
200028e0:	4b28      	ldr	r3, [pc, #160]	; (20002984 <HPDMA_Error_IRQHandler+0xf8>)
200028e2:	681a      	ldr	r2, [r3, #0]
200028e4:	4613      	mov	r3, r2
200028e6:	009b      	lsls	r3, r3, #2
200028e8:	4413      	add	r3, r2
200028ea:	01db      	lsls	r3, r3, #7
200028ec:	440b      	add	r3, r1
200028ee:	f503 7303 	add.w	r3, r3, #524	; 0x20c
200028f2:	681b      	ldr	r3, [r3, #0]
200028f4:	2b00      	cmp	r3, #0
200028f6:	d00a      	beq.n	2000290e <HPDMA_Error_IRQHandler+0x82>
E:\Github_Repos\SF2_Eth_FFT\Softconsole\FFT_Accelerator\Debug/../firmware/drivers/mss_hpdma/mss_hpdma.c:390
        {
            g_transfer.state = HPDMA_DESTINATION_ERROR;
200028f8:	4b23      	ldr	r3, [pc, #140]	; (20002988 <HPDMA_Error_IRQHandler+0xfc>)
200028fa:	2203      	movs	r2, #3
200028fc:	701a      	strb	r2, [r3, #0]
E:\Github_Repos\SF2_Eth_FFT\Softconsole\FFT_Accelerator\Debug/../firmware/drivers/mss_hpdma/mss_hpdma.c:391
            if(g_transfer.completion_handler != NULL_HANDLER)
200028fe:	4b22      	ldr	r3, [pc, #136]	; (20002988 <HPDMA_Error_IRQHandler+0xfc>)
20002900:	685b      	ldr	r3, [r3, #4]
20002902:	2b00      	cmp	r3, #0
20002904:	d003      	beq.n	2000290e <HPDMA_Error_IRQHandler+0x82>
E:\Github_Repos\SF2_Eth_FFT\Softconsole\FFT_Accelerator\Debug/../firmware/drivers/mss_hpdma/mss_hpdma.c:393
            {                        
                (*(g_transfer.completion_handler))(HPDMA_DESTINATION_ERROR);
20002906:	4b20      	ldr	r3, [pc, #128]	; (20002988 <HPDMA_Error_IRQHandler+0xfc>)
20002908:	685b      	ldr	r3, [r3, #4]
2000290a:	2003      	movs	r0, #3
2000290c:	4798      	blx	r3
E:\Github_Repos\SF2_Eth_FFT\Softconsole\FFT_Accelerator\Debug/../firmware/drivers/mss_hpdma/mss_hpdma.c:401
    }
    
    /*
     * Handle non word aligned errors.
     */
    error_bits = HPDMA->HPDMAEDR_REG;
2000290e:	4b1b      	ldr	r3, [pc, #108]	; (2000297c <HPDMA_Error_IRQHandler+0xf0>)
20002910:	681b      	ldr	r3, [r3, #0]
20002912:	603b      	str	r3, [r7, #0]
E:\Github_Repos\SF2_Eth_FFT\Softconsole\FFT_Accelerator\Debug/../firmware/drivers/mss_hpdma/mss_hpdma.c:402
    error_bits = error_bits & HPDMAEDR_NON_WORD_ERR_MASK;
20002914:	683b      	ldr	r3, [r7, #0]
20002916:	f403 4370 	and.w	r3, r3, #61440	; 0xf000
2000291a:	603b      	str	r3, [r7, #0]
E:\Github_Repos\SF2_Eth_FFT\Softconsole\FFT_Accelerator\Debug/../firmware/drivers/mss_hpdma/mss_hpdma.c:404
    
    if(error_bits != 0u)
2000291c:	683b      	ldr	r3, [r7, #0]
2000291e:	2b00      	cmp	r3, #0
20002920:	d00a      	beq.n	20002938 <HPDMA_Error_IRQHandler+0xac>
E:\Github_Repos\SF2_Eth_FFT\Softconsole\FFT_Accelerator\Debug/../firmware/drivers/mss_hpdma/mss_hpdma.c:406
    {
        g_transfer.state = HPDMA_WORD_ALIGN_ERROR;
20002922:	4b19      	ldr	r3, [pc, #100]	; (20002988 <HPDMA_Error_IRQHandler+0xfc>)
20002924:	2204      	movs	r2, #4
20002926:	701a      	strb	r2, [r3, #0]
E:\Github_Repos\SF2_Eth_FFT\Softconsole\FFT_Accelerator\Debug/../firmware/drivers/mss_hpdma/mss_hpdma.c:408
        /* Call handler. */
        if(g_transfer.completion_handler != NULL_HANDLER)
20002928:	4b17      	ldr	r3, [pc, #92]	; (20002988 <HPDMA_Error_IRQHandler+0xfc>)
2000292a:	685b      	ldr	r3, [r3, #4]
2000292c:	2b00      	cmp	r3, #0
2000292e:	d003      	beq.n	20002938 <HPDMA_Error_IRQHandler+0xac>
E:\Github_Repos\SF2_Eth_FFT\Softconsole\FFT_Accelerator\Debug/../firmware/drivers/mss_hpdma/mss_hpdma.c:410
        {
            (*(g_transfer.completion_handler))(HPDMA_WORD_ALIGN_ERROR);
20002930:	4b15      	ldr	r3, [pc, #84]	; (20002988 <HPDMA_Error_IRQHandler+0xfc>)
20002932:	685b      	ldr	r3, [r3, #4]
20002934:	2004      	movs	r0, #4
20002936:	4798      	blx	r3
E:\Github_Repos\SF2_Eth_FFT\Softconsole\FFT_Accelerator\Debug/../firmware/drivers/mss_hpdma/mss_hpdma.c:414
        }
    }
    
    for(inc = 0u; inc < NO_OF_HPDMA_DESCRIPTORS; inc++)
20002938:	2300      	movs	r3, #0
2000293a:	607b      	str	r3, [r7, #4]
2000293c:	e014      	b.n	20002968 <HPDMA_Error_IRQHandler+0xdc>
E:\Github_Repos\SF2_Eth_FFT\Softconsole\FFT_Accelerator\Debug/../firmware/drivers/mss_hpdma/mss_hpdma.c:417 (discriminator 3)
    {
        /* Abort transfer. */
        HPDMA_BITBAND->Descriptor[inc].HPDMACR_DCP_CLR = HPDMA_ENABLE;
2000293e:	4910      	ldr	r1, [pc, #64]	; (20002980 <HPDMA_Error_IRQHandler+0xf4>)
20002940:	687a      	ldr	r2, [r7, #4]
20002942:	4613      	mov	r3, r2
20002944:	009b      	lsls	r3, r3, #2
20002946:	4413      	add	r3, r2
20002948:	01db      	lsls	r3, r3, #7
2000294a:	440b      	add	r3, r1
2000294c:	f503 73e4 	add.w	r3, r3, #456	; 0x1c8
20002950:	2201      	movs	r2, #1
20002952:	601a      	str	r2, [r3, #0]
E:\Github_Repos\SF2_Eth_FFT\Softconsole\FFT_Accelerator\Debug/../firmware/drivers/mss_hpdma/mss_hpdma.c:419 (discriminator 3)
        /* Clear interrupt. */
        HPDMA_BITBAND->HPDMAICR_CLR_XFR_INT[inc] = HPDMA_ENABLE;
20002954:	4a0a      	ldr	r2, [pc, #40]	; (20002980 <HPDMA_Error_IRQHandler+0xf4>)
20002956:	687b      	ldr	r3, [r7, #4]
20002958:	f503 7328 	add.w	r3, r3, #672	; 0x2a0
2000295c:	2101      	movs	r1, #1
2000295e:	f842 1023 	str.w	r1, [r2, r3, lsl #2]
E:\Github_Repos\SF2_Eth_FFT\Softconsole\FFT_Accelerator\Debug/../firmware/drivers/mss_hpdma/mss_hpdma.c:414 (discriminator 3)
    for(inc = 0u; inc < NO_OF_HPDMA_DESCRIPTORS; inc++)
20002962:	687b      	ldr	r3, [r7, #4]
20002964:	3301      	adds	r3, #1
20002966:	607b      	str	r3, [r7, #4]
E:\Github_Repos\SF2_Eth_FFT\Softconsole\FFT_Accelerator\Debug/../firmware/drivers/mss_hpdma/mss_hpdma.c:414 (discriminator 1)
20002968:	687b      	ldr	r3, [r7, #4]
2000296a:	2b03      	cmp	r3, #3
2000296c:	d9e7      	bls.n	2000293e <HPDMA_Error_IRQHandler+0xb2>
E:\Github_Repos\SF2_Eth_FFT\Softconsole\FFT_Accelerator\Debug/../firmware/drivers/mss_hpdma/mss_hpdma.c:421
    }
}
2000296e:	bf00      	nop
20002970:	370c      	adds	r7, #12
20002972:	46bd      	mov	sp, r7
20002974:	e8bd 4081 	ldmia.w	sp!, {r0, r7, lr}
20002978:	4685      	mov	sp, r0
2000297a:	4770      	bx	lr
2000297c:	40014000 	.word	0x40014000
20002980:	42280000 	.word	0x42280000
20002984:	200080a4 	.word	0x200080a4
20002988:	20008088 	.word	0x20008088

2000298c <NVIC_EnableIRQ>:
NVIC_EnableIRQ():
c:\microsemi\softconsole_v6.2\cmsis\v4.5\include/core_cm3.h:1453
{
2000298c:	b480      	push	{r7}
2000298e:	b083      	sub	sp, #12
20002990:	af00      	add	r7, sp, #0
20002992:	4603      	mov	r3, r0
20002994:	71fb      	strb	r3, [r7, #7]
c:\microsemi\softconsole_v6.2\cmsis\v4.5\include/core_cm3.h:1454
  NVIC->ISER[(((uint32_t)(int32_t)IRQn) >> 5UL)] = (uint32_t)(1UL << (((uint32_t)(int32_t)IRQn) & 0x1FUL));
20002996:	79fb      	ldrb	r3, [r7, #7]
20002998:	f003 021f 	and.w	r2, r3, #31
2000299c:	4906      	ldr	r1, [pc, #24]	; (200029b8 <NVIC_EnableIRQ+0x2c>)
2000299e:	f997 3007 	ldrsb.w	r3, [r7, #7]
200029a2:	095b      	lsrs	r3, r3, #5
200029a4:	2001      	movs	r0, #1
200029a6:	fa00 f202 	lsl.w	r2, r0, r2
200029aa:	f841 2023 	str.w	r2, [r1, r3, lsl #2]
c:\microsemi\softconsole_v6.2\cmsis\v4.5\include/core_cm3.h:1455
}
200029ae:	bf00      	nop
200029b0:	370c      	adds	r7, #12
200029b2:	46bd      	mov	sp, r7
200029b4:	bc80      	pop	{r7}
200029b6:	4770      	bx	lr
200029b8:	e000e100 	.word	0xe000e100

200029bc <NVIC_DisableIRQ>:
NVIC_DisableIRQ():
c:\microsemi\softconsole_v6.2\cmsis\v4.5\include/core_cm3.h:1464
{
200029bc:	b480      	push	{r7}
200029be:	b083      	sub	sp, #12
200029c0:	af00      	add	r7, sp, #0
200029c2:	4603      	mov	r3, r0
200029c4:	71fb      	strb	r3, [r7, #7]
c:\microsemi\softconsole_v6.2\cmsis\v4.5\include/core_cm3.h:1465
  NVIC->ICER[(((uint32_t)(int32_t)IRQn) >> 5UL)] = (uint32_t)(1UL << (((uint32_t)(int32_t)IRQn) & 0x1FUL));
200029c6:	79fb      	ldrb	r3, [r7, #7]
200029c8:	f003 021f 	and.w	r2, r3, #31
200029cc:	4907      	ldr	r1, [pc, #28]	; (200029ec <NVIC_DisableIRQ+0x30>)
200029ce:	f997 3007 	ldrsb.w	r3, [r7, #7]
200029d2:	095b      	lsrs	r3, r3, #5
200029d4:	2001      	movs	r0, #1
200029d6:	fa00 f202 	lsl.w	r2, r0, r2
200029da:	3320      	adds	r3, #32
200029dc:	f841 2023 	str.w	r2, [r1, r3, lsl #2]
c:\microsemi\softconsole_v6.2\cmsis\v4.5\include/core_cm3.h:1466
}
200029e0:	bf00      	nop
200029e2:	370c      	adds	r7, #12
200029e4:	46bd      	mov	sp, r7
200029e6:	bc80      	pop	{r7}
200029e8:	4770      	bx	lr
200029ea:	bf00      	nop
200029ec:	e000e100 	.word	0xe000e100

200029f0 <NVIC_ClearPendingIRQ>:
NVIC_ClearPendingIRQ():
c:\microsemi\softconsole_v6.2\cmsis\v4.5\include/core_cm3.h:1499
{
200029f0:	b480      	push	{r7}
200029f2:	b083      	sub	sp, #12
200029f4:	af00      	add	r7, sp, #0
200029f6:	4603      	mov	r3, r0
200029f8:	71fb      	strb	r3, [r7, #7]
c:\microsemi\softconsole_v6.2\cmsis\v4.5\include/core_cm3.h:1500
  NVIC->ICPR[(((uint32_t)(int32_t)IRQn) >> 5UL)] = (uint32_t)(1UL << (((uint32_t)(int32_t)IRQn) & 0x1FUL));
200029fa:	79fb      	ldrb	r3, [r7, #7]
200029fc:	f003 021f 	and.w	r2, r3, #31
20002a00:	4907      	ldr	r1, [pc, #28]	; (20002a20 <NVIC_ClearPendingIRQ+0x30>)
20002a02:	f997 3007 	ldrsb.w	r3, [r7, #7]
20002a06:	095b      	lsrs	r3, r3, #5
20002a08:	2001      	movs	r0, #1
20002a0a:	fa00 f202 	lsl.w	r2, r0, r2
20002a0e:	3360      	adds	r3, #96	; 0x60
20002a10:	f841 2023 	str.w	r2, [r1, r3, lsl #2]
c:\microsemi\softconsole_v6.2\cmsis\v4.5\include/core_cm3.h:1501
}
20002a14:	bf00      	nop
20002a16:	370c      	adds	r7, #12
20002a18:	46bd      	mov	sp, r7
20002a1a:	bc80      	pop	{r7}
20002a1c:	4770      	bx	lr
20002a1e:	bf00      	nop
20002a20:	e000e100 	.word	0xe000e100

20002a24 <MSS_GPIO_init>:
MSS_GPIO_init():
E:\Github_Repos\SF2_Eth_FFT\Softconsole\FFT_Accelerator\Debug/../firmware/drivers/mss_gpio/mss_gpio.c:107
/*-------------------------------------------------------------------------*//**
 * MSS_GPIO_init
 * See "mss_gpio.h" for details of how to use this function.
 */
void MSS_GPIO_init( void )
{
20002a24:	b580      	push	{r7, lr}
20002a26:	b082      	sub	sp, #8
20002a28:	af00      	add	r7, sp, #0
E:\Github_Repos\SF2_Eth_FFT\Softconsole\FFT_Accelerator\Debug/../firmware/drivers/mss_gpio/mss_gpio.c:111
    uint32_t inc;
    
    /* reset MSS GPIO hardware */
    SYSREG->SOFT_RST_CR |= SYSREG_GPIO_SOFTRESET_MASK;
20002a2a:	4b1a      	ldr	r3, [pc, #104]	; (20002a94 <MSS_GPIO_init+0x70>)
20002a2c:	6c9b      	ldr	r3, [r3, #72]	; 0x48
20002a2e:	4a19      	ldr	r2, [pc, #100]	; (20002a94 <MSS_GPIO_init+0x70>)
20002a30:	f443 1380 	orr.w	r3, r3, #1048576	; 0x100000
20002a34:	6493      	str	r3, [r2, #72]	; 0x48
E:\Github_Repos\SF2_Eth_FFT\Softconsole\FFT_Accelerator\Debug/../firmware/drivers/mss_gpio/mss_gpio.c:112
    SYSREG->SOFT_RST_CR |= (SYSREG_GPIO_7_0_SOFTRESET_MASK |
20002a36:	4b17      	ldr	r3, [pc, #92]	; (20002a94 <MSS_GPIO_init+0x70>)
20002a38:	6c9b      	ldr	r3, [r3, #72]	; 0x48
20002a3a:	4a16      	ldr	r2, [pc, #88]	; (20002a94 <MSS_GPIO_init+0x70>)
20002a3c:	f043 73f0 	orr.w	r3, r3, #31457280	; 0x1e00000
20002a40:	6493      	str	r3, [r2, #72]	; 0x48
E:\Github_Repos\SF2_Eth_FFT\Softconsole\FFT_Accelerator\Debug/../firmware/drivers/mss_gpio/mss_gpio.c:118
                            SYSREG_GPIO_15_8_SOFTRESET_MASK |
                            SYSREG_GPIO_23_16_SOFTRESET_MASK |
                            SYSREG_GPIO_31_24_SOFTRESET_MASK);
                            
    /* Clear any previously pended MSS GPIO interrupt */
    for(inc = 0U; inc < NB_OF_GPIO; ++inc)
20002a42:	2300      	movs	r3, #0
20002a44:	607b      	str	r3, [r7, #4]
20002a46:	e012      	b.n	20002a6e <MSS_GPIO_init+0x4a>
E:\Github_Repos\SF2_Eth_FFT\Softconsole\FFT_Accelerator\Debug/../firmware/drivers/mss_gpio/mss_gpio.c:120 (discriminator 3)
    {
        NVIC_DisableIRQ(g_gpio_irqn_lut[inc]);
20002a48:	4a13      	ldr	r2, [pc, #76]	; (20002a98 <MSS_GPIO_init+0x74>)
20002a4a:	687b      	ldr	r3, [r7, #4]
20002a4c:	4413      	add	r3, r2
20002a4e:	f993 3000 	ldrsb.w	r3, [r3]
20002a52:	4618      	mov	r0, r3
20002a54:	f7ff ffb2 	bl	200029bc <NVIC_DisableIRQ>
E:\Github_Repos\SF2_Eth_FFT\Softconsole\FFT_Accelerator\Debug/../firmware/drivers/mss_gpio/mss_gpio.c:121 (discriminator 3)
        NVIC_ClearPendingIRQ(g_gpio_irqn_lut[inc]);
20002a58:	4a0f      	ldr	r2, [pc, #60]	; (20002a98 <MSS_GPIO_init+0x74>)
20002a5a:	687b      	ldr	r3, [r7, #4]
20002a5c:	4413      	add	r3, r2
20002a5e:	f993 3000 	ldrsb.w	r3, [r3]
20002a62:	4618      	mov	r0, r3
20002a64:	f7ff ffc4 	bl	200029f0 <NVIC_ClearPendingIRQ>
E:\Github_Repos\SF2_Eth_FFT\Softconsole\FFT_Accelerator\Debug/../firmware/drivers/mss_gpio/mss_gpio.c:118 (discriminator 3)
    for(inc = 0U; inc < NB_OF_GPIO; ++inc)
20002a68:	687b      	ldr	r3, [r7, #4]
20002a6a:	3301      	adds	r3, #1
20002a6c:	607b      	str	r3, [r7, #4]
E:\Github_Repos\SF2_Eth_FFT\Softconsole\FFT_Accelerator\Debug/../firmware/drivers/mss_gpio/mss_gpio.c:118 (discriminator 1)
20002a6e:	687b      	ldr	r3, [r7, #4]
20002a70:	2b1f      	cmp	r3, #31
20002a72:	d9e9      	bls.n	20002a48 <MSS_GPIO_init+0x24>
E:\Github_Repos\SF2_Eth_FFT\Softconsole\FFT_Accelerator\Debug/../firmware/drivers/mss_gpio/mss_gpio.c:124
    }
    /* Take MSS GPIO hardware out of reset. */
    SYSREG->SOFT_RST_CR &= ~(SYSREG_GPIO_7_0_SOFTRESET_MASK |
20002a74:	4b07      	ldr	r3, [pc, #28]	; (20002a94 <MSS_GPIO_init+0x70>)
20002a76:	6c9b      	ldr	r3, [r3, #72]	; 0x48
20002a78:	4a06      	ldr	r2, [pc, #24]	; (20002a94 <MSS_GPIO_init+0x70>)
20002a7a:	f023 73f0 	bic.w	r3, r3, #31457280	; 0x1e00000
20002a7e:	6493      	str	r3, [r2, #72]	; 0x48
E:\Github_Repos\SF2_Eth_FFT\Softconsole\FFT_Accelerator\Debug/../firmware/drivers/mss_gpio/mss_gpio.c:128
                             SYSREG_GPIO_15_8_SOFTRESET_MASK |
                             SYSREG_GPIO_23_16_SOFTRESET_MASK |
                             SYSREG_GPIO_31_24_SOFTRESET_MASK);
    SYSREG->SOFT_RST_CR &= ~SYSREG_GPIO_SOFTRESET_MASK;
20002a80:	4b04      	ldr	r3, [pc, #16]	; (20002a94 <MSS_GPIO_init+0x70>)
20002a82:	6c9b      	ldr	r3, [r3, #72]	; 0x48
20002a84:	4a03      	ldr	r2, [pc, #12]	; (20002a94 <MSS_GPIO_init+0x70>)
20002a86:	f423 1380 	bic.w	r3, r3, #1048576	; 0x100000
20002a8a:	6493      	str	r3, [r2, #72]	; 0x48
E:\Github_Repos\SF2_Eth_FFT\Softconsole\FFT_Accelerator\Debug/../firmware/drivers/mss_gpio/mss_gpio.c:129
}
20002a8c:	bf00      	nop
20002a8e:	3708      	adds	r7, #8
20002a90:	46bd      	mov	sp, r7
20002a92:	bd80      	pop	{r7, pc}
20002a94:	40038000 	.word	0x40038000
20002a98:	20004978 	.word	0x20004978

20002a9c <MSS_GPIO_config>:
MSS_GPIO_config():
E:\Github_Repos\SF2_Eth_FFT\Softconsole\FFT_Accelerator\Debug/../firmware/drivers/mss_gpio/mss_gpio.c:140
void MSS_GPIO_config
(
    mss_gpio_id_t port_id,
    uint32_t config
)
{
20002a9c:	b480      	push	{r7}
20002a9e:	b085      	sub	sp, #20
20002aa0:	af00      	add	r7, sp, #0
20002aa2:	4603      	mov	r3, r0
20002aa4:	6039      	str	r1, [r7, #0]
20002aa6:	71fb      	strb	r3, [r7, #7]
E:\Github_Repos\SF2_Eth_FFT\Softconsole\FFT_Accelerator\Debug/../firmware/drivers/mss_gpio/mss_gpio.c:141
    uint32_t gpio_idx = (uint32_t)port_id;
20002aa8:	79fb      	ldrb	r3, [r7, #7]
20002aaa:	60fb      	str	r3, [r7, #12]
E:\Github_Repos\SF2_Eth_FFT\Softconsole\FFT_Accelerator\Debug/../firmware/drivers/mss_gpio/mss_gpio.c:143
    
    ASSERT(gpio_idx < NB_OF_GPIO);
20002aac:	68fb      	ldr	r3, [r7, #12]
20002aae:	2b1f      	cmp	r3, #31
20002ab0:	d900      	bls.n	20002ab4 <MSS_GPIO_config+0x18>
E:\Github_Repos\SF2_Eth_FFT\Softconsole\FFT_Accelerator\Debug/../firmware/drivers/mss_gpio/mss_gpio.c:143 (discriminator 1)
20002ab2:	be00      	bkpt	0x0000
E:\Github_Repos\SF2_Eth_FFT\Softconsole\FFT_Accelerator\Debug/../firmware/drivers/mss_gpio/mss_gpio.c:145

    if(gpio_idx < NB_OF_GPIO)
20002ab4:	68fb      	ldr	r3, [r7, #12]
20002ab6:	2b1f      	cmp	r3, #31
20002ab8:	d805      	bhi.n	20002ac6 <MSS_GPIO_config+0x2a>
E:\Github_Repos\SF2_Eth_FFT\Softconsole\FFT_Accelerator\Debug/../firmware/drivers/mss_gpio/mss_gpio.c:147
    {
        *(g_config_reg_lut[gpio_idx]) = config;
20002aba:	4a05      	ldr	r2, [pc, #20]	; (20002ad0 <MSS_GPIO_config+0x34>)
20002abc:	68fb      	ldr	r3, [r7, #12]
20002abe:	f852 3023 	ldr.w	r3, [r2, r3, lsl #2]
20002ac2:	683a      	ldr	r2, [r7, #0]
20002ac4:	601a      	str	r2, [r3, #0]
E:\Github_Repos\SF2_Eth_FFT\Softconsole\FFT_Accelerator\Debug/../firmware/drivers/mss_gpio/mss_gpio.c:149
    }
}
20002ac6:	bf00      	nop
20002ac8:	3714      	adds	r7, #20
20002aca:	46bd      	mov	sp, r7
20002acc:	bc80      	pop	{r7}
20002ace:	4770      	bx	lr
20002ad0:	200048f8 	.word	0x200048f8

20002ad4 <MSS_GPIO_enable_irq>:
MSS_GPIO_enable_irq():
E:\Github_Repos\SF2_Eth_FFT\Softconsole\FFT_Accelerator\Debug/../firmware/drivers/mss_gpio/mss_gpio.c:239
 */
void MSS_GPIO_enable_irq
(
    mss_gpio_id_t port_id
)
{
20002ad4:	b580      	push	{r7, lr}
20002ad6:	b084      	sub	sp, #16
20002ad8:	af00      	add	r7, sp, #0
20002ada:	4603      	mov	r3, r0
20002adc:	71fb      	strb	r3, [r7, #7]
E:\Github_Repos\SF2_Eth_FFT\Softconsole\FFT_Accelerator\Debug/../firmware/drivers/mss_gpio/mss_gpio.c:241
    uint32_t cfg_value;
    uint32_t gpio_idx = (uint32_t)port_id;
20002ade:	79fb      	ldrb	r3, [r7, #7]
20002ae0:	60fb      	str	r3, [r7, #12]
E:\Github_Repos\SF2_Eth_FFT\Softconsole\FFT_Accelerator\Debug/../firmware/drivers/mss_gpio/mss_gpio.c:243
    
    ASSERT(gpio_idx < NB_OF_GPIO);
20002ae2:	68fb      	ldr	r3, [r7, #12]
20002ae4:	2b1f      	cmp	r3, #31
20002ae6:	d900      	bls.n	20002aea <MSS_GPIO_enable_irq+0x16>
E:\Github_Repos\SF2_Eth_FFT\Softconsole\FFT_Accelerator\Debug/../firmware/drivers/mss_gpio/mss_gpio.c:243 (discriminator 1)
20002ae8:	be00      	bkpt	0x0000
E:\Github_Repos\SF2_Eth_FFT\Softconsole\FFT_Accelerator\Debug/../firmware/drivers/mss_gpio/mss_gpio.c:245
    
    if(gpio_idx < NB_OF_GPIO)
20002aea:	68fb      	ldr	r3, [r7, #12]
20002aec:	2b1f      	cmp	r3, #31
20002aee:	d815      	bhi.n	20002b1c <MSS_GPIO_enable_irq+0x48>
E:\Github_Repos\SF2_Eth_FFT\Softconsole\FFT_Accelerator\Debug/../firmware/drivers/mss_gpio/mss_gpio.c:247
    {
        cfg_value = *(g_config_reg_lut[gpio_idx]);
20002af0:	4a0c      	ldr	r2, [pc, #48]	; (20002b24 <MSS_GPIO_enable_irq+0x50>)
20002af2:	68fb      	ldr	r3, [r7, #12]
20002af4:	f852 3023 	ldr.w	r3, [r2, r3, lsl #2]
20002af8:	681b      	ldr	r3, [r3, #0]
20002afa:	60bb      	str	r3, [r7, #8]
E:\Github_Repos\SF2_Eth_FFT\Softconsole\FFT_Accelerator\Debug/../firmware/drivers/mss_gpio/mss_gpio.c:248
        *(g_config_reg_lut[gpio_idx]) = (cfg_value | GPIO_INT_ENABLE_MASK);
20002afc:	4a09      	ldr	r2, [pc, #36]	; (20002b24 <MSS_GPIO_enable_irq+0x50>)
20002afe:	68fb      	ldr	r3, [r7, #12]
20002b00:	f852 3023 	ldr.w	r3, [r2, r3, lsl #2]
20002b04:	68ba      	ldr	r2, [r7, #8]
20002b06:	f042 0208 	orr.w	r2, r2, #8
20002b0a:	601a      	str	r2, [r3, #0]
E:\Github_Repos\SF2_Eth_FFT\Softconsole\FFT_Accelerator\Debug/../firmware/drivers/mss_gpio/mss_gpio.c:249
        NVIC_EnableIRQ(g_gpio_irqn_lut[gpio_idx]);
20002b0c:	4a06      	ldr	r2, [pc, #24]	; (20002b28 <MSS_GPIO_enable_irq+0x54>)
20002b0e:	68fb      	ldr	r3, [r7, #12]
20002b10:	4413      	add	r3, r2
20002b12:	f993 3000 	ldrsb.w	r3, [r3]
20002b16:	4618      	mov	r0, r3
20002b18:	f7ff ff38 	bl	2000298c <NVIC_EnableIRQ>
E:\Github_Repos\SF2_Eth_FFT\Softconsole\FFT_Accelerator\Debug/../firmware/drivers/mss_gpio/mss_gpio.c:251
    }
}
20002b1c:	bf00      	nop
20002b1e:	3710      	adds	r7, #16
20002b20:	46bd      	mov	sp, r7
20002b22:	bd80      	pop	{r7, pc}
20002b24:	200048f8 	.word	0x200048f8
20002b28:	20004978 	.word	0x20004978

20002b2c <MSS_GPIO_clear_irq>:
MSS_GPIO_clear_irq():
E:\Github_Repos\SF2_Eth_FFT\Softconsole\FFT_Accelerator\Debug/../firmware/drivers/mss_gpio/mss_gpio.c:282
 */
void MSS_GPIO_clear_irq
(
    mss_gpio_id_t port_id
)
{
20002b2c:	b480      	push	{r7}
20002b2e:	b085      	sub	sp, #20
20002b30:	af00      	add	r7, sp, #0
20002b32:	4603      	mov	r3, r0
20002b34:	71fb      	strb	r3, [r7, #7]
E:\Github_Repos\SF2_Eth_FFT\Softconsole\FFT_Accelerator\Debug/../firmware/drivers/mss_gpio/mss_gpio.c:283
    uint32_t gpio_idx = (uint32_t)port_id;
20002b36:	79fb      	ldrb	r3, [r7, #7]
20002b38:	60fb      	str	r3, [r7, #12]
E:\Github_Repos\SF2_Eth_FFT\Softconsole\FFT_Accelerator\Debug/../firmware/drivers/mss_gpio/mss_gpio.c:285
    
    ASSERT(gpio_idx < NB_OF_GPIO);
20002b3a:	68fb      	ldr	r3, [r7, #12]
20002b3c:	2b1f      	cmp	r3, #31
20002b3e:	d900      	bls.n	20002b42 <MSS_GPIO_clear_irq+0x16>
E:\Github_Repos\SF2_Eth_FFT\Softconsole\FFT_Accelerator\Debug/../firmware/drivers/mss_gpio/mss_gpio.c:285 (discriminator 1)
20002b40:	be00      	bkpt	0x0000
E:\Github_Repos\SF2_Eth_FFT\Softconsole\FFT_Accelerator\Debug/../firmware/drivers/mss_gpio/mss_gpio.c:287
    
    if(gpio_idx < NB_OF_GPIO)
20002b42:	68fb      	ldr	r3, [r7, #12]
20002b44:	2b1f      	cmp	r3, #31
20002b46:	d806      	bhi.n	20002b56 <MSS_GPIO_clear_irq+0x2a>
E:\Github_Repos\SF2_Eth_FFT\Softconsole\FFT_Accelerator\Debug/../firmware/drivers/mss_gpio/mss_gpio.c:289
    {
        GPIO->GPIO_IRQ = ((uint32_t)1) << gpio_idx;
20002b48:	4a06      	ldr	r2, [pc, #24]	; (20002b64 <MSS_GPIO_clear_irq+0x38>)
20002b4a:	2101      	movs	r1, #1
20002b4c:	68fb      	ldr	r3, [r7, #12]
20002b4e:	fa01 f303 	lsl.w	r3, r1, r3
20002b52:	f8c2 3080 	str.w	r3, [r2, #128]	; 0x80
E:\Github_Repos\SF2_Eth_FFT\Softconsole\FFT_Accelerator\Debug/../firmware/drivers/mss_gpio/mss_gpio.c:291
    }
    __ASM volatile ("dsb");
20002b56:	f3bf 8f4f 	dsb	sy
E:\Github_Repos\SF2_Eth_FFT\Softconsole\FFT_Accelerator\Debug/../firmware/drivers/mss_gpio/mss_gpio.c:293

}
20002b5a:	bf00      	nop
20002b5c:	3714      	adds	r7, #20
20002b5e:	46bd      	mov	sp, r7
20002b60:	bc80      	pop	{r7}
20002b62:	4770      	bx	lr
20002b64:	40013000 	.word	0x40013000

20002b68 <NVIC_EnableIRQ>:
NVIC_EnableIRQ():
c:\microsemi\softconsole_v6.2\cmsis\v4.5\include/core_cm3.h:1453
{
20002b68:	b480      	push	{r7}
20002b6a:	b083      	sub	sp, #12
20002b6c:	af00      	add	r7, sp, #0
20002b6e:	4603      	mov	r3, r0
20002b70:	71fb      	strb	r3, [r7, #7]
c:\microsemi\softconsole_v6.2\cmsis\v4.5\include/core_cm3.h:1454
  NVIC->ISER[(((uint32_t)(int32_t)IRQn) >> 5UL)] = (uint32_t)(1UL << (((uint32_t)(int32_t)IRQn) & 0x1FUL));
20002b72:	79fb      	ldrb	r3, [r7, #7]
20002b74:	f003 021f 	and.w	r2, r3, #31
20002b78:	4906      	ldr	r1, [pc, #24]	; (20002b94 <NVIC_EnableIRQ+0x2c>)
20002b7a:	f997 3007 	ldrsb.w	r3, [r7, #7]
20002b7e:	095b      	lsrs	r3, r3, #5
20002b80:	2001      	movs	r0, #1
20002b82:	fa00 f202 	lsl.w	r2, r0, r2
20002b86:	f841 2023 	str.w	r2, [r1, r3, lsl #2]
c:\microsemi\softconsole_v6.2\cmsis\v4.5\include/core_cm3.h:1455
}
20002b8a:	bf00      	nop
20002b8c:	370c      	adds	r7, #12
20002b8e:	46bd      	mov	sp, r7
20002b90:	bc80      	pop	{r7}
20002b92:	4770      	bx	lr
20002b94:	e000e100 	.word	0xe000e100

20002b98 <NVIC_DisableIRQ>:
NVIC_DisableIRQ():
c:\microsemi\softconsole_v6.2\cmsis\v4.5\include/core_cm3.h:1464
{
20002b98:	b480      	push	{r7}
20002b9a:	b083      	sub	sp, #12
20002b9c:	af00      	add	r7, sp, #0
20002b9e:	4603      	mov	r3, r0
20002ba0:	71fb      	strb	r3, [r7, #7]
c:\microsemi\softconsole_v6.2\cmsis\v4.5\include/core_cm3.h:1465
  NVIC->ICER[(((uint32_t)(int32_t)IRQn) >> 5UL)] = (uint32_t)(1UL << (((uint32_t)(int32_t)IRQn) & 0x1FUL));
20002ba2:	79fb      	ldrb	r3, [r7, #7]
20002ba4:	f003 021f 	and.w	r2, r3, #31
20002ba8:	4907      	ldr	r1, [pc, #28]	; (20002bc8 <NVIC_DisableIRQ+0x30>)
20002baa:	f997 3007 	ldrsb.w	r3, [r7, #7]
20002bae:	095b      	lsrs	r3, r3, #5
20002bb0:	2001      	movs	r0, #1
20002bb2:	fa00 f202 	lsl.w	r2, r0, r2
20002bb6:	3320      	adds	r3, #32
20002bb8:	f841 2023 	str.w	r2, [r1, r3, lsl #2]
c:\microsemi\softconsole_v6.2\cmsis\v4.5\include/core_cm3.h:1466
}
20002bbc:	bf00      	nop
20002bbe:	370c      	adds	r7, #12
20002bc0:	46bd      	mov	sp, r7
20002bc2:	bc80      	pop	{r7}
20002bc4:	4770      	bx	lr
20002bc6:	bf00      	nop
20002bc8:	e000e100 	.word	0xe000e100

20002bcc <NVIC_ClearPendingIRQ>:
NVIC_ClearPendingIRQ():
c:\microsemi\softconsole_v6.2\cmsis\v4.5\include/core_cm3.h:1499
{
20002bcc:	b480      	push	{r7}
20002bce:	b083      	sub	sp, #12
20002bd0:	af00      	add	r7, sp, #0
20002bd2:	4603      	mov	r3, r0
20002bd4:	71fb      	strb	r3, [r7, #7]
c:\microsemi\softconsole_v6.2\cmsis\v4.5\include/core_cm3.h:1500
  NVIC->ICPR[(((uint32_t)(int32_t)IRQn) >> 5UL)] = (uint32_t)(1UL << (((uint32_t)(int32_t)IRQn) & 0x1FUL));
20002bd6:	79fb      	ldrb	r3, [r7, #7]
20002bd8:	f003 021f 	and.w	r2, r3, #31
20002bdc:	4907      	ldr	r1, [pc, #28]	; (20002bfc <NVIC_ClearPendingIRQ+0x30>)
20002bde:	f997 3007 	ldrsb.w	r3, [r7, #7]
20002be2:	095b      	lsrs	r3, r3, #5
20002be4:	2001      	movs	r0, #1
20002be6:	fa00 f202 	lsl.w	r2, r0, r2
20002bea:	3360      	adds	r3, #96	; 0x60
20002bec:	f841 2023 	str.w	r2, [r1, r3, lsl #2]
c:\microsemi\softconsole_v6.2\cmsis\v4.5\include/core_cm3.h:1501
}
20002bf0:	bf00      	nop
20002bf2:	370c      	adds	r7, #12
20002bf4:	46bd      	mov	sp, r7
20002bf6:	bc80      	pop	{r7}
20002bf8:	4770      	bx	lr
20002bfa:	bf00      	nop
20002bfc:	e000e100 	.word	0xe000e100

20002c00 <set_bit_reg32>:
set_bit_reg32():
E:\Github_Repos\SF2_Eth_FFT\Softconsole\FFT_Accelerator\Debug/../firmware/drivers/mss_ethernet_mac/../../CMSIS/hw_reg_io.h:71

/*****************************************************************************************
 * Functions to set a bit field in Cortex-M3 
 */
static __INLINE void set_bit_reg32(volatile uint32_t * reg, uint8_t bit)
{
20002c00:	b480      	push	{r7}
20002c02:	b083      	sub	sp, #12
20002c04:	af00      	add	r7, sp, #0
20002c06:	6078      	str	r0, [r7, #4]
20002c08:	460b      	mov	r3, r1
20002c0a:	70fb      	strb	r3, [r7, #3]
E:\Github_Repos\SF2_Eth_FFT\Softconsole\FFT_Accelerator\Debug/../firmware/drivers/mss_ethernet_mac/../../CMSIS/hw_reg_io.h:72
    HW_REG_BIT(reg,bit) = 0x1;
20002c0c:	687b      	ldr	r3, [r7, #4]
20002c0e:	f003 4270 	and.w	r2, r3, #4026531840	; 0xf0000000
20002c12:	687b      	ldr	r3, [r7, #4]
20002c14:	015b      	lsls	r3, r3, #5
20002c16:	f023 437e 	bic.w	r3, r3, #4261412864	; 0xfe000000
20002c1a:	f023 031f 	bic.w	r3, r3, #31
20002c1e:	4313      	orrs	r3, r2
20002c20:	78fa      	ldrb	r2, [r7, #3]
20002c22:	0092      	lsls	r2, r2, #2
20002c24:	4413      	add	r3, r2
20002c26:	f103 7300 	add.w	r3, r3, #33554432	; 0x2000000
20002c2a:	461a      	mov	r2, r3
20002c2c:	2301      	movs	r3, #1
20002c2e:	6013      	str	r3, [r2, #0]
E:\Github_Repos\SF2_Eth_FFT\Softconsole\FFT_Accelerator\Debug/../firmware/drivers/mss_ethernet_mac/../../CMSIS/hw_reg_io.h:73
}
20002c30:	bf00      	nop
20002c32:	370c      	adds	r7, #12
20002c34:	46bd      	mov	sp, r7
20002c36:	bc80      	pop	{r7}
20002c38:	4770      	bx	lr

20002c3a <clear_bit_reg32>:
clear_bit_reg32():
E:\Github_Repos\SF2_Eth_FFT\Softconsole\FFT_Accelerator\Debug/../firmware/drivers/mss_ethernet_mac/../../CMSIS/hw_reg_io.h:86
}
/*****************************************************************************************
 * Functions to clear a bit field in Cortex-M3
 */
static __INLINE void clear_bit_reg32(volatile uint32_t * reg, uint8_t bit)
{
20002c3a:	b480      	push	{r7}
20002c3c:	b083      	sub	sp, #12
20002c3e:	af00      	add	r7, sp, #0
20002c40:	6078      	str	r0, [r7, #4]
20002c42:	460b      	mov	r3, r1
20002c44:	70fb      	strb	r3, [r7, #3]
E:\Github_Repos\SF2_Eth_FFT\Softconsole\FFT_Accelerator\Debug/../firmware/drivers/mss_ethernet_mac/../../CMSIS/hw_reg_io.h:87
    HW_REG_BIT(reg,bit) = 0x0;
20002c46:	687b      	ldr	r3, [r7, #4]
20002c48:	f003 4270 	and.w	r2, r3, #4026531840	; 0xf0000000
20002c4c:	687b      	ldr	r3, [r7, #4]
20002c4e:	015b      	lsls	r3, r3, #5
20002c50:	f023 437e 	bic.w	r3, r3, #4261412864	; 0xfe000000
20002c54:	f023 031f 	bic.w	r3, r3, #31
20002c58:	4313      	orrs	r3, r2
20002c5a:	78fa      	ldrb	r2, [r7, #3]
20002c5c:	0092      	lsls	r2, r2, #2
20002c5e:	4413      	add	r3, r2
20002c60:	f103 7300 	add.w	r3, r3, #33554432	; 0x2000000
20002c64:	461a      	mov	r2, r3
20002c66:	2300      	movs	r3, #0
20002c68:	6013      	str	r3, [r2, #0]
E:\Github_Repos\SF2_Eth_FFT\Softconsole\FFT_Accelerator\Debug/../firmware/drivers/mss_ethernet_mac/../../CMSIS/hw_reg_io.h:88
}
20002c6a:	bf00      	nop
20002c6c:	370c      	adds	r7, #12
20002c6e:	46bd      	mov	sp, r7
20002c70:	bc80      	pop	{r7}
20002c72:	4770      	bx	lr

20002c74 <read_bit_reg32>:
read_bit_reg32():
E:\Github_Repos\SF2_Eth_FFT\Softconsole\FFT_Accelerator\Debug/../firmware/drivers/mss_ethernet_mac/../../CMSIS/hw_reg_io.h:101
}
/*****************************************************************************************
 * Functions to read a bit field in Cortex-M3
 */
static __INLINE uint8_t read_bit_reg32(volatile uint32_t * reg, uint8_t bit)
{
20002c74:	b480      	push	{r7}
20002c76:	b083      	sub	sp, #12
20002c78:	af00      	add	r7, sp, #0
20002c7a:	6078      	str	r0, [r7, #4]
20002c7c:	460b      	mov	r3, r1
20002c7e:	70fb      	strb	r3, [r7, #3]
E:\Github_Repos\SF2_Eth_FFT\Softconsole\FFT_Accelerator\Debug/../firmware/drivers/mss_ethernet_mac/../../CMSIS/hw_reg_io.h:102
    return (HW_REG_BIT(reg,bit));
20002c80:	687b      	ldr	r3, [r7, #4]
20002c82:	f003 4270 	and.w	r2, r3, #4026531840	; 0xf0000000
20002c86:	687b      	ldr	r3, [r7, #4]
20002c88:	015b      	lsls	r3, r3, #5
20002c8a:	f023 437e 	bic.w	r3, r3, #4261412864	; 0xfe000000
20002c8e:	f023 031f 	bic.w	r3, r3, #31
20002c92:	4313      	orrs	r3, r2
20002c94:	78fa      	ldrb	r2, [r7, #3]
20002c96:	0092      	lsls	r2, r2, #2
20002c98:	4413      	add	r3, r2
20002c9a:	f103 7300 	add.w	r3, r3, #33554432	; 0x2000000
20002c9e:	681b      	ldr	r3, [r3, #0]
20002ca0:	b2db      	uxtb	r3, r3
E:\Github_Repos\SF2_Eth_FFT\Softconsole\FFT_Accelerator\Debug/../firmware/drivers/mss_ethernet_mac/../../CMSIS/hw_reg_io.h:103
}
20002ca2:	4618      	mov	r0, r3
20002ca4:	370c      	adds	r7, #12
20002ca6:	46bd      	mov	sp, r7
20002ca8:	bc80      	pop	{r7}
20002caa:	4770      	bx	lr

20002cac <MSS_MAC_init>:
MSS_MAC_init():
E:\Github_Repos\SF2_Eth_FFT\Softconsole\FFT_Accelerator\Debug/../firmware/drivers/mss_ethernet_mac/mss_ethernet_mac.c:164
void 
MSS_MAC_init
( 
    mss_mac_cfg_t * cfg 
)
{
20002cac:	b580      	push	{r7, lr}
20002cae:	b082      	sub	sp, #8
20002cb0:	af00      	add	r7, sp, #0
20002cb2:	6078      	str	r0, [r7, #4]
E:\Github_Repos\SF2_Eth_FFT\Softconsole\FFT_Accelerator\Debug/../firmware/drivers/mss_ethernet_mac/mss_ethernet_mac.c:165
    ASSERT(cfg != NULL_POINTER);
20002cb4:	687b      	ldr	r3, [r7, #4]
20002cb6:	2b00      	cmp	r3, #0
20002cb8:	d100      	bne.n	20002cbc <MSS_MAC_init+0x10>
E:\Github_Repos\SF2_Eth_FFT\Softconsole\FFT_Accelerator\Debug/../firmware/drivers/mss_ethernet_mac/mss_ethernet_mac.c:165 (discriminator 1)
20002cba:	be00      	bkpt	0x0000
E:\Github_Repos\SF2_Eth_FFT\Softconsole\FFT_Accelerator\Debug/../firmware/drivers/mss_ethernet_mac/mss_ethernet_mac.c:167

    if(cfg != NULL_POINTER)
20002cbc:	687b      	ldr	r3, [r7, #4]
20002cbe:	2b00      	cmp	r3, #0
20002cc0:	d078      	beq.n	20002db4 <MSS_MAC_init+0x108>
E:\Github_Repos\SF2_Eth_FFT\Softconsole\FFT_Accelerator\Debug/../firmware/drivers/mss_ethernet_mac/mss_ethernet_mac.c:169
    {
        NVIC_DisableIRQ(EthernetMAC_IRQn);
20002cc2:	200c      	movs	r0, #12
20002cc4:	f7ff ff68 	bl	20002b98 <NVIC_DisableIRQ>
E:\Github_Repos\SF2_Eth_FFT\Softconsole\FFT_Accelerator\Debug/../firmware/drivers/mss_ethernet_mac/mss_ethernet_mac.c:171
        /* Reset MAC */
        SYSREG->SOFT_RST_CR |= SYSREG_MAC_SOFTRESET_MASK;
20002cc8:	4b3c      	ldr	r3, [pc, #240]	; (20002dbc <MSS_MAC_init+0x110>)
20002cca:	6c9b      	ldr	r3, [r3, #72]	; 0x48
20002ccc:	4a3b      	ldr	r2, [pc, #236]	; (20002dbc <MSS_MAC_init+0x110>)
20002cce:	f043 0310 	orr.w	r3, r3, #16
20002cd2:	6493      	str	r3, [r2, #72]	; 0x48
E:\Github_Repos\SF2_Eth_FFT\Softconsole\FFT_Accelerator\Debug/../firmware/drivers/mss_ethernet_mac/mss_ethernet_mac.c:173
        /* Clear any previously pended MAC interrupt */
        NVIC_ClearPendingIRQ(EthernetMAC_IRQn);
20002cd4:	200c      	movs	r0, #12
20002cd6:	f7ff ff79 	bl	20002bcc <NVIC_ClearPendingIRQ>
E:\Github_Repos\SF2_Eth_FFT\Softconsole\FFT_Accelerator\Debug/../firmware/drivers/mss_ethernet_mac/mss_ethernet_mac.c:175
        /* Take MAC out of reset. */
        SYSREG->SOFT_RST_CR &= ~SYSREG_MAC_SOFTRESET_MASK;
20002cda:	4b38      	ldr	r3, [pc, #224]	; (20002dbc <MSS_MAC_init+0x110>)
20002cdc:	6c9b      	ldr	r3, [r3, #72]	; 0x48
20002cde:	4a37      	ldr	r2, [pc, #220]	; (20002dbc <MSS_MAC_init+0x110>)
20002ce0:	f023 0310 	bic.w	r3, r3, #16
20002ce4:	6493      	str	r3, [r2, #72]	; 0x48
E:\Github_Repos\SF2_Eth_FFT\Softconsole\FFT_Accelerator\Debug/../firmware/drivers/mss_ethernet_mac/mss_ethernet_mac.c:177
        
        mac_reset();
20002ce6:	f000 f959 	bl	20002f9c <mac_reset>
E:\Github_Repos\SF2_Eth_FFT\Softconsole\FFT_Accelerator\Debug/../firmware/drivers/mss_ethernet_mac/mss_ethernet_mac.c:179
        
        config_mac_hw(cfg);
20002cea:	6878      	ldr	r0, [r7, #4]
20002cec:	f000 f988 	bl	20003000 <config_mac_hw>
E:\Github_Repos\SF2_Eth_FFT\Softconsole\FFT_Accelerator\Debug/../firmware/drivers/mss_ethernet_mac/mss_ethernet_mac.c:182
        
        /* Assign MAC station address */
        assign_station_addr(cfg->mac_addr);
20002cf0:	687b      	ldr	r3, [r7, #4]
20002cf2:	3304      	adds	r3, #4
20002cf4:	4618      	mov	r0, r3
20002cf6:	f000 fe97 	bl	20003a28 <assign_station_addr>
E:\Github_Repos\SF2_Eth_FFT\Softconsole\FFT_Accelerator\Debug/../firmware/drivers/mss_ethernet_mac/mss_ethernet_mac.c:185
        
        /* Intialize Tx & Rx descriptor rings */
        tx_desc_ring_init();
20002cfa:	f000 fdf1 	bl	200038e0 <tx_desc_ring_init>
E:\Github_Repos\SF2_Eth_FFT\Softconsole\FFT_Accelerator\Debug/../firmware/drivers/mss_ethernet_mac/mss_ethernet_mac.c:186
        rx_desc_ring_init();
20002cfe:	f000 fe3f 	bl	20003980 <rx_desc_ring_init>
E:\Github_Repos\SF2_Eth_FFT\Softconsole\FFT_Accelerator\Debug/../firmware/drivers/mss_ethernet_mac/mss_ethernet_mac.c:189

        /* Initialize Tx descriptors related variables. */
        g_mac.first_tx_index = INVALID_INDEX;
20002d02:	4b2f      	ldr	r3, [pc, #188]	; (20002dc0 <MSS_MAC_init+0x114>)
20002d04:	f64f 72ff 	movw	r2, #65535	; 0xffff
20002d08:	f8a3 205a 	strh.w	r2, [r3, #90]	; 0x5a
E:\Github_Repos\SF2_Eth_FFT\Softconsole\FFT_Accelerator\Debug/../firmware/drivers/mss_ethernet_mac/mss_ethernet_mac.c:190
        g_mac.last_tx_index = INVALID_INDEX;
20002d0c:	4b2c      	ldr	r3, [pc, #176]	; (20002dc0 <MSS_MAC_init+0x114>)
20002d0e:	f64f 72ff 	movw	r2, #65535	; 0xffff
20002d12:	f8a3 205c 	strh.w	r2, [r3, #92]	; 0x5c
E:\Github_Repos\SF2_Eth_FFT\Softconsole\FFT_Accelerator\Debug/../firmware/drivers/mss_ethernet_mac/mss_ethernet_mac.c:191
        g_mac.next_tx_index = 0;
20002d16:	4b2a      	ldr	r3, [pc, #168]	; (20002dc0 <MSS_MAC_init+0x114>)
20002d18:	2200      	movs	r2, #0
20002d1a:	f8a3 205e 	strh.w	r2, [r3, #94]	; 0x5e
E:\Github_Repos\SF2_Eth_FFT\Softconsole\FFT_Accelerator\Debug/../firmware/drivers/mss_ethernet_mac/mss_ethernet_mac.c:192
        g_mac.nb_available_tx_desc = MSS_MAC_TX_RING_SIZE;
20002d1e:	4b28      	ldr	r3, [pc, #160]	; (20002dc0 <MSS_MAC_init+0x114>)
20002d20:	2202      	movs	r2, #2
20002d22:	f8a3 2058 	strh.w	r2, [r3, #88]	; 0x58
E:\Github_Repos\SF2_Eth_FFT\Softconsole\FFT_Accelerator\Debug/../firmware/drivers/mss_ethernet_mac/mss_ethernet_mac.c:195
        
        /* Initialize Rx descriptors related variables. */
        g_mac.nb_available_rx_desc = MSS_MAC_RX_RING_SIZE;
20002d26:	4b26      	ldr	r3, [pc, #152]	; (20002dc0 <MSS_MAC_init+0x114>)
20002d28:	2202      	movs	r2, #2
20002d2a:	f8a3 2060 	strh.w	r2, [r3, #96]	; 0x60
E:\Github_Repos\SF2_Eth_FFT\Softconsole\FFT_Accelerator\Debug/../firmware/drivers/mss_ethernet_mac/mss_ethernet_mac.c:196
        g_mac.next_free_rx_desc_index = 0;
20002d2e:	4b24      	ldr	r3, [pc, #144]	; (20002dc0 <MSS_MAC_init+0x114>)
20002d30:	2200      	movs	r2, #0
20002d32:	f8a3 2062 	strh.w	r2, [r3, #98]	; 0x62
E:\Github_Repos\SF2_Eth_FFT\Softconsole\FFT_Accelerator\Debug/../firmware/drivers/mss_ethernet_mac/mss_ethernet_mac.c:197
        g_mac.first_rx_desc_index = INVALID_INDEX;
20002d36:	4b22      	ldr	r3, [pc, #136]	; (20002dc0 <MSS_MAC_init+0x114>)
20002d38:	f64f 72ff 	movw	r2, #65535	; 0xffff
20002d3c:	f8a3 2064 	strh.w	r2, [r3, #100]	; 0x64
E:\Github_Repos\SF2_Eth_FFT\Softconsole\FFT_Accelerator\Debug/../firmware/drivers/mss_ethernet_mac/mss_ethernet_mac.c:200
        
        /* initialize default interrupt handlers */
        g_mac.tx_complete_handler = NULL_POINTER;
20002d40:	4b1f      	ldr	r3, [pc, #124]	; (20002dc0 <MSS_MAC_init+0x114>)
20002d42:	2200      	movs	r2, #0
20002d44:	651a      	str	r2, [r3, #80]	; 0x50
E:\Github_Repos\SF2_Eth_FFT\Softconsole\FFT_Accelerator\Debug/../firmware/drivers/mss_ethernet_mac/mss_ethernet_mac.c:201
        g_mac.pckt_rx_callback = NULL_POINTER;
20002d46:	4b1e      	ldr	r3, [pc, #120]	; (20002dc0 <MSS_MAC_init+0x114>)
20002d48:	2200      	movs	r2, #0
20002d4a:	655a      	str	r2, [r3, #84]	; 0x54
E:\Github_Repos\SF2_Eth_FFT\Softconsole\FFT_Accelerator\Debug/../firmware/drivers/mss_ethernet_mac/mss_ethernet_mac.c:204
        
        /* Initialize PHY interface */
        if(MSS_MAC_AUTO_DETECT_PHY_ADDRESS == cfg->phy_addr)
20002d4c:	687b      	ldr	r3, [r7, #4]
20002d4e:	7a9b      	ldrb	r3, [r3, #10]
20002d50:	2bff      	cmp	r3, #255	; 0xff
20002d52:	d105      	bne.n	20002d60 <MSS_MAC_init+0xb4>
E:\Github_Repos\SF2_Eth_FFT\Softconsole\FFT_Accelerator\Debug/../firmware/drivers/mss_ethernet_mac/mss_ethernet_mac.c:206
        {
            cfg->phy_addr = probe_phy();
20002d54:	f000 fea6 	bl	20003aa4 <probe_phy>
20002d58:	4603      	mov	r3, r0
20002d5a:	461a      	mov	r2, r3
20002d5c:	687b      	ldr	r3, [r7, #4]
20002d5e:	729a      	strb	r2, [r3, #10]
E:\Github_Repos\SF2_Eth_FFT\Softconsole\FFT_Accelerator\Debug/../firmware/drivers/mss_ethernet_mac/mss_ethernet_mac.c:210
        }

#if (MSS_MAC_PHY_INTERFACE != BASEX1000)
        MSS_MAC_phy_init(cfg->phy_addr);
20002d60:	687b      	ldr	r3, [r7, #4]
20002d62:	7a9b      	ldrb	r3, [r3, #10]
20002d64:	4618      	mov	r0, r3
20002d66:	f7fd fdeb 	bl	20000940 <MSS_MAC_phy_init>
E:\Github_Repos\SF2_Eth_FFT\Softconsole\FFT_Accelerator\Debug/../firmware/drivers/mss_ethernet_mac/mss_ethernet_mac.c:222
#if ((MSS_MAC_PHY_INTERFACE == SGMII) || (MSS_MAC_PHY_INTERFACE == BASEX1000))
        coresgmii_init();
#endif

#if (MSS_MAC_PHY_INTERFACE != BASEX1000)
        MSS_MAC_phy_set_link_speed(cfg->speed_duplex_select);
20002d6a:	687b      	ldr	r3, [r7, #4]
20002d6c:	681b      	ldr	r3, [r3, #0]
20002d6e:	4618      	mov	r0, r3
20002d70:	f7fd fe1c 	bl	200009ac <MSS_MAC_phy_set_link_speed>
E:\Github_Repos\SF2_Eth_FFT\Softconsole\FFT_Accelerator\Debug/../firmware/drivers/mss_ethernet_mac/mss_ethernet_mac.c:223
        MSS_MAC_phy_autonegotiate();
20002d74:	f7fd fe84 	bl	20000a80 <MSS_MAC_phy_autonegotiate>
E:\Github_Repos\SF2_Eth_FFT\Softconsole\FFT_Accelerator\Debug/../firmware/drivers/mss_ethernet_mac/mss_ethernet_mac.c:238

#if ((MSS_MAC_PHY_INTERFACE == SGMII) || (MSS_MAC_PHY_INTERFACE == BASEX1000))
        coresgmii_autonegotiate();
#endif

        update_mac_cfg();
20002d78:	f000 f828 	bl	20002dcc <update_mac_cfg>
E:\Github_Repos\SF2_Eth_FFT\Softconsole\FFT_Accelerator\Debug/../firmware/drivers/mss_ethernet_mac/mss_ethernet_mac.c:241
        
        /* Disabled MAC statistics counters are cleared after they are read.*/
        SYSREG->MAC_STAT_CLRONRD_CR = 0x0u;
20002d7c:	4b0f      	ldr	r3, [pc, #60]	; (20002dbc <MSS_MAC_init+0x110>)
20002d7e:	2200      	movs	r2, #0
20002d80:	f8c3 20ac 	str.w	r2, [r3, #172]	; 0xac
E:\Github_Repos\SF2_Eth_FFT\Softconsole\FFT_Accelerator\Debug/../firmware/drivers/mss_ethernet_mac/mss_ethernet_mac.c:243
        /*Need to write 1 and then 0 to correctly clear and start all counters*/
        SYSREG->MAC_STAT_CLR_CR = 0x01u;
20002d84:	4b0d      	ldr	r3, [pc, #52]	; (20002dbc <MSS_MAC_init+0x110>)
20002d86:	2201      	movs	r2, #1
20002d88:	f8c3 21ac 	str.w	r2, [r3, #428]	; 0x1ac
E:\Github_Repos\SF2_Eth_FFT\Softconsole\FFT_Accelerator\Debug/../firmware/drivers/mss_ethernet_mac/mss_ethernet_mac.c:244
        SYSREG->MAC_STAT_CLR_CR = 0x00u;
20002d8c:	4b0b      	ldr	r3, [pc, #44]	; (20002dbc <MSS_MAC_init+0x110>)
20002d8e:	2200      	movs	r2, #0
20002d90:	f8c3 21ac 	str.w	r2, [r3, #428]	; 0x1ac
E:\Github_Repos\SF2_Eth_FFT\Softconsole\FFT_Accelerator\Debug/../firmware/drivers/mss_ethernet_mac/mss_ethernet_mac.c:247
        
        /* Enable transmission at MAC level. */
        set_bit_reg32(&MAC->CFG1, CFG1_TX_EN);
20002d94:	2100      	movs	r1, #0
20002d96:	480b      	ldr	r0, [pc, #44]	; (20002dc4 <MSS_MAC_init+0x118>)
20002d98:	f7ff ff32 	bl	20002c00 <set_bit_reg32>
E:\Github_Repos\SF2_Eth_FFT\Softconsole\FFT_Accelerator\Debug/../firmware/drivers/mss_ethernet_mac/mss_ethernet_mac.c:249
        /* Enable reception at MAC level.    */
        set_bit_reg32(&MAC->CFG1, CFG1_RX_EN);
20002d9c:	2102      	movs	r1, #2
20002d9e:	4809      	ldr	r0, [pc, #36]	; (20002dc4 <MSS_MAC_init+0x118>)
20002da0:	f7ff ff2e 	bl	20002c00 <set_bit_reg32>
E:\Github_Repos\SF2_Eth_FFT\Softconsole\FFT_Accelerator\Debug/../firmware/drivers/mss_ethernet_mac/mss_ethernet_mac.c:252
        
        /* Enable Tx Packet interrupt */
        set_bit_reg32(&MAC->DMA_IRQ_MASK, MSS_MAC_TXPKTSENT_IRQ);
20002da4:	2100      	movs	r1, #0
20002da6:	4808      	ldr	r0, [pc, #32]	; (20002dc8 <MSS_MAC_init+0x11c>)
20002da8:	f7ff ff2a 	bl	20002c00 <set_bit_reg32>
E:\Github_Repos\SF2_Eth_FFT\Softconsole\FFT_Accelerator\Debug/../firmware/drivers/mss_ethernet_mac/mss_ethernet_mac.c:254
        /* Enable RX Packet interrupt */
        set_bit_reg32(&MAC->DMA_IRQ_MASK, MSS_MAC_RXPKTRCVD_IRQ);
20002dac:	2104      	movs	r1, #4
20002dae:	4806      	ldr	r0, [pc, #24]	; (20002dc8 <MSS_MAC_init+0x11c>)
20002db0:	f7ff ff26 	bl	20002c00 <set_bit_reg32>
E:\Github_Repos\SF2_Eth_FFT\Softconsole\FFT_Accelerator\Debug/../firmware/drivers/mss_ethernet_mac/mss_ethernet_mac.c:256
    }
}
20002db4:	bf00      	nop
20002db6:	3708      	adds	r7, #8
20002db8:	46bd      	mov	sp, r7
20002dba:	bd80      	pop	{r7, pc}
20002dbc:	40038000 	.word	0x40038000
20002dc0:	200080a8 	.word	0x200080a8
20002dc4:	40041000 	.word	0x40041000
20002dc8:	40041198 	.word	0x40041198

20002dcc <update_mac_cfg>:
update_mac_cfg():
E:\Github_Repos\SF2_Eth_FFT\Softconsole\FFT_Accelerator\Debug/../firmware/drivers/mss_ethernet_mac/mss_ethernet_mac.c:262

/**************************************************************************//**
 * 
 */
static void update_mac_cfg(void)
{
20002dcc:	b580      	push	{r7, lr}
20002dce:	b082      	sub	sp, #8
20002dd0:	af00      	add	r7, sp, #0
E:\Github_Repos\SF2_Eth_FFT\Softconsole\FFT_Accelerator\Debug/../firmware/drivers/mss_ethernet_mac/mss_ethernet_mac.c:270
    uint8_t link_up;
    
#if (MSS_MAC_PHY_INTERFACE == BASEX1000)
    link_up = coresgmii_get_link_status(&speed, &fullduplex);
#else
    link_up = MSS_MAC_phy_get_link_status(&speed, &fullduplex);
20002dd2:	1d7a      	adds	r2, r7, #5
20002dd4:	1dbb      	adds	r3, r7, #6
20002dd6:	4611      	mov	r1, r2
20002dd8:	4618      	mov	r0, r3
20002dda:	f7fd fe93 	bl	20000b04 <MSS_MAC_phy_get_link_status>
20002dde:	4603      	mov	r3, r0
20002de0:	71fb      	strb	r3, [r7, #7]
E:\Github_Repos\SF2_Eth_FFT\Softconsole\FFT_Accelerator\Debug/../firmware/drivers/mss_ethernet_mac/mss_ethernet_mac.c:273
#endif

    if(link_up != MSS_MAC_LINK_DOWN)
20002de2:	79fb      	ldrb	r3, [r7, #7]
20002de4:	2b00      	cmp	r3, #0
20002de6:	d057      	beq.n	20002e98 <update_mac_cfg+0xcc>
E:\Github_Repos\SF2_Eth_FFT\Softconsole\FFT_Accelerator\Debug/../firmware/drivers/mss_ethernet_mac/mss_ethernet_mac.c:285
#if (MSS_MAC_PHY_INTERFACE == SGMII)
        coresgmii_set_link_speed(speed); 
#endif

        /* Reconfigure MAC based on PHY configuration. */
        if(MSS_MAC_100MBPS == speed)
20002de8:	79bb      	ldrb	r3, [r7, #6]
20002dea:	2b01      	cmp	r3, #1
20002dec:	d106      	bne.n	20002dfc <update_mac_cfg+0x30>
E:\Github_Repos\SF2_Eth_FFT\Softconsole\FFT_Accelerator\Debug/../firmware/drivers/mss_ethernet_mac/mss_ethernet_mac.c:287
        {
            MAC->INTERFACE_CTRL |= INTERFACE_SPEED_MASK;
20002dee:	4b2c      	ldr	r3, [pc, #176]	; (20002ea0 <update_mac_cfg+0xd4>)
20002df0:	6b9b      	ldr	r3, [r3, #56]	; 0x38
20002df2:	4a2b      	ldr	r2, [pc, #172]	; (20002ea0 <update_mac_cfg+0xd4>)
20002df4:	f443 3380 	orr.w	r3, r3, #65536	; 0x10000
20002df8:	6393      	str	r3, [r2, #56]	; 0x38
20002dfa:	e005      	b.n	20002e08 <update_mac_cfg+0x3c>
E:\Github_Repos\SF2_Eth_FFT\Softconsole\FFT_Accelerator\Debug/../firmware/drivers/mss_ethernet_mac/mss_ethernet_mac.c:291
        }
        else
        {
            MAC->INTERFACE_CTRL &= ~INTERFACE_SPEED_MASK;
20002dfc:	4b28      	ldr	r3, [pc, #160]	; (20002ea0 <update_mac_cfg+0xd4>)
20002dfe:	6b9b      	ldr	r3, [r3, #56]	; 0x38
20002e00:	4a27      	ldr	r2, [pc, #156]	; (20002ea0 <update_mac_cfg+0xd4>)
20002e02:	f423 3380 	bic.w	r3, r3, #65536	; 0x10000
20002e06:	6393      	str	r3, [r2, #56]	; 0x38
E:\Github_Repos\SF2_Eth_FFT\Softconsole\FFT_Accelerator\Debug/../firmware/drivers/mss_ethernet_mac/mss_ethernet_mac.c:295
        }
        
        /* Set byte/nibble mode based on interface type and link speed. */
        if(MSS_MAC_1000MBPS == speed)
20002e08:	79bb      	ldrb	r3, [r7, #6]
20002e0a:	2b02      	cmp	r3, #2
20002e0c:	d10c      	bne.n	20002e28 <update_mac_cfg+0x5c>
E:\Github_Repos\SF2_Eth_FFT\Softconsole\FFT_Accelerator\Debug/../firmware/drivers/mss_ethernet_mac/mss_ethernet_mac.c:298
        {
            /* Set interface to byte mode. */
            MAC->CFG2 &= ~(CFG2_BYTE_MASK | CFG2_NIBBLE_MASK);
20002e0e:	4b24      	ldr	r3, [pc, #144]	; (20002ea0 <update_mac_cfg+0xd4>)
20002e10:	685b      	ldr	r3, [r3, #4]
20002e12:	4a23      	ldr	r2, [pc, #140]	; (20002ea0 <update_mac_cfg+0xd4>)
20002e14:	f423 7340 	bic.w	r3, r3, #768	; 0x300
20002e18:	6053      	str	r3, [r2, #4]
E:\Github_Repos\SF2_Eth_FFT\Softconsole\FFT_Accelerator\Debug/../firmware/drivers/mss_ethernet_mac/mss_ethernet_mac.c:299
            MAC->CFG2 |= CFG2_BYTE_MASK;
20002e1a:	4b21      	ldr	r3, [pc, #132]	; (20002ea0 <update_mac_cfg+0xd4>)
20002e1c:	685b      	ldr	r3, [r3, #4]
20002e1e:	4a20      	ldr	r2, [pc, #128]	; (20002ea0 <update_mac_cfg+0xd4>)
20002e20:	f443 7300 	orr.w	r3, r3, #512	; 0x200
20002e24:	6053      	str	r3, [r2, #4]
20002e26:	e00b      	b.n	20002e40 <update_mac_cfg+0x74>
E:\Github_Repos\SF2_Eth_FFT\Softconsole\FFT_Accelerator\Debug/../firmware/drivers/mss_ethernet_mac/mss_ethernet_mac.c:304
        }
        else
        {
            /* Set interface to nibble mode. */
            MAC->CFG2 &= ~(CFG2_BYTE_MASK | CFG2_NIBBLE_MASK);
20002e28:	4b1d      	ldr	r3, [pc, #116]	; (20002ea0 <update_mac_cfg+0xd4>)
20002e2a:	685b      	ldr	r3, [r3, #4]
20002e2c:	4a1c      	ldr	r2, [pc, #112]	; (20002ea0 <update_mac_cfg+0xd4>)
20002e2e:	f423 7340 	bic.w	r3, r3, #768	; 0x300
20002e32:	6053      	str	r3, [r2, #4]
E:\Github_Repos\SF2_Eth_FFT\Softconsole\FFT_Accelerator\Debug/../firmware/drivers/mss_ethernet_mac/mss_ethernet_mac.c:305
            MAC->CFG2 |= CFG2_NIBBLE_MASK;
20002e34:	4b1a      	ldr	r3, [pc, #104]	; (20002ea0 <update_mac_cfg+0xd4>)
20002e36:	685b      	ldr	r3, [r3, #4]
20002e38:	4a19      	ldr	r2, [pc, #100]	; (20002ea0 <update_mac_cfg+0xd4>)
20002e3a:	f443 7380 	orr.w	r3, r3, #256	; 0x100
20002e3e:	6053      	str	r3, [r2, #4]
E:\Github_Repos\SF2_Eth_FFT\Softconsole\FFT_Accelerator\Debug/../firmware/drivers/mss_ethernet_mac/mss_ethernet_mac.c:309
        }
        
        /* Avoid extra divide by 10 of clock for 10Mbps links. */
        if(MSS_MAC_10MBPS == speed)
20002e40:	79bb      	ldrb	r3, [r7, #6]
20002e42:	2b00      	cmp	r3, #0
20002e44:	d101      	bne.n	20002e4a <update_mac_cfg+0x7e>
E:\Github_Repos\SF2_Eth_FFT\Softconsole\FFT_Accelerator\Debug/../firmware/drivers/mss_ethernet_mac/mss_ethernet_mac.c:311
        {
            speed = MSS_MAC_100MBPS;
20002e46:	2301      	movs	r3, #1
20002e48:	71bb      	strb	r3, [r7, #6]
E:\Github_Repos\SF2_Eth_FFT\Softconsole\FFT_Accelerator\Debug/../firmware/drivers/mss_ethernet_mac/mss_ethernet_mac.c:314
        }

        SYSREG->MAC_CR = (SYSREG->MAC_CR & ~MAC_CONFIG_SPEED_MASK) | (uint32_t)speed;
20002e4a:	4b16      	ldr	r3, [pc, #88]	; (20002ea4 <update_mac_cfg+0xd8>)
20002e4c:	f8d3 308c 	ldr.w	r3, [r3, #140]	; 0x8c
20002e50:	f023 0303 	bic.w	r3, r3, #3
20002e54:	79ba      	ldrb	r2, [r7, #6]
20002e56:	4611      	mov	r1, r2
20002e58:	4a12      	ldr	r2, [pc, #72]	; (20002ea4 <update_mac_cfg+0xd8>)
20002e5a:	430b      	orrs	r3, r1
20002e5c:	f8c2 308c 	str.w	r3, [r2, #140]	; 0x8c
E:\Github_Repos\SF2_Eth_FFT\Softconsole\FFT_Accelerator\Debug/../firmware/drivers/mss_ethernet_mac/mss_ethernet_mac.c:317
        
        /* Configure duplex mode */
        if(MSS_MAC_HALF_DUPLEX == fullduplex)
20002e60:	797b      	ldrb	r3, [r7, #5]
20002e62:	2b00      	cmp	r3, #0
20002e64:	d10c      	bne.n	20002e80 <update_mac_cfg+0xb4>
E:\Github_Repos\SF2_Eth_FFT\Softconsole\FFT_Accelerator\Debug/../firmware/drivers/mss_ethernet_mac/mss_ethernet_mac.c:320
        {
            /* half duplex */
            MAC->CFG2 &= ~CFG2_FDX_MASK;
20002e66:	4b0e      	ldr	r3, [pc, #56]	; (20002ea0 <update_mac_cfg+0xd4>)
20002e68:	685b      	ldr	r3, [r3, #4]
20002e6a:	4a0d      	ldr	r2, [pc, #52]	; (20002ea0 <update_mac_cfg+0xd4>)
20002e6c:	f023 0301 	bic.w	r3, r3, #1
20002e70:	6053      	str	r3, [r2, #4]
E:\Github_Repos\SF2_Eth_FFT\Softconsole\FFT_Accelerator\Debug/../firmware/drivers/mss_ethernet_mac/mss_ethernet_mac.c:321
            MAC->FIFO_CFG5 |= FIFO_CFG5_CFGHDPLX_MASK;
20002e72:	4b0b      	ldr	r3, [pc, #44]	; (20002ea0 <update_mac_cfg+0xd4>)
20002e74:	6ddb      	ldr	r3, [r3, #92]	; 0x5c
20002e76:	4a0a      	ldr	r2, [pc, #40]	; (20002ea0 <update_mac_cfg+0xd4>)
20002e78:	f443 0380 	orr.w	r3, r3, #4194304	; 0x400000
20002e7c:	65d3      	str	r3, [r2, #92]	; 0x5c
E:\Github_Repos\SF2_Eth_FFT\Softconsole\FFT_Accelerator\Debug/../firmware/drivers/mss_ethernet_mac/mss_ethernet_mac.c:331
            MAC->CFG2 |= CFG2_FDX_MASK;
            MAC->FIFO_CFG5 &= ~FIFO_CFG5_CFGHDPLX_MASK;
        }
        
    }
}
20002e7e:	e00b      	b.n	20002e98 <update_mac_cfg+0xcc>
E:\Github_Repos\SF2_Eth_FFT\Softconsole\FFT_Accelerator\Debug/../firmware/drivers/mss_ethernet_mac/mss_ethernet_mac.c:326
            MAC->CFG2 |= CFG2_FDX_MASK;
20002e80:	4b07      	ldr	r3, [pc, #28]	; (20002ea0 <update_mac_cfg+0xd4>)
20002e82:	685b      	ldr	r3, [r3, #4]
20002e84:	4a06      	ldr	r2, [pc, #24]	; (20002ea0 <update_mac_cfg+0xd4>)
20002e86:	f043 0301 	orr.w	r3, r3, #1
20002e8a:	6053      	str	r3, [r2, #4]
E:\Github_Repos\SF2_Eth_FFT\Softconsole\FFT_Accelerator\Debug/../firmware/drivers/mss_ethernet_mac/mss_ethernet_mac.c:327
            MAC->FIFO_CFG5 &= ~FIFO_CFG5_CFGHDPLX_MASK;
20002e8c:	4b04      	ldr	r3, [pc, #16]	; (20002ea0 <update_mac_cfg+0xd4>)
20002e8e:	6ddb      	ldr	r3, [r3, #92]	; 0x5c
20002e90:	4a03      	ldr	r2, [pc, #12]	; (20002ea0 <update_mac_cfg+0xd4>)
20002e92:	f423 0380 	bic.w	r3, r3, #4194304	; 0x400000
20002e96:	65d3      	str	r3, [r2, #92]	; 0x5c
E:\Github_Repos\SF2_Eth_FFT\Softconsole\FFT_Accelerator\Debug/../firmware/drivers/mss_ethernet_mac/mss_ethernet_mac.c:331
}
20002e98:	bf00      	nop
20002e9a:	3708      	adds	r7, #8
20002e9c:	46bd      	mov	sp, r7
20002e9e:	bd80      	pop	{r7, pc}
20002ea0:	40041000 	.word	0x40041000
20002ea4:	40038000 	.word	0x40038000

20002ea8 <MSS_MAC_cfg_struct_def_init>:
MSS_MAC_cfg_struct_def_init():
E:\Github_Repos\SF2_Eth_FFT\Softconsole\FFT_Accelerator\Debug/../firmware/drivers/mss_ethernet_mac/mss_ethernet_mac.c:498
void 
MSS_MAC_cfg_struct_def_init
(
    mss_mac_cfg_t * cfg
)
{
20002ea8:	b480      	push	{r7}
20002eaa:	b083      	sub	sp, #12
20002eac:	af00      	add	r7, sp, #0
20002eae:	6078      	str	r0, [r7, #4]
E:\Github_Repos\SF2_Eth_FFT\Softconsole\FFT_Accelerator\Debug/../firmware/drivers/mss_ethernet_mac/mss_ethernet_mac.c:504
    const uint8_t g_default_mac_address[6] =
    {
        0xC0u, 0xB1u, 0x3Cu, 0x88u, 0x88u, 0x88u
    };

    ASSERT(NULL_POINTER != cfg);
20002eb0:	687b      	ldr	r3, [r7, #4]
20002eb2:	2b00      	cmp	r3, #0
20002eb4:	d100      	bne.n	20002eb8 <MSS_MAC_cfg_struct_def_init+0x10>
E:\Github_Repos\SF2_Eth_FFT\Softconsole\FFT_Accelerator\Debug/../firmware/drivers/mss_ethernet_mac/mss_ethernet_mac.c:504 (discriminator 1)
20002eb6:	be00      	bkpt	0x0000
E:\Github_Repos\SF2_Eth_FFT\Softconsole\FFT_Accelerator\Debug/../firmware/drivers/mss_ethernet_mac/mss_ethernet_mac.c:505
    if(NULL_POINTER != cfg)
20002eb8:	687b      	ldr	r3, [r7, #4]
20002eba:	2b00      	cmp	r3, #0
20002ebc:	d067      	beq.n	20002f8e <MSS_MAC_cfg_struct_def_init+0xe6>
E:\Github_Repos\SF2_Eth_FFT\Softconsole\FFT_Accelerator\Debug/../firmware/drivers/mss_ethernet_mac/mss_ethernet_mac.c:507
    {
        cfg->speed_duplex_select = MSS_MAC_ANEG_ALL_SPEEDS;
20002ebe:	687b      	ldr	r3, [r7, #4]
20002ec0:	223f      	movs	r2, #63	; 0x3f
20002ec2:	601a      	str	r2, [r3, #0]
E:\Github_Repos\SF2_Eth_FFT\Softconsole\FFT_Accelerator\Debug/../firmware/drivers/mss_ethernet_mac/mss_ethernet_mac.c:508
        cfg->phy_addr           = MSS_MAC_AUTO_DETECT_PHY_ADDRESS;
20002ec4:	687b      	ldr	r3, [r7, #4]
20002ec6:	22ff      	movs	r2, #255	; 0xff
20002ec8:	729a      	strb	r2, [r3, #10]
E:\Github_Repos\SF2_Eth_FFT\Softconsole\FFT_Accelerator\Debug/../firmware/drivers/mss_ethernet_mac/mss_ethernet_mac.c:509
        cfg->tx_edc_enable      = MSS_MAC_ERR_DET_CORR_ENABLE;
20002eca:	687b      	ldr	r3, [r7, #4]
20002ecc:	2201      	movs	r2, #1
20002ece:	72da      	strb	r2, [r3, #11]
E:\Github_Repos\SF2_Eth_FFT\Softconsole\FFT_Accelerator\Debug/../firmware/drivers/mss_ethernet_mac/mss_ethernet_mac.c:510
        cfg->rx_edc_enable      = MSS_MAC_ERR_DET_CORR_ENABLE;
20002ed0:	687b      	ldr	r3, [r7, #4]
20002ed2:	2201      	movs	r2, #1
20002ed4:	731a      	strb	r2, [r3, #12]
E:\Github_Repos\SF2_Eth_FFT\Softconsole\FFT_Accelerator\Debug/../firmware/drivers/mss_ethernet_mac/mss_ethernet_mac.c:511
        cfg->preamble_length    = MSS_MAC_PREAMLEN_DEFVAL;
20002ed6:	687b      	ldr	r3, [r7, #4]
20002ed8:	2207      	movs	r2, #7
20002eda:	735a      	strb	r2, [r3, #13]
E:\Github_Repos\SF2_Eth_FFT\Softconsole\FFT_Accelerator\Debug/../firmware/drivers/mss_ethernet_mac/mss_ethernet_mac.c:512
        cfg->hugeframe_enable   = MSS_MAC_HUGE_FRAME_DISABLE;
20002edc:	687b      	ldr	r3, [r7, #4]
20002ede:	2200      	movs	r2, #0
20002ee0:	739a      	strb	r2, [r3, #14]
E:\Github_Repos\SF2_Eth_FFT\Softconsole\FFT_Accelerator\Debug/../firmware/drivers/mss_ethernet_mac/mss_ethernet_mac.c:513
        cfg->length_field_check = MSS_MAC_LENGTH_FILED_CHECK_ENABLE;
20002ee2:	687b      	ldr	r3, [r7, #4]
20002ee4:	2201      	movs	r2, #1
20002ee6:	73da      	strb	r2, [r3, #15]
E:\Github_Repos\SF2_Eth_FFT\Softconsole\FFT_Accelerator\Debug/../firmware/drivers/mss_ethernet_mac/mss_ethernet_mac.c:514
        cfg->pad_n_CRC          = MSS_MAC_PAD_N_CRC_ENABLE;
20002ee8:	687b      	ldr	r3, [r7, #4]
20002eea:	2201      	movs	r2, #1
20002eec:	741a      	strb	r2, [r3, #16]
E:\Github_Repos\SF2_Eth_FFT\Softconsole\FFT_Accelerator\Debug/../firmware/drivers/mss_ethernet_mac/mss_ethernet_mac.c:515
        cfg->append_CRC         = MSS_MAC_CRC_ENABLE;
20002eee:	687b      	ldr	r3, [r7, #4]
20002ef0:	2201      	movs	r2, #1
20002ef2:	745a      	strb	r2, [r3, #17]
E:\Github_Repos\SF2_Eth_FFT\Softconsole\FFT_Accelerator\Debug/../firmware/drivers/mss_ethernet_mac/mss_ethernet_mac.c:516
        cfg->loopback           = MSS_MAC_LOOPBACK_DISABLE;
20002ef4:	687b      	ldr	r3, [r7, #4]
20002ef6:	2200      	movs	r2, #0
20002ef8:	74da      	strb	r2, [r3, #19]
E:\Github_Repos\SF2_Eth_FFT\Softconsole\FFT_Accelerator\Debug/../firmware/drivers/mss_ethernet_mac/mss_ethernet_mac.c:517
        cfg->rx_flow_ctrl       = MSS_MAC_RX_FLOW_CTRL_ENABLE;
20002efa:	687b      	ldr	r3, [r7, #4]
20002efc:	2201      	movs	r2, #1
20002efe:	751a      	strb	r2, [r3, #20]
E:\Github_Repos\SF2_Eth_FFT\Softconsole\FFT_Accelerator\Debug/../firmware/drivers/mss_ethernet_mac/mss_ethernet_mac.c:518
        cfg->tx_flow_ctrl       = MSS_MAC_TX_FLOW_CTRL_ENABLE;
20002f00:	687b      	ldr	r3, [r7, #4]
20002f02:	2201      	movs	r2, #1
20002f04:	755a      	strb	r2, [r3, #21]
E:\Github_Repos\SF2_Eth_FFT\Softconsole\FFT_Accelerator\Debug/../firmware/drivers/mss_ethernet_mac/mss_ethernet_mac.c:519
        cfg->min_IFG            = MSS_MAC_MINIFG_DEFVAL;
20002f06:	687b      	ldr	r3, [r7, #4]
20002f08:	2250      	movs	r2, #80	; 0x50
20002f0a:	759a      	strb	r2, [r3, #22]
E:\Github_Repos\SF2_Eth_FFT\Softconsole\FFT_Accelerator\Debug/../firmware/drivers/mss_ethernet_mac/mss_ethernet_mac.c:520
        cfg->btb_IFG            = MSS_MAC_BTBIFG_DEFVAL;
20002f0c:	687b      	ldr	r3, [r7, #4]
20002f0e:	2260      	movs	r2, #96	; 0x60
20002f10:	75da      	strb	r2, [r3, #23]
E:\Github_Repos\SF2_Eth_FFT\Softconsole\FFT_Accelerator\Debug/../firmware/drivers/mss_ethernet_mac/mss_ethernet_mac.c:521
        cfg->max_retx_tries     = MSS_MAC_MAXRETX_DEFVAL;
20002f12:	687b      	ldr	r3, [r7, #4]
20002f14:	220f      	movs	r2, #15
20002f16:	761a      	strb	r2, [r3, #24]
E:\Github_Repos\SF2_Eth_FFT\Softconsole\FFT_Accelerator\Debug/../firmware/drivers/mss_ethernet_mac/mss_ethernet_mac.c:522
        cfg->excessive_defer    = MSS_MAC_EXSS_DEFER_DISABLE;
20002f18:	687b      	ldr	r3, [r7, #4]
20002f1a:	2200      	movs	r2, #0
20002f1c:	765a      	strb	r2, [r3, #25]
E:\Github_Repos\SF2_Eth_FFT\Softconsole\FFT_Accelerator\Debug/../firmware/drivers/mss_ethernet_mac/mss_ethernet_mac.c:523
        cfg->nobackoff          = MSS_MAC_NO_BACKOFF_DISABLE;
20002f1e:	687b      	ldr	r3, [r7, #4]
20002f20:	2200      	movs	r2, #0
20002f22:	769a      	strb	r2, [r3, #26]
E:\Github_Repos\SF2_Eth_FFT\Softconsole\FFT_Accelerator\Debug/../firmware/drivers/mss_ethernet_mac/mss_ethernet_mac.c:524
        cfg->backpres_nobackoff = MSS_MAC_BACKPRESS_NO_BACKOFF_DISABLE;
20002f24:	687b      	ldr	r3, [r7, #4]
20002f26:	2200      	movs	r2, #0
20002f28:	76da      	strb	r2, [r3, #27]
E:\Github_Repos\SF2_Eth_FFT\Softconsole\FFT_Accelerator\Debug/../firmware/drivers/mss_ethernet_mac/mss_ethernet_mac.c:525
        cfg->ABEB_enable        = MSS_MAC_ABEB_DISABLE;
20002f2a:	687b      	ldr	r3, [r7, #4]
20002f2c:	2200      	movs	r2, #0
20002f2e:	771a      	strb	r2, [r3, #28]
E:\Github_Repos\SF2_Eth_FFT\Softconsole\FFT_Accelerator\Debug/../firmware/drivers/mss_ethernet_mac/mss_ethernet_mac.c:526
        cfg->ABEB_truncvalue    = MSS_MAC_ABEBTRUNC_DEFVAL;
20002f30:	687b      	ldr	r3, [r7, #4]
20002f32:	220a      	movs	r2, #10
20002f34:	775a      	strb	r2, [r3, #29]
E:\Github_Repos\SF2_Eth_FFT\Softconsole\FFT_Accelerator\Debug/../firmware/drivers/mss_ethernet_mac/mss_ethernet_mac.c:527
        cfg->phyclk             = MSS_MAC_DEF_PHY_CLK;
20002f36:	687b      	ldr	r3, [r7, #4]
20002f38:	2207      	movs	r2, #7
20002f3a:	779a      	strb	r2, [r3, #30]
E:\Github_Repos\SF2_Eth_FFT\Softconsole\FFT_Accelerator\Debug/../firmware/drivers/mss_ethernet_mac/mss_ethernet_mac.c:528
        cfg->supress_preamble   = MSS_MAC_SUPPRESS_PREAMBLE_DISABLE;
20002f3c:	687b      	ldr	r3, [r7, #4]
20002f3e:	2200      	movs	r2, #0
20002f40:	77da      	strb	r2, [r3, #31]
E:\Github_Repos\SF2_Eth_FFT\Softconsole\FFT_Accelerator\Debug/../firmware/drivers/mss_ethernet_mac/mss_ethernet_mac.c:529
        cfg->max_frame_length   = MSS_MAC_MAXFRAMELEN_DEFVAL;
20002f42:	687b      	ldr	r3, [r7, #4]
20002f44:	f44f 62c0 	mov.w	r2, #1536	; 0x600
20002f48:	841a      	strh	r2, [r3, #32]
E:\Github_Repos\SF2_Eth_FFT\Softconsole\FFT_Accelerator\Debug/../firmware/drivers/mss_ethernet_mac/mss_ethernet_mac.c:530
        cfg->non_btb_IFG        = MSS_MAC_NONBTBIFG_DEFVAL;
20002f4a:	687b      	ldr	r3, [r7, #4]
20002f4c:	f244 0260 	movw	r2, #16480	; 0x4060
20002f50:	845a      	strh	r2, [r3, #34]	; 0x22
E:\Github_Repos\SF2_Eth_FFT\Softconsole\FFT_Accelerator\Debug/../firmware/drivers/mss_ethernet_mac/mss_ethernet_mac.c:531
        cfg->slottime           = MSS_MAC_SLOTTIME_DEFVAL;
20002f52:	687b      	ldr	r3, [r7, #4]
20002f54:	2237      	movs	r2, #55	; 0x37
20002f56:	849a      	strh	r2, [r3, #36]	; 0x24
E:\Github_Repos\SF2_Eth_FFT\Softconsole\FFT_Accelerator\Debug/../firmware/drivers/mss_ethernet_mac/mss_ethernet_mac.c:532
        cfg->framedrop_mask     = MSS_MAC_FRAME_DROP_MASK_DEFVAL;
20002f58:	687b      	ldr	r3, [r7, #4]
20002f5a:	2200      	movs	r2, #0
20002f5c:	629a      	str	r2, [r3, #40]	; 0x28
E:\Github_Repos\SF2_Eth_FFT\Softconsole\FFT_Accelerator\Debug/../firmware/drivers/mss_ethernet_mac/mss_ethernet_mac.c:534
        
        cfg->mac_addr[0] = g_default_mac_address[0];
20002f5e:	4b0e      	ldr	r3, [pc, #56]	; (20002f98 <MSS_MAC_cfg_struct_def_init+0xf0>)
20002f60:	781a      	ldrb	r2, [r3, #0]
20002f62:	687b      	ldr	r3, [r7, #4]
20002f64:	711a      	strb	r2, [r3, #4]
E:\Github_Repos\SF2_Eth_FFT\Softconsole\FFT_Accelerator\Debug/../firmware/drivers/mss_ethernet_mac/mss_ethernet_mac.c:535
        cfg->mac_addr[1] = g_default_mac_address[1];
20002f66:	4b0c      	ldr	r3, [pc, #48]	; (20002f98 <MSS_MAC_cfg_struct_def_init+0xf0>)
20002f68:	785a      	ldrb	r2, [r3, #1]
20002f6a:	687b      	ldr	r3, [r7, #4]
20002f6c:	715a      	strb	r2, [r3, #5]
E:\Github_Repos\SF2_Eth_FFT\Softconsole\FFT_Accelerator\Debug/../firmware/drivers/mss_ethernet_mac/mss_ethernet_mac.c:536
        cfg->mac_addr[2] = g_default_mac_address[2];
20002f6e:	4b0a      	ldr	r3, [pc, #40]	; (20002f98 <MSS_MAC_cfg_struct_def_init+0xf0>)
20002f70:	789a      	ldrb	r2, [r3, #2]
20002f72:	687b      	ldr	r3, [r7, #4]
20002f74:	719a      	strb	r2, [r3, #6]
E:\Github_Repos\SF2_Eth_FFT\Softconsole\FFT_Accelerator\Debug/../firmware/drivers/mss_ethernet_mac/mss_ethernet_mac.c:537
        cfg->mac_addr[3] = g_default_mac_address[3];
20002f76:	4b08      	ldr	r3, [pc, #32]	; (20002f98 <MSS_MAC_cfg_struct_def_init+0xf0>)
20002f78:	78da      	ldrb	r2, [r3, #3]
20002f7a:	687b      	ldr	r3, [r7, #4]
20002f7c:	71da      	strb	r2, [r3, #7]
E:\Github_Repos\SF2_Eth_FFT\Softconsole\FFT_Accelerator\Debug/../firmware/drivers/mss_ethernet_mac/mss_ethernet_mac.c:538
        cfg->mac_addr[4] = g_default_mac_address[4];
20002f7e:	4b06      	ldr	r3, [pc, #24]	; (20002f98 <MSS_MAC_cfg_struct_def_init+0xf0>)
20002f80:	791a      	ldrb	r2, [r3, #4]
20002f82:	687b      	ldr	r3, [r7, #4]
20002f84:	721a      	strb	r2, [r3, #8]
E:\Github_Repos\SF2_Eth_FFT\Softconsole\FFT_Accelerator\Debug/../firmware/drivers/mss_ethernet_mac/mss_ethernet_mac.c:539
        cfg->mac_addr[5] = g_default_mac_address[5];
20002f86:	4b04      	ldr	r3, [pc, #16]	; (20002f98 <MSS_MAC_cfg_struct_def_init+0xf0>)
20002f88:	795a      	ldrb	r2, [r3, #5]
20002f8a:	687b      	ldr	r3, [r7, #4]
20002f8c:	725a      	strb	r2, [r3, #9]
E:\Github_Repos\SF2_Eth_FFT\Softconsole\FFT_Accelerator\Debug/../firmware/drivers/mss_ethernet_mac/mss_ethernet_mac.c:541
    }
}
20002f8e:	bf00      	nop
20002f90:	370c      	adds	r7, #12
20002f92:	46bd      	mov	sp, r7
20002f94:	bc80      	pop	{r7}
20002f96:	4770      	bx	lr
20002f98:	20004998 	.word	0x20004998

20002f9c <mac_reset>:
mac_reset():
E:\Github_Repos\SF2_Eth_FFT\Softconsole\FFT_Accelerator\Debug/../firmware/drivers/mss_ethernet_mac/mss_ethernet_mac.c:551
static void 
mac_reset
(
    void
)
{
20002f9c:	b580      	push	{r7, lr}
20002f9e:	af00      	add	r7, sp, #0
E:\Github_Repos\SF2_Eth_FFT\Softconsole\FFT_Accelerator\Debug/../firmware/drivers/mss_ethernet_mac/mss_ethernet_mac.c:553
    /* Reset MCXMAC TX functionality */
    set_bit_reg32(&MAC->CFG1, CFG1_TX_RST);
20002fa0:	2110      	movs	r1, #16
20002fa2:	4814      	ldr	r0, [pc, #80]	; (20002ff4 <mac_reset+0x58>)
20002fa4:	f7ff fe2c 	bl	20002c00 <set_bit_reg32>
E:\Github_Repos\SF2_Eth_FFT\Softconsole\FFT_Accelerator\Debug/../firmware/drivers/mss_ethernet_mac/mss_ethernet_mac.c:556

    /* Reset MCXMAC RX functionality */
    set_bit_reg32(&MAC->CFG1, CFG1_RX_RST);
20002fa8:	2111      	movs	r1, #17
20002faa:	4812      	ldr	r0, [pc, #72]	; (20002ff4 <mac_reset+0x58>)
20002fac:	f7ff fe28 	bl	20002c00 <set_bit_reg32>
E:\Github_Repos\SF2_Eth_FFT\Softconsole\FFT_Accelerator\Debug/../firmware/drivers/mss_ethernet_mac/mss_ethernet_mac.c:559

    /* Reset MCXMAC TX control */
    set_bit_reg32(&MAC->CFG1, CFG1_TXCTL_RST);
20002fb0:	2112      	movs	r1, #18
20002fb2:	4810      	ldr	r0, [pc, #64]	; (20002ff4 <mac_reset+0x58>)
20002fb4:	f7ff fe24 	bl	20002c00 <set_bit_reg32>
E:\Github_Repos\SF2_Eth_FFT\Softconsole\FFT_Accelerator\Debug/../firmware/drivers/mss_ethernet_mac/mss_ethernet_mac.c:562

    /* Reset MCXMAC RX control */
    set_bit_reg32(&MAC->CFG1, CFG1_RXCTL_RST);
20002fb8:	2113      	movs	r1, #19
20002fba:	480e      	ldr	r0, [pc, #56]	; (20002ff4 <mac_reset+0x58>)
20002fbc:	f7ff fe20 	bl	20002c00 <set_bit_reg32>
E:\Github_Repos\SF2_Eth_FFT\Softconsole\FFT_Accelerator\Debug/../firmware/drivers/mss_ethernet_mac/mss_ethernet_mac.c:565

    /* Reset MCXMAC interface control */
    set_bit_reg32(&MAC->INTERFACE_CTRL, MII_INTF_RESET);
20002fc0:	211f      	movs	r1, #31
20002fc2:	480d      	ldr	r0, [pc, #52]	; (20002ff8 <mac_reset+0x5c>)
20002fc4:	f7ff fe1c 	bl	20002c00 <set_bit_reg32>
E:\Github_Repos\SF2_Eth_FFT\Softconsole\FFT_Accelerator\Debug/../firmware/drivers/mss_ethernet_mac/mss_ethernet_mac.c:568

    /* Reset FIFO watermark module */
    set_bit_reg32(&MAC->FIFO_CFG0, FIFO_CFG0_WMM_RST);
20002fc8:	2100      	movs	r1, #0
20002fca:	480c      	ldr	r0, [pc, #48]	; (20002ffc <mac_reset+0x60>)
20002fcc:	f7ff fe18 	bl	20002c00 <set_bit_reg32>
E:\Github_Repos\SF2_Eth_FFT\Softconsole\FFT_Accelerator\Debug/../firmware/drivers/mss_ethernet_mac/mss_ethernet_mac.c:571

    /* Reset FIFO Rx system module */
    set_bit_reg32(&MAC->FIFO_CFG0, FIFO_CFG0_RSYS_RST);
20002fd0:	2101      	movs	r1, #1
20002fd2:	480a      	ldr	r0, [pc, #40]	; (20002ffc <mac_reset+0x60>)
20002fd4:	f7ff fe14 	bl	20002c00 <set_bit_reg32>
E:\Github_Repos\SF2_Eth_FFT\Softconsole\FFT_Accelerator\Debug/../firmware/drivers/mss_ethernet_mac/mss_ethernet_mac.c:574

    /* Reset FIFO Rx fab module */
    set_bit_reg32(&MAC->FIFO_CFG0, FIFO_CFG0_RFAB_RST);
20002fd8:	2102      	movs	r1, #2
20002fda:	4808      	ldr	r0, [pc, #32]	; (20002ffc <mac_reset+0x60>)
20002fdc:	f7ff fe10 	bl	20002c00 <set_bit_reg32>
E:\Github_Repos\SF2_Eth_FFT\Softconsole\FFT_Accelerator\Debug/../firmware/drivers/mss_ethernet_mac/mss_ethernet_mac.c:577

    /* Reset FIFO Tx system module */
    set_bit_reg32(&MAC->FIFO_CFG0, FIFO_CFG0_TSYS_RST);
20002fe0:	2103      	movs	r1, #3
20002fe2:	4806      	ldr	r0, [pc, #24]	; (20002ffc <mac_reset+0x60>)
20002fe4:	f7ff fe0c 	bl	20002c00 <set_bit_reg32>
E:\Github_Repos\SF2_Eth_FFT\Softconsole\FFT_Accelerator\Debug/../firmware/drivers/mss_ethernet_mac/mss_ethernet_mac.c:580

    /* Reset FIFO Tx system module */
    set_bit_reg32(&MAC->FIFO_CFG0, FIFO_CFG0_TFAB_RST);
20002fe8:	2104      	movs	r1, #4
20002fea:	4804      	ldr	r0, [pc, #16]	; (20002ffc <mac_reset+0x60>)
20002fec:	f7ff fe08 	bl	20002c00 <set_bit_reg32>
E:\Github_Repos\SF2_Eth_FFT\Softconsole\FFT_Accelerator\Debug/../firmware/drivers/mss_ethernet_mac/mss_ethernet_mac.c:581
}
20002ff0:	bf00      	nop
20002ff2:	bd80      	pop	{r7, pc}
20002ff4:	40041000 	.word	0x40041000
20002ff8:	40041038 	.word	0x40041038
20002ffc:	40041048 	.word	0x40041048

20003000 <config_mac_hw>:
config_mac_hw():
E:\Github_Repos\SF2_Eth_FFT\Softconsole\FFT_Accelerator\Debug/../firmware/drivers/mss_ethernet_mac/mss_ethernet_mac.c:587

/**************************************************************************//**
 * 
 */
static void config_mac_hw(const mss_mac_cfg_t * cfg)
{
20003000:	b580      	push	{r7, lr}
20003002:	b084      	sub	sp, #16
20003004:	af00      	add	r7, sp, #0
20003006:	6078      	str	r0, [r7, #4]
E:\Github_Repos\SF2_Eth_FFT\Softconsole\FFT_Accelerator\Debug/../firmware/drivers/mss_ethernet_mac/mss_ethernet_mac.c:591
    uint32_t tempreg;
    
    /* Check for validity of configuration parameters */
    ASSERT( IS_STATE(cfg->tx_edc_enable) );
20003008:	687b      	ldr	r3, [r7, #4]
2000300a:	7adb      	ldrb	r3, [r3, #11]
2000300c:	2b01      	cmp	r3, #1
2000300e:	d004      	beq.n	2000301a <config_mac_hw+0x1a>
E:\Github_Repos\SF2_Eth_FFT\Softconsole\FFT_Accelerator\Debug/../firmware/drivers/mss_ethernet_mac/mss_ethernet_mac.c:591 (discriminator 1)
20003010:	687b      	ldr	r3, [r7, #4]
20003012:	7adb      	ldrb	r3, [r3, #11]
20003014:	2b00      	cmp	r3, #0
20003016:	d000      	beq.n	2000301a <config_mac_hw+0x1a>
E:\Github_Repos\SF2_Eth_FFT\Softconsole\FFT_Accelerator\Debug/../firmware/drivers/mss_ethernet_mac/mss_ethernet_mac.c:591 (discriminator 2)
20003018:	be00      	bkpt	0x0000
E:\Github_Repos\SF2_Eth_FFT\Softconsole\FFT_Accelerator\Debug/../firmware/drivers/mss_ethernet_mac/mss_ethernet_mac.c:592
    ASSERT( IS_STATE(cfg->rx_edc_enable) );        
2000301a:	687b      	ldr	r3, [r7, #4]
2000301c:	7b1b      	ldrb	r3, [r3, #12]
2000301e:	2b01      	cmp	r3, #1
20003020:	d004      	beq.n	2000302c <config_mac_hw+0x2c>
E:\Github_Repos\SF2_Eth_FFT\Softconsole\FFT_Accelerator\Debug/../firmware/drivers/mss_ethernet_mac/mss_ethernet_mac.c:592 (discriminator 1)
20003022:	687b      	ldr	r3, [r7, #4]
20003024:	7b1b      	ldrb	r3, [r3, #12]
20003026:	2b00      	cmp	r3, #0
20003028:	d000      	beq.n	2000302c <config_mac_hw+0x2c>
E:\Github_Repos\SF2_Eth_FFT\Softconsole\FFT_Accelerator\Debug/../firmware/drivers/mss_ethernet_mac/mss_ethernet_mac.c:592 (discriminator 2)
2000302a:	be00      	bkpt	0x0000
E:\Github_Repos\SF2_Eth_FFT\Softconsole\FFT_Accelerator\Debug/../firmware/drivers/mss_ethernet_mac/mss_ethernet_mac.c:593
    ASSERT( MSS_MAC_PREAMLEN_MAXVAL >= cfg->preamble_length );
2000302c:	687b      	ldr	r3, [r7, #4]
2000302e:	7b5b      	ldrb	r3, [r3, #13]
20003030:	2b0f      	cmp	r3, #15
20003032:	d900      	bls.n	20003036 <config_mac_hw+0x36>
E:\Github_Repos\SF2_Eth_FFT\Softconsole\FFT_Accelerator\Debug/../firmware/drivers/mss_ethernet_mac/mss_ethernet_mac.c:593 (discriminator 1)
20003034:	be00      	bkpt	0x0000
E:\Github_Repos\SF2_Eth_FFT\Softconsole\FFT_Accelerator\Debug/../firmware/drivers/mss_ethernet_mac/mss_ethernet_mac.c:594
    ASSERT( IS_STATE(cfg->hugeframe_enable) );
20003036:	687b      	ldr	r3, [r7, #4]
20003038:	7b9b      	ldrb	r3, [r3, #14]
2000303a:	2b01      	cmp	r3, #1
2000303c:	d004      	beq.n	20003048 <config_mac_hw+0x48>
E:\Github_Repos\SF2_Eth_FFT\Softconsole\FFT_Accelerator\Debug/../firmware/drivers/mss_ethernet_mac/mss_ethernet_mac.c:594 (discriminator 1)
2000303e:	687b      	ldr	r3, [r7, #4]
20003040:	7b9b      	ldrb	r3, [r3, #14]
20003042:	2b00      	cmp	r3, #0
20003044:	d000      	beq.n	20003048 <config_mac_hw+0x48>
E:\Github_Repos\SF2_Eth_FFT\Softconsole\FFT_Accelerator\Debug/../firmware/drivers/mss_ethernet_mac/mss_ethernet_mac.c:594 (discriminator 2)
20003046:	be00      	bkpt	0x0000
E:\Github_Repos\SF2_Eth_FFT\Softconsole\FFT_Accelerator\Debug/../firmware/drivers/mss_ethernet_mac/mss_ethernet_mac.c:595
    ASSERT( IS_STATE(cfg->length_field_check) );
20003048:	687b      	ldr	r3, [r7, #4]
2000304a:	7bdb      	ldrb	r3, [r3, #15]
2000304c:	2b01      	cmp	r3, #1
2000304e:	d004      	beq.n	2000305a <config_mac_hw+0x5a>
E:\Github_Repos\SF2_Eth_FFT\Softconsole\FFT_Accelerator\Debug/../firmware/drivers/mss_ethernet_mac/mss_ethernet_mac.c:595 (discriminator 1)
20003050:	687b      	ldr	r3, [r7, #4]
20003052:	7bdb      	ldrb	r3, [r3, #15]
20003054:	2b00      	cmp	r3, #0
20003056:	d000      	beq.n	2000305a <config_mac_hw+0x5a>
E:\Github_Repos\SF2_Eth_FFT\Softconsole\FFT_Accelerator\Debug/../firmware/drivers/mss_ethernet_mac/mss_ethernet_mac.c:595 (discriminator 2)
20003058:	be00      	bkpt	0x0000
E:\Github_Repos\SF2_Eth_FFT\Softconsole\FFT_Accelerator\Debug/../firmware/drivers/mss_ethernet_mac/mss_ethernet_mac.c:596
    ASSERT( IS_STATE(cfg->pad_n_CRC) );
2000305a:	687b      	ldr	r3, [r7, #4]
2000305c:	7c1b      	ldrb	r3, [r3, #16]
2000305e:	2b01      	cmp	r3, #1
20003060:	d004      	beq.n	2000306c <config_mac_hw+0x6c>
E:\Github_Repos\SF2_Eth_FFT\Softconsole\FFT_Accelerator\Debug/../firmware/drivers/mss_ethernet_mac/mss_ethernet_mac.c:596 (discriminator 1)
20003062:	687b      	ldr	r3, [r7, #4]
20003064:	7c1b      	ldrb	r3, [r3, #16]
20003066:	2b00      	cmp	r3, #0
20003068:	d000      	beq.n	2000306c <config_mac_hw+0x6c>
E:\Github_Repos\SF2_Eth_FFT\Softconsole\FFT_Accelerator\Debug/../firmware/drivers/mss_ethernet_mac/mss_ethernet_mac.c:596 (discriminator 2)
2000306a:	be00      	bkpt	0x0000
E:\Github_Repos\SF2_Eth_FFT\Softconsole\FFT_Accelerator\Debug/../firmware/drivers/mss_ethernet_mac/mss_ethernet_mac.c:597
    ASSERT( IS_STATE(cfg->append_CRC) );
2000306c:	687b      	ldr	r3, [r7, #4]
2000306e:	7c5b      	ldrb	r3, [r3, #17]
20003070:	2b01      	cmp	r3, #1
20003072:	d004      	beq.n	2000307e <config_mac_hw+0x7e>
E:\Github_Repos\SF2_Eth_FFT\Softconsole\FFT_Accelerator\Debug/../firmware/drivers/mss_ethernet_mac/mss_ethernet_mac.c:597 (discriminator 1)
20003074:	687b      	ldr	r3, [r7, #4]
20003076:	7c5b      	ldrb	r3, [r3, #17]
20003078:	2b00      	cmp	r3, #0
2000307a:	d000      	beq.n	2000307e <config_mac_hw+0x7e>
E:\Github_Repos\SF2_Eth_FFT\Softconsole\FFT_Accelerator\Debug/../firmware/drivers/mss_ethernet_mac/mss_ethernet_mac.c:597 (discriminator 2)
2000307c:	be00      	bkpt	0x0000
E:\Github_Repos\SF2_Eth_FFT\Softconsole\FFT_Accelerator\Debug/../firmware/drivers/mss_ethernet_mac/mss_ethernet_mac.c:598
    ASSERT( IS_STATE(cfg->loopback) );
2000307e:	687b      	ldr	r3, [r7, #4]
20003080:	7cdb      	ldrb	r3, [r3, #19]
20003082:	2b01      	cmp	r3, #1
20003084:	d004      	beq.n	20003090 <config_mac_hw+0x90>
E:\Github_Repos\SF2_Eth_FFT\Softconsole\FFT_Accelerator\Debug/../firmware/drivers/mss_ethernet_mac/mss_ethernet_mac.c:598 (discriminator 1)
20003086:	687b      	ldr	r3, [r7, #4]
20003088:	7cdb      	ldrb	r3, [r3, #19]
2000308a:	2b00      	cmp	r3, #0
2000308c:	d000      	beq.n	20003090 <config_mac_hw+0x90>
E:\Github_Repos\SF2_Eth_FFT\Softconsole\FFT_Accelerator\Debug/../firmware/drivers/mss_ethernet_mac/mss_ethernet_mac.c:598 (discriminator 2)
2000308e:	be00      	bkpt	0x0000
E:\Github_Repos\SF2_Eth_FFT\Softconsole\FFT_Accelerator\Debug/../firmware/drivers/mss_ethernet_mac/mss_ethernet_mac.c:599
    ASSERT( IS_STATE(cfg->rx_flow_ctrl) );
20003090:	687b      	ldr	r3, [r7, #4]
20003092:	7d1b      	ldrb	r3, [r3, #20]
20003094:	2b01      	cmp	r3, #1
20003096:	d004      	beq.n	200030a2 <config_mac_hw+0xa2>
E:\Github_Repos\SF2_Eth_FFT\Softconsole\FFT_Accelerator\Debug/../firmware/drivers/mss_ethernet_mac/mss_ethernet_mac.c:599 (discriminator 1)
20003098:	687b      	ldr	r3, [r7, #4]
2000309a:	7d1b      	ldrb	r3, [r3, #20]
2000309c:	2b00      	cmp	r3, #0
2000309e:	d000      	beq.n	200030a2 <config_mac_hw+0xa2>
E:\Github_Repos\SF2_Eth_FFT\Softconsole\FFT_Accelerator\Debug/../firmware/drivers/mss_ethernet_mac/mss_ethernet_mac.c:599 (discriminator 2)
200030a0:	be00      	bkpt	0x0000
E:\Github_Repos\SF2_Eth_FFT\Softconsole\FFT_Accelerator\Debug/../firmware/drivers/mss_ethernet_mac/mss_ethernet_mac.c:600
    ASSERT( IS_STATE(cfg->tx_flow_ctrl) );
200030a2:	687b      	ldr	r3, [r7, #4]
200030a4:	7d5b      	ldrb	r3, [r3, #21]
200030a6:	2b01      	cmp	r3, #1
200030a8:	d004      	beq.n	200030b4 <config_mac_hw+0xb4>
E:\Github_Repos\SF2_Eth_FFT\Softconsole\FFT_Accelerator\Debug/../firmware/drivers/mss_ethernet_mac/mss_ethernet_mac.c:600 (discriminator 1)
200030aa:	687b      	ldr	r3, [r7, #4]
200030ac:	7d5b      	ldrb	r3, [r3, #21]
200030ae:	2b00      	cmp	r3, #0
200030b0:	d000      	beq.n	200030b4 <config_mac_hw+0xb4>
E:\Github_Repos\SF2_Eth_FFT\Softconsole\FFT_Accelerator\Debug/../firmware/drivers/mss_ethernet_mac/mss_ethernet_mac.c:600 (discriminator 2)
200030b2:	be00      	bkpt	0x0000
E:\Github_Repos\SF2_Eth_FFT\Softconsole\FFT_Accelerator\Debug/../firmware/drivers/mss_ethernet_mac/mss_ethernet_mac.c:602
    ASSERT( MSS_MAC_MINIFG_MAXVAL >= cfg->min_IFG );            
    ASSERT( MSS_MAC_BTBIFG_MAXVAL >= cfg->btb_IFG );           
200030b4:	687b      	ldr	r3, [r7, #4]
200030b6:	7ddb      	ldrb	r3, [r3, #23]
200030b8:	b25b      	sxtb	r3, r3
200030ba:	2b00      	cmp	r3, #0
200030bc:	da00      	bge.n	200030c0 <config_mac_hw+0xc0>
E:\Github_Repos\SF2_Eth_FFT\Softconsole\FFT_Accelerator\Debug/../firmware/drivers/mss_ethernet_mac/mss_ethernet_mac.c:602 (discriminator 1)
200030be:	be00      	bkpt	0x0000
E:\Github_Repos\SF2_Eth_FFT\Softconsole\FFT_Accelerator\Debug/../firmware/drivers/mss_ethernet_mac/mss_ethernet_mac.c:603
    ASSERT( MSS_MAC_MAXRETX_MAXVAL >= cfg->max_retx_tries );      
200030c0:	687b      	ldr	r3, [r7, #4]
200030c2:	7e1b      	ldrb	r3, [r3, #24]
200030c4:	2b1f      	cmp	r3, #31
200030c6:	d900      	bls.n	200030ca <config_mac_hw+0xca>
E:\Github_Repos\SF2_Eth_FFT\Softconsole\FFT_Accelerator\Debug/../firmware/drivers/mss_ethernet_mac/mss_ethernet_mac.c:603 (discriminator 1)
200030c8:	be00      	bkpt	0x0000
E:\Github_Repos\SF2_Eth_FFT\Softconsole\FFT_Accelerator\Debug/../firmware/drivers/mss_ethernet_mac/mss_ethernet_mac.c:604
    ASSERT( IS_STATE(cfg->excessive_defer) );    
200030ca:	687b      	ldr	r3, [r7, #4]
200030cc:	7e5b      	ldrb	r3, [r3, #25]
200030ce:	2b01      	cmp	r3, #1
200030d0:	d004      	beq.n	200030dc <config_mac_hw+0xdc>
E:\Github_Repos\SF2_Eth_FFT\Softconsole\FFT_Accelerator\Debug/../firmware/drivers/mss_ethernet_mac/mss_ethernet_mac.c:604 (discriminator 1)
200030d2:	687b      	ldr	r3, [r7, #4]
200030d4:	7e5b      	ldrb	r3, [r3, #25]
200030d6:	2b00      	cmp	r3, #0
200030d8:	d000      	beq.n	200030dc <config_mac_hw+0xdc>
E:\Github_Repos\SF2_Eth_FFT\Softconsole\FFT_Accelerator\Debug/../firmware/drivers/mss_ethernet_mac/mss_ethernet_mac.c:604 (discriminator 2)
200030da:	be00      	bkpt	0x0000
E:\Github_Repos\SF2_Eth_FFT\Softconsole\FFT_Accelerator\Debug/../firmware/drivers/mss_ethernet_mac/mss_ethernet_mac.c:605
    ASSERT( IS_STATE(cfg->nobackoff) );         
200030dc:	687b      	ldr	r3, [r7, #4]
200030de:	7e9b      	ldrb	r3, [r3, #26]
200030e0:	2b01      	cmp	r3, #1
200030e2:	d004      	beq.n	200030ee <config_mac_hw+0xee>
E:\Github_Repos\SF2_Eth_FFT\Softconsole\FFT_Accelerator\Debug/../firmware/drivers/mss_ethernet_mac/mss_ethernet_mac.c:605 (discriminator 1)
200030e4:	687b      	ldr	r3, [r7, #4]
200030e6:	7e9b      	ldrb	r3, [r3, #26]
200030e8:	2b00      	cmp	r3, #0
200030ea:	d000      	beq.n	200030ee <config_mac_hw+0xee>
E:\Github_Repos\SF2_Eth_FFT\Softconsole\FFT_Accelerator\Debug/../firmware/drivers/mss_ethernet_mac/mss_ethernet_mac.c:605 (discriminator 2)
200030ec:	be00      	bkpt	0x0000
E:\Github_Repos\SF2_Eth_FFT\Softconsole\FFT_Accelerator\Debug/../firmware/drivers/mss_ethernet_mac/mss_ethernet_mac.c:606
    ASSERT( IS_STATE(cfg->backpres_nobackoff) );
200030ee:	687b      	ldr	r3, [r7, #4]
200030f0:	7edb      	ldrb	r3, [r3, #27]
200030f2:	2b01      	cmp	r3, #1
200030f4:	d004      	beq.n	20003100 <config_mac_hw+0x100>
E:\Github_Repos\SF2_Eth_FFT\Softconsole\FFT_Accelerator\Debug/../firmware/drivers/mss_ethernet_mac/mss_ethernet_mac.c:606 (discriminator 1)
200030f6:	687b      	ldr	r3, [r7, #4]
200030f8:	7edb      	ldrb	r3, [r3, #27]
200030fa:	2b00      	cmp	r3, #0
200030fc:	d000      	beq.n	20003100 <config_mac_hw+0x100>
E:\Github_Repos\SF2_Eth_FFT\Softconsole\FFT_Accelerator\Debug/../firmware/drivers/mss_ethernet_mac/mss_ethernet_mac.c:606 (discriminator 2)
200030fe:	be00      	bkpt	0x0000
E:\Github_Repos\SF2_Eth_FFT\Softconsole\FFT_Accelerator\Debug/../firmware/drivers/mss_ethernet_mac/mss_ethernet_mac.c:607
    ASSERT( IS_STATE(cfg->ABEB_enable) );        
20003100:	687b      	ldr	r3, [r7, #4]
20003102:	7f1b      	ldrb	r3, [r3, #28]
20003104:	2b01      	cmp	r3, #1
20003106:	d004      	beq.n	20003112 <config_mac_hw+0x112>
E:\Github_Repos\SF2_Eth_FFT\Softconsole\FFT_Accelerator\Debug/../firmware/drivers/mss_ethernet_mac/mss_ethernet_mac.c:607 (discriminator 1)
20003108:	687b      	ldr	r3, [r7, #4]
2000310a:	7f1b      	ldrb	r3, [r3, #28]
2000310c:	2b00      	cmp	r3, #0
2000310e:	d000      	beq.n	20003112 <config_mac_hw+0x112>
E:\Github_Repos\SF2_Eth_FFT\Softconsole\FFT_Accelerator\Debug/../firmware/drivers/mss_ethernet_mac/mss_ethernet_mac.c:607 (discriminator 2)
20003110:	be00      	bkpt	0x0000
E:\Github_Repos\SF2_Eth_FFT\Softconsole\FFT_Accelerator\Debug/../firmware/drivers/mss_ethernet_mac/mss_ethernet_mac.c:608
    ASSERT( MSS_MAC_ABEBTRUNC_MAXVAL >= cfg->ABEB_truncvalue );    
20003112:	687b      	ldr	r3, [r7, #4]
20003114:	7f5b      	ldrb	r3, [r3, #29]
20003116:	2b0f      	cmp	r3, #15
20003118:	d900      	bls.n	2000311c <config_mac_hw+0x11c>
E:\Github_Repos\SF2_Eth_FFT\Softconsole\FFT_Accelerator\Debug/../firmware/drivers/mss_ethernet_mac/mss_ethernet_mac.c:608 (discriminator 1)
2000311a:	be00      	bkpt	0x0000
E:\Github_Repos\SF2_Eth_FFT\Softconsole\FFT_Accelerator\Debug/../firmware/drivers/mss_ethernet_mac/mss_ethernet_mac.c:609
    ASSERT( MSS_MAC_BY28_PHY_CLK >= cfg->phyclk );            
2000311c:	687b      	ldr	r3, [r7, #4]
2000311e:	7f9b      	ldrb	r3, [r3, #30]
20003120:	2b07      	cmp	r3, #7
20003122:	d900      	bls.n	20003126 <config_mac_hw+0x126>
E:\Github_Repos\SF2_Eth_FFT\Softconsole\FFT_Accelerator\Debug/../firmware/drivers/mss_ethernet_mac/mss_ethernet_mac.c:609 (discriminator 1)
20003124:	be00      	bkpt	0x0000
E:\Github_Repos\SF2_Eth_FFT\Softconsole\FFT_Accelerator\Debug/../firmware/drivers/mss_ethernet_mac/mss_ethernet_mac.c:610
    ASSERT( IS_STATE(cfg->supress_preamble) );   
20003126:	687b      	ldr	r3, [r7, #4]
20003128:	7fdb      	ldrb	r3, [r3, #31]
2000312a:	2b01      	cmp	r3, #1
2000312c:	d004      	beq.n	20003138 <config_mac_hw+0x138>
E:\Github_Repos\SF2_Eth_FFT\Softconsole\FFT_Accelerator\Debug/../firmware/drivers/mss_ethernet_mac/mss_ethernet_mac.c:610 (discriminator 1)
2000312e:	687b      	ldr	r3, [r7, #4]
20003130:	7fdb      	ldrb	r3, [r3, #31]
20003132:	2b00      	cmp	r3, #0
20003134:	d000      	beq.n	20003138 <config_mac_hw+0x138>
E:\Github_Repos\SF2_Eth_FFT\Softconsole\FFT_Accelerator\Debug/../firmware/drivers/mss_ethernet_mac/mss_ethernet_mac.c:610 (discriminator 2)
20003136:	be00      	bkpt	0x0000
E:\Github_Repos\SF2_Eth_FFT\Softconsole\FFT_Accelerator\Debug/../firmware/drivers/mss_ethernet_mac/mss_ethernet_mac.c:611
    ASSERT( MSS_MAC_MAXFRAMELEN_MAXVAL >= cfg->max_frame_length );   
20003138:	687b      	ldr	r3, [r7, #4]
2000313a:	8c1b      	ldrh	r3, [r3, #32]
2000313c:	f5b3 6fc0 	cmp.w	r3, #1536	; 0x600
20003140:	d900      	bls.n	20003144 <config_mac_hw+0x144>
E:\Github_Repos\SF2_Eth_FFT\Softconsole\FFT_Accelerator\Debug/../firmware/drivers/mss_ethernet_mac/mss_ethernet_mac.c:611 (discriminator 1)
20003142:	be00      	bkpt	0x0000
E:\Github_Repos\SF2_Eth_FFT\Softconsole\FFT_Accelerator\Debug/../firmware/drivers/mss_ethernet_mac/mss_ethernet_mac.c:612
    ASSERT( MSS_MAC_SLOTTIME_MAXVAL >= cfg->slottime );
20003144:	687b      	ldr	r3, [r7, #4]
20003146:	8c9b      	ldrh	r3, [r3, #36]	; 0x24
20003148:	f5b3 6f80 	cmp.w	r3, #1024	; 0x400
2000314c:	d300      	bcc.n	20003150 <config_mac_hw+0x150>
E:\Github_Repos\SF2_Eth_FFT\Softconsole\FFT_Accelerator\Debug/../firmware/drivers/mss_ethernet_mac/mss_ethernet_mac.c:612 (discriminator 1)
2000314e:	be00      	bkpt	0x0000
E:\Github_Repos\SF2_Eth_FFT\Softconsole\FFT_Accelerator\Debug/../firmware/drivers/mss_ethernet_mac/mss_ethernet_mac.c:618
    
    /*--------------------------------------------------------------------------
     * Configure MAC FIFOs error detection and correction (EDAC)
     */
    /* Tx FIFO EDAC configuration */
    if(MSS_MAC_ENABLE == cfg->tx_edc_enable)
20003150:	687b      	ldr	r3, [r7, #4]
20003152:	7adb      	ldrb	r3, [r3, #11]
20003154:	2b01      	cmp	r3, #1
20003156:	d104      	bne.n	20003162 <config_mac_hw+0x162>
E:\Github_Repos\SF2_Eth_FFT\Softconsole\FFT_Accelerator\Debug/../firmware/drivers/mss_ethernet_mac/mss_ethernet_mac.c:620
    {
        set_bit_reg32(&SYSREG->EDAC_CR, MAC_EDAC_TX_EN);
20003158:	2103      	movs	r1, #3
2000315a:	4877      	ldr	r0, [pc, #476]	; (20003338 <config_mac_hw+0x338>)
2000315c:	f7ff fd50 	bl	20002c00 <set_bit_reg32>
20003160:	e003      	b.n	2000316a <config_mac_hw+0x16a>
E:\Github_Repos\SF2_Eth_FFT\Softconsole\FFT_Accelerator\Debug/../firmware/drivers/mss_ethernet_mac/mss_ethernet_mac.c:624
    }
    else
    {
        clear_bit_reg32(&SYSREG->EDAC_CR, MAC_EDAC_TX_EN);
20003162:	2103      	movs	r1, #3
20003164:	4874      	ldr	r0, [pc, #464]	; (20003338 <config_mac_hw+0x338>)
20003166:	f7ff fd68 	bl	20002c3a <clear_bit_reg32>
E:\Github_Repos\SF2_Eth_FFT\Softconsole\FFT_Accelerator\Debug/../firmware/drivers/mss_ethernet_mac/mss_ethernet_mac.c:627
    }
    /* Rx FIFO EDAC configuration */
    if(MSS_MAC_ENABLE == cfg->rx_edc_enable)
2000316a:	687b      	ldr	r3, [r7, #4]
2000316c:	7b1b      	ldrb	r3, [r3, #12]
2000316e:	2b01      	cmp	r3, #1
20003170:	d104      	bne.n	2000317c <config_mac_hw+0x17c>
E:\Github_Repos\SF2_Eth_FFT\Softconsole\FFT_Accelerator\Debug/../firmware/drivers/mss_ethernet_mac/mss_ethernet_mac.c:629
    {
        set_bit_reg32(&SYSREG->EDAC_CR,MAC_EDAC_RX_EN);
20003172:	2104      	movs	r1, #4
20003174:	4870      	ldr	r0, [pc, #448]	; (20003338 <config_mac_hw+0x338>)
20003176:	f7ff fd43 	bl	20002c00 <set_bit_reg32>
2000317a:	e003      	b.n	20003184 <config_mac_hw+0x184>
E:\Github_Repos\SF2_Eth_FFT\Softconsole\FFT_Accelerator\Debug/../firmware/drivers/mss_ethernet_mac/mss_ethernet_mac.c:633
    }
    else
    {
        clear_bit_reg32(&SYSREG->EDAC_CR,MAC_EDAC_RX_EN);
2000317c:	2104      	movs	r1, #4
2000317e:	486e      	ldr	r0, [pc, #440]	; (20003338 <config_mac_hw+0x338>)
20003180:	f7ff fd5b 	bl	20002c3a <clear_bit_reg32>
E:\Github_Repos\SF2_Eth_FFT\Softconsole\FFT_Accelerator\Debug/../firmware/drivers/mss_ethernet_mac/mss_ethernet_mac.c:639
    }
    
    /*--------------------------------------------------------------------------
     * Configure PHY related MII MGMT registers
     */
    tempreg = (uint32_t)cfg->phyclk & MII_CLOCK_SELECT_MASK;
20003184:	687b      	ldr	r3, [r7, #4]
20003186:	7f9b      	ldrb	r3, [r3, #30]
20003188:	f003 0307 	and.w	r3, r3, #7
2000318c:	60fb      	str	r3, [r7, #12]
E:\Github_Repos\SF2_Eth_FFT\Softconsole\FFT_Accelerator\Debug/../firmware/drivers/mss_ethernet_mac/mss_ethernet_mac.c:640
    if(MSS_MAC_ENABLE == cfg->supress_preamble)
2000318e:	687b      	ldr	r3, [r7, #4]
20003190:	7fdb      	ldrb	r3, [r3, #31]
20003192:	2b01      	cmp	r3, #1
20003194:	d103      	bne.n	2000319e <config_mac_hw+0x19e>
E:\Github_Repos\SF2_Eth_FFT\Softconsole\FFT_Accelerator\Debug/../firmware/drivers/mss_ethernet_mac/mss_ethernet_mac.c:642
    {
        tempreg |= MII_PREAM_SUPRESS_MASK;
20003196:	68fb      	ldr	r3, [r7, #12]
20003198:	f043 0310 	orr.w	r3, r3, #16
2000319c:	60fb      	str	r3, [r7, #12]
E:\Github_Repos\SF2_Eth_FFT\Softconsole\FFT_Accelerator\Debug/../firmware/drivers/mss_ethernet_mac/mss_ethernet_mac.c:644
    }
    MAC->MII_CONFIG = tempreg;
2000319e:	4a67      	ldr	r2, [pc, #412]	; (2000333c <config_mac_hw+0x33c>)
200031a0:	68fb      	ldr	r3, [r7, #12]
200031a2:	6213      	str	r3, [r2, #32]
E:\Github_Repos\SF2_Eth_FFT\Softconsole\FFT_Accelerator\Debug/../firmware/drivers/mss_ethernet_mac/mss_ethernet_mac.c:651
    /*--------------------------------------------------------------------------
     * Clear all reset bits
     */              
    /* Clear soft reset for MCXMAC, Tx function, Rx function, Tx MAC control and
     * Rx MAC control. */
    MAC->CFG1 &= ~(CFG1_SOFT_RST_MASK | CFG1_TXCTL_RST_MASK |
200031a4:	4b65      	ldr	r3, [pc, #404]	; (2000333c <config_mac_hw+0x33c>)
200031a6:	681b      	ldr	r3, [r3, #0]
200031a8:	4a64      	ldr	r2, [pc, #400]	; (2000333c <config_mac_hw+0x33c>)
200031aa:	f023 4300 	bic.w	r3, r3, #2147483648	; 0x80000000
200031ae:	f423 2370 	bic.w	r3, r3, #983040	; 0xf0000
200031b2:	6013      	str	r3, [r2, #0]
E:\Github_Repos\SF2_Eth_FFT\Softconsole\FFT_Accelerator\Debug/../firmware/drivers/mss_ethernet_mac/mss_ethernet_mac.c:656
                   CFG1_RXCTL_RST_MASK | CFG1_CFG1_TX_RST_MASK |
                   CFG1_CFG1_RX_RST_MASK);
    
    /* Clear MCXMAC interface reset. */
    clear_bit_reg32(&MAC->INTERFACE_CTRL, MII_INTF_RESET);
200031b4:	211f      	movs	r1, #31
200031b6:	4862      	ldr	r0, [pc, #392]	; (20003340 <config_mac_hw+0x340>)
200031b8:	f7ff fd3f 	bl	20002c3a <clear_bit_reg32>
E:\Github_Repos\SF2_Eth_FFT\Softconsole\FFT_Accelerator\Debug/../firmware/drivers/mss_ethernet_mac/mss_ethernet_mac.c:659
    
    /* Clear FIFO resets. */
    MAC->FIFO_CFG0 &= ~(FIFO_CFG0_WMM_RST_MASK | FIFO_CFG0_RSYS_RST_MASK |
200031bc:	4b5f      	ldr	r3, [pc, #380]	; (2000333c <config_mac_hw+0x33c>)
200031be:	6c9b      	ldr	r3, [r3, #72]	; 0x48
200031c0:	4a5e      	ldr	r2, [pc, #376]	; (2000333c <config_mac_hw+0x33c>)
200031c2:	f023 031f 	bic.w	r3, r3, #31
200031c6:	6493      	str	r3, [r2, #72]	; 0x48
E:\Github_Repos\SF2_Eth_FFT\Softconsole\FFT_Accelerator\Debug/../firmware/drivers/mss_ethernet_mac/mss_ethernet_mac.c:666
                        FIFO_CFG0_TFAB_RST_MASK);

    /*--------------------------------------------------------------------------
     * configure loppback and flow control enables.
     */
    if(MSS_MAC_ENABLE == cfg->loopback)
200031c8:	687b      	ldr	r3, [r7, #4]
200031ca:	7cdb      	ldrb	r3, [r3, #19]
200031cc:	2b01      	cmp	r3, #1
200031ce:	d103      	bne.n	200031d8 <config_mac_hw+0x1d8>
E:\Github_Repos\SF2_Eth_FFT\Softconsole\FFT_Accelerator\Debug/../firmware/drivers/mss_ethernet_mac/mss_ethernet_mac.c:668
    {
        tempreg = CFG1_LOOPBACK_MASK;
200031d0:	f44f 7380 	mov.w	r3, #256	; 0x100
200031d4:	60fb      	str	r3, [r7, #12]
200031d6:	e001      	b.n	200031dc <config_mac_hw+0x1dc>
E:\Github_Repos\SF2_Eth_FFT\Softconsole\FFT_Accelerator\Debug/../firmware/drivers/mss_ethernet_mac/mss_ethernet_mac.c:672
    }
    else
    {
        tempreg = 0u;
200031d8:	2300      	movs	r3, #0
200031da:	60fb      	str	r3, [r7, #12]
E:\Github_Repos\SF2_Eth_FFT\Softconsole\FFT_Accelerator\Debug/../firmware/drivers/mss_ethernet_mac/mss_ethernet_mac.c:675
    }
    
    if(MSS_MAC_ENABLE == cfg->rx_flow_ctrl)
200031dc:	687b      	ldr	r3, [r7, #4]
200031de:	7d1b      	ldrb	r3, [r3, #20]
200031e0:	2b01      	cmp	r3, #1
200031e2:	d103      	bne.n	200031ec <config_mac_hw+0x1ec>
E:\Github_Repos\SF2_Eth_FFT\Softconsole\FFT_Accelerator\Debug/../firmware/drivers/mss_ethernet_mac/mss_ethernet_mac.c:677
    {
        tempreg |= CFG1_RX_FCTL_MASK;
200031e4:	68fb      	ldr	r3, [r7, #12]
200031e6:	f043 0320 	orr.w	r3, r3, #32
200031ea:	60fb      	str	r3, [r7, #12]
E:\Github_Repos\SF2_Eth_FFT\Softconsole\FFT_Accelerator\Debug/../firmware/drivers/mss_ethernet_mac/mss_ethernet_mac.c:680
    }
    
    if(MSS_MAC_ENABLE == cfg->tx_flow_ctrl)
200031ec:	687b      	ldr	r3, [r7, #4]
200031ee:	7d5b      	ldrb	r3, [r3, #21]
200031f0:	2b01      	cmp	r3, #1
200031f2:	d103      	bne.n	200031fc <config_mac_hw+0x1fc>
E:\Github_Repos\SF2_Eth_FFT\Softconsole\FFT_Accelerator\Debug/../firmware/drivers/mss_ethernet_mac/mss_ethernet_mac.c:682
    {
        tempreg |= CFG1_TX_FCTL_MASK;
200031f4:	68fb      	ldr	r3, [r7, #12]
200031f6:	f043 0310 	orr.w	r3, r3, #16
200031fa:	60fb      	str	r3, [r7, #12]
E:\Github_Repos\SF2_Eth_FFT\Softconsole\FFT_Accelerator\Debug/../firmware/drivers/mss_ethernet_mac/mss_ethernet_mac.c:684
    }
    MAC->CFG1 = tempreg;
200031fc:	4a4f      	ldr	r2, [pc, #316]	; (2000333c <config_mac_hw+0x33c>)
200031fe:	68fb      	ldr	r3, [r7, #12]
20003200:	6013      	str	r3, [r2, #0]
E:\Github_Repos\SF2_Eth_FFT\Softconsole\FFT_Accelerator\Debug/../firmware/drivers/mss_ethernet_mac/mss_ethernet_mac.c:689

    /*--------------------------------------------------------------------------
     *
     */
    tempreg = CFG2_FDX_MASK;
20003202:	2301      	movs	r3, #1
20003204:	60fb      	str	r3, [r7, #12]
E:\Github_Repos\SF2_Eth_FFT\Softconsole\FFT_Accelerator\Debug/../firmware/drivers/mss_ethernet_mac/mss_ethernet_mac.c:691
    
    if(MSS_MAC_ENABLE == cfg->append_CRC)
20003206:	687b      	ldr	r3, [r7, #4]
20003208:	7c5b      	ldrb	r3, [r3, #17]
2000320a:	2b01      	cmp	r3, #1
2000320c:	d103      	bne.n	20003216 <config_mac_hw+0x216>
E:\Github_Repos\SF2_Eth_FFT\Softconsole\FFT_Accelerator\Debug/../firmware/drivers/mss_ethernet_mac/mss_ethernet_mac.c:693
    {
        tempreg |= CFG2_CRC_EN_MASK;
2000320e:	68fb      	ldr	r3, [r7, #12]
20003210:	f043 0302 	orr.w	r3, r3, #2
20003214:	60fb      	str	r3, [r7, #12]
E:\Github_Repos\SF2_Eth_FFT\Softconsole\FFT_Accelerator\Debug/../firmware/drivers/mss_ethernet_mac/mss_ethernet_mac.c:696
    }
                                   
    if(MSS_MAC_ENABLE == cfg->pad_n_CRC)
20003216:	687b      	ldr	r3, [r7, #4]
20003218:	7c1b      	ldrb	r3, [r3, #16]
2000321a:	2b01      	cmp	r3, #1
2000321c:	d103      	bne.n	20003226 <config_mac_hw+0x226>
E:\Github_Repos\SF2_Eth_FFT\Softconsole\FFT_Accelerator\Debug/../firmware/drivers/mss_ethernet_mac/mss_ethernet_mac.c:698
    {
        tempreg |= CFG2_PAD_CRC_EN_MASK;
2000321e:	68fb      	ldr	r3, [r7, #12]
20003220:	f043 0304 	orr.w	r3, r3, #4
20003224:	60fb      	str	r3, [r7, #12]
E:\Github_Repos\SF2_Eth_FFT\Softconsole\FFT_Accelerator\Debug/../firmware/drivers/mss_ethernet_mac/mss_ethernet_mac.c:701
    }
                                  
    if(MSS_MAC_ENABLE == cfg->length_field_check)
20003226:	687b      	ldr	r3, [r7, #4]
20003228:	7bdb      	ldrb	r3, [r3, #15]
2000322a:	2b01      	cmp	r3, #1
2000322c:	d103      	bne.n	20003236 <config_mac_hw+0x236>
E:\Github_Repos\SF2_Eth_FFT\Softconsole\FFT_Accelerator\Debug/../firmware/drivers/mss_ethernet_mac/mss_ethernet_mac.c:703
    {
        tempreg |= CFG2_LEN_CHECK_MASK;
2000322e:	68fb      	ldr	r3, [r7, #12]
20003230:	f043 0310 	orr.w	r3, r3, #16
20003234:	60fb      	str	r3, [r7, #12]
E:\Github_Repos\SF2_Eth_FFT\Softconsole\FFT_Accelerator\Debug/../firmware/drivers/mss_ethernet_mac/mss_ethernet_mac.c:706
    }
                                           
    if(MSS_MAC_ENABLE == cfg->hugeframe_enable)
20003236:	687b      	ldr	r3, [r7, #4]
20003238:	7b9b      	ldrb	r3, [r3, #14]
2000323a:	2b01      	cmp	r3, #1
2000323c:	d103      	bne.n	20003246 <config_mac_hw+0x246>
E:\Github_Repos\SF2_Eth_FFT\Softconsole\FFT_Accelerator\Debug/../firmware/drivers/mss_ethernet_mac/mss_ethernet_mac.c:708
    {
        tempreg |= CFG2_HUGE_FRAME_EN_MASK;
2000323e:	68fb      	ldr	r3, [r7, #12]
20003240:	f043 0320 	orr.w	r3, r3, #32
20003244:	60fb      	str	r3, [r7, #12]
E:\Github_Repos\SF2_Eth_FFT\Softconsole\FFT_Accelerator\Debug/../firmware/drivers/mss_ethernet_mac/mss_ethernet_mac.c:716
#if ((MSS_MAC_PHY_INTERFACE == MII) ||(MSS_MAC_PHY_INTERFACE == RMII))
    /* MII and RMII use nibble mode interface. */
    tempreg |= CFG2_NIBBLE_MASK;
#else
    /* TBI and GMII use byte interface. */
    tempreg |= CFG2_BYTE_MASK;
20003246:	68fb      	ldr	r3, [r7, #12]
20003248:	f443 7300 	orr.w	r3, r3, #512	; 0x200
2000324c:	60fb      	str	r3, [r7, #12]
E:\Github_Repos\SF2_Eth_FFT\Softconsole\FFT_Accelerator\Debug/../firmware/drivers/mss_ethernet_mac/mss_ethernet_mac.c:719
#endif
  
    tempreg |= (((uint32_t)cfg->preamble_length ) << CFG2_PREAM_LEN);
2000324e:	687b      	ldr	r3, [r7, #4]
20003250:	7b5b      	ldrb	r3, [r3, #13]
20003252:	031b      	lsls	r3, r3, #12
20003254:	68fa      	ldr	r2, [r7, #12]
20003256:	4313      	orrs	r3, r2
20003258:	60fb      	str	r3, [r7, #12]
E:\Github_Repos\SF2_Eth_FFT\Softconsole\FFT_Accelerator\Debug/../firmware/drivers/mss_ethernet_mac/mss_ethernet_mac.c:720
    MAC->CFG2 = tempreg;
2000325a:	4a38      	ldr	r2, [pc, #224]	; (2000333c <config_mac_hw+0x33c>)
2000325c:	68fb      	ldr	r3, [r7, #12]
2000325e:	6053      	str	r3, [r2, #4]
E:\Github_Repos\SF2_Eth_FFT\Softconsole\FFT_Accelerator\Debug/../firmware/drivers/mss_ethernet_mac/mss_ethernet_mac.c:725
    
    /*--------------------------------------------------------------------------
     *
     */
    tempreg = cfg->btb_IFG;
20003260:	687b      	ldr	r3, [r7, #4]
20003262:	7ddb      	ldrb	r3, [r3, #23]
20003264:	60fb      	str	r3, [r7, #12]
E:\Github_Repos\SF2_Eth_FFT\Softconsole\FFT_Accelerator\Debug/../firmware/drivers/mss_ethernet_mac/mss_ethernet_mac.c:726
    tempreg |= ((uint32_t)cfg->min_IFG << IFG_MINIFGENF);
20003266:	687b      	ldr	r3, [r7, #4]
20003268:	7d9b      	ldrb	r3, [r3, #22]
2000326a:	021b      	lsls	r3, r3, #8
2000326c:	68fa      	ldr	r2, [r7, #12]
2000326e:	4313      	orrs	r3, r2
20003270:	60fb      	str	r3, [r7, #12]
E:\Github_Repos\SF2_Eth_FFT\Softconsole\FFT_Accelerator\Debug/../firmware/drivers/mss_ethernet_mac/mss_ethernet_mac.c:727
    tempreg |= ((uint32_t)cfg->non_btb_IFG << IFG_NONBTBIPG);
20003272:	687b      	ldr	r3, [r7, #4]
20003274:	8c5b      	ldrh	r3, [r3, #34]	; 0x22
20003276:	041b      	lsls	r3, r3, #16
20003278:	68fa      	ldr	r2, [r7, #12]
2000327a:	4313      	orrs	r3, r2
2000327c:	60fb      	str	r3, [r7, #12]
E:\Github_Repos\SF2_Eth_FFT\Softconsole\FFT_Accelerator\Debug/../firmware/drivers/mss_ethernet_mac/mss_ethernet_mac.c:728
    MAC->IFG = tempreg;
2000327e:	4a2f      	ldr	r2, [pc, #188]	; (2000333c <config_mac_hw+0x33c>)
20003280:	68fb      	ldr	r3, [r7, #12]
20003282:	6093      	str	r3, [r2, #8]
E:\Github_Repos\SF2_Eth_FFT\Softconsole\FFT_Accelerator\Debug/../firmware/drivers/mss_ethernet_mac/mss_ethernet_mac.c:733
    
    /*--------------------------------------------------------------------------
     *
     */
    tempreg = (uint32_t)cfg->slottime & HALF_DUPLEX_SLOTTIME_MASK;
20003284:	687b      	ldr	r3, [r7, #4]
20003286:	8c9b      	ldrh	r3, [r3, #36]	; 0x24
20003288:	461a      	mov	r2, r3
2000328a:	f240 23ff 	movw	r3, #767	; 0x2ff
2000328e:	4013      	ands	r3, r2
20003290:	60fb      	str	r3, [r7, #12]
E:\Github_Repos\SF2_Eth_FFT\Softconsole\FFT_Accelerator\Debug/../firmware/drivers/mss_ethernet_mac/mss_ethernet_mac.c:735
    
    tempreg |= (uint32_t)cfg->max_retx_tries << HALF_DUPLEX_RETX_MAX_OFFSET;
20003292:	687b      	ldr	r3, [r7, #4]
20003294:	7e1b      	ldrb	r3, [r3, #24]
20003296:	031b      	lsls	r3, r3, #12
20003298:	68fa      	ldr	r2, [r7, #12]
2000329a:	4313      	orrs	r3, r2
2000329c:	60fb      	str	r3, [r7, #12]
E:\Github_Repos\SF2_Eth_FFT\Softconsole\FFT_Accelerator\Debug/../firmware/drivers/mss_ethernet_mac/mss_ethernet_mac.c:737
    
    if(MSS_MAC_ENABLE == cfg->excessive_defer)
2000329e:	687b      	ldr	r3, [r7, #4]
200032a0:	7e5b      	ldrb	r3, [r3, #25]
200032a2:	2b01      	cmp	r3, #1
200032a4:	d103      	bne.n	200032ae <config_mac_hw+0x2ae>
E:\Github_Repos\SF2_Eth_FFT\Softconsole\FFT_Accelerator\Debug/../firmware/drivers/mss_ethernet_mac/mss_ethernet_mac.c:739
    {
        tempreg |= HALF_DUPLEX_EXCS_DEFER_MASK;
200032a6:	68fb      	ldr	r3, [r7, #12]
200032a8:	f443 3380 	orr.w	r3, r3, #65536	; 0x10000
200032ac:	60fb      	str	r3, [r7, #12]
E:\Github_Repos\SF2_Eth_FFT\Softconsole\FFT_Accelerator\Debug/../firmware/drivers/mss_ethernet_mac/mss_ethernet_mac.c:742
    }
                                       
    if(MSS_MAC_ENABLE == cfg->nobackoff)
200032ae:	687b      	ldr	r3, [r7, #4]
200032b0:	7e9b      	ldrb	r3, [r3, #26]
200032b2:	2b01      	cmp	r3, #1
200032b4:	d103      	bne.n	200032be <config_mac_hw+0x2be>
E:\Github_Repos\SF2_Eth_FFT\Softconsole\FFT_Accelerator\Debug/../firmware/drivers/mss_ethernet_mac/mss_ethernet_mac.c:744
    {
        tempreg |= HALF_DUPLEX_NO_BACKOFF_MASK;
200032b6:	68fb      	ldr	r3, [r7, #12]
200032b8:	f443 3300 	orr.w	r3, r3, #131072	; 0x20000
200032bc:	60fb      	str	r3, [r7, #12]
E:\Github_Repos\SF2_Eth_FFT\Softconsole\FFT_Accelerator\Debug/../firmware/drivers/mss_ethernet_mac/mss_ethernet_mac.c:747
    }
                                       
    if(MSS_MAC_ENABLE == cfg->backpres_nobackoff)
200032be:	687b      	ldr	r3, [r7, #4]
200032c0:	7edb      	ldrb	r3, [r3, #27]
200032c2:	2b01      	cmp	r3, #1
200032c4:	d103      	bne.n	200032ce <config_mac_hw+0x2ce>
E:\Github_Repos\SF2_Eth_FFT\Softconsole\FFT_Accelerator\Debug/../firmware/drivers/mss_ethernet_mac/mss_ethernet_mac.c:749
    {
        tempreg |= HALF_DUPLEX_BACKPRES_NOBACKOFF_MASK;
200032c6:	68fb      	ldr	r3, [r7, #12]
200032c8:	f443 2380 	orr.w	r3, r3, #262144	; 0x40000
200032cc:	60fb      	str	r3, [r7, #12]
E:\Github_Repos\SF2_Eth_FFT\Softconsole\FFT_Accelerator\Debug/../firmware/drivers/mss_ethernet_mac/mss_ethernet_mac.c:752
    }
                                       
    if(MSS_MAC_ENABLE == cfg->ABEB_enable)
200032ce:	687b      	ldr	r3, [r7, #4]
200032d0:	7f1b      	ldrb	r3, [r3, #28]
200032d2:	2b01      	cmp	r3, #1
200032d4:	d103      	bne.n	200032de <config_mac_hw+0x2de>
E:\Github_Repos\SF2_Eth_FFT\Softconsole\FFT_Accelerator\Debug/../firmware/drivers/mss_ethernet_mac/mss_ethernet_mac.c:754
    {
        tempreg |= HALF_DUPLEX_ABEB_ENABLE_MASK;
200032d6:	68fb      	ldr	r3, [r7, #12]
200032d8:	f443 2300 	orr.w	r3, r3, #524288	; 0x80000
200032dc:	60fb      	str	r3, [r7, #12]
E:\Github_Repos\SF2_Eth_FFT\Softconsole\FFT_Accelerator\Debug/../firmware/drivers/mss_ethernet_mac/mss_ethernet_mac.c:757
    }
                                       
    tempreg |= (uint32_t)cfg->ABEB_truncvalue << HALF_DUPLEX_ABEB_TUNC_OFFSET;
200032de:	687b      	ldr	r3, [r7, #4]
200032e0:	7f5b      	ldrb	r3, [r3, #29]
200032e2:	051b      	lsls	r3, r3, #20
200032e4:	68fa      	ldr	r2, [r7, #12]
200032e6:	4313      	orrs	r3, r2
200032e8:	60fb      	str	r3, [r7, #12]
E:\Github_Repos\SF2_Eth_FFT\Softconsole\FFT_Accelerator\Debug/../firmware/drivers/mss_ethernet_mac/mss_ethernet_mac.c:758
    MAC->HALF_DUPLEX = tempreg;
200032ea:	4a14      	ldr	r2, [pc, #80]	; (2000333c <config_mac_hw+0x33c>)
200032ec:	68fb      	ldr	r3, [r7, #12]
200032ee:	60d3      	str	r3, [r2, #12]
E:\Github_Repos\SF2_Eth_FFT\Softconsole\FFT_Accelerator\Debug/../firmware/drivers/mss_ethernet_mac/mss_ethernet_mac.c:760

    MAC->MAX_FRAME_LENGTH = (uint32_t)cfg->max_frame_length;
200032f0:	687b      	ldr	r3, [r7, #4]
200032f2:	8c1a      	ldrh	r2, [r3, #32]
200032f4:	4b11      	ldr	r3, [pc, #68]	; (2000333c <config_mac_hw+0x33c>)
200032f6:	611a      	str	r2, [r3, #16]
E:\Github_Repos\SF2_Eth_FFT\Softconsole\FFT_Accelerator\Debug/../firmware/drivers/mss_ethernet_mac/mss_ethernet_mac.c:765

    /*--------------------------------------------------------------------------
     * Configure FIFOs
     */
    MAC->FIFO_CFG0 = ( FIFO_CFG0_WMM_ENABLE  | FIFO_CFG0_RSYS_ENABLE |
200032f8:	4b10      	ldr	r3, [pc, #64]	; (2000333c <config_mac_hw+0x33c>)
200032fa:	f44f 52f8 	mov.w	r2, #7936	; 0x1f00
200032fe:	649a      	str	r2, [r3, #72]	; 0x48
E:\Github_Repos\SF2_Eth_FFT\Softconsole\FFT_Accelerator\Debug/../firmware/drivers/mss_ethernet_mac/mss_ethernet_mac.c:769
                       FIFO_CFG0_RFAB_ENABLE | FIFO_CFG0_TSYS_ENABLE |
                       FIFO_CFG0_TFAB_ENABLE );
    /* RX FIFO size : 8KB  */        
    MAC->FIFO_CFG1 = FIFO_CFG1_DEFVAL;
20003300:	4b0e      	ldr	r3, [pc, #56]	; (2000333c <config_mac_hw+0x33c>)
20003302:	4a10      	ldr	r2, [pc, #64]	; (20003344 <config_mac_hw+0x344>)
20003304:	64da      	str	r2, [r3, #76]	; 0x4c
E:\Github_Repos\SF2_Eth_FFT\Softconsole\FFT_Accelerator\Debug/../firmware/drivers/mss_ethernet_mac/mss_ethernet_mac.c:771
    /* Rx FIFO watermark */
    MAC->FIFO_CFG2 = FIFO_CFG2_DEFVAL;
20003306:	4b0d      	ldr	r3, [pc, #52]	; (2000333c <config_mac_hw+0x33c>)
20003308:	4a0f      	ldr	r2, [pc, #60]	; (20003348 <config_mac_hw+0x348>)
2000330a:	651a      	str	r2, [r3, #80]	; 0x50
E:\Github_Repos\SF2_Eth_FFT\Softconsole\FFT_Accelerator\Debug/../firmware/drivers/mss_ethernet_mac/mss_ethernet_mac.c:773
    /* Tx FIFO watermark: 4KB Tx FIFO */
    MAC->FIFO_CFG3 = FIFO_CFG3_DEFVAL;
2000330c:	4b0b      	ldr	r3, [pc, #44]	; (2000333c <config_mac_hw+0x33c>)
2000330e:	4a0f      	ldr	r2, [pc, #60]	; (2000334c <config_mac_hw+0x34c>)
20003310:	655a      	str	r2, [r3, #84]	; 0x54
E:\Github_Repos\SF2_Eth_FFT\Softconsole\FFT_Accelerator\Debug/../firmware/drivers/mss_ethernet_mac/mss_ethernet_mac.c:775
    /* Drop junk frames (Frames suffered CRC error or short collision) */
    MAC->FIFO_CFG4 = FIFO_CFG4_DEFVAL;
20003312:	4b0a      	ldr	r3, [pc, #40]	; (2000333c <config_mac_hw+0x33c>)
20003314:	f64f 72ff 	movw	r2, #65535	; 0xffff
20003318:	659a      	str	r2, [r3, #88]	; 0x58
E:\Github_Repos\SF2_Eth_FFT\Softconsole\FFT_Accelerator\Debug/../firmware/drivers/mss_ethernet_mac/mss_ethernet_mac.c:780

#if ((MSS_MAC_PHY_INTERFACE == SGMII) || (MSS_MAC_PHY_INTERFACE == BASEX1000) || \
        (MSS_MAC_PHY_INTERFACE == GMII) || (MSS_MAC_PHY_INTERFACE == RGMII))
    /* Drop frames with CRC, Receive errors and PAUSE frames */
    MAC->FIFO_CFG5 = FIFO_CFG5_DEFVAL_GMII;
2000331a:	4b08      	ldr	r3, [pc, #32]	; (2000333c <config_mac_hw+0x33c>)
2000331c:	4a0c      	ldr	r2, [pc, #48]	; (20003350 <config_mac_hw+0x350>)
2000331e:	65da      	str	r2, [r3, #92]	; 0x5c
E:\Github_Repos\SF2_Eth_FFT\Softconsole\FFT_Accelerator\Debug/../firmware/drivers/mss_ethernet_mac/mss_ethernet_mac.c:804
 * for GMII operations to use an external SGMII PHY.
 */
         
#if ((MSS_MAC_PHY_INTERFACE == SGMII) || (MSS_MAC_PHY_INTERFACE == BASEX1000) || \
        (MSS_MAC_PHY_INTERFACE == GMII) || (MSS_MAC_PHY_INTERFACE == RGMII))
    tempreg = 0x04u;
20003320:	2304      	movs	r3, #4
20003322:	60fb      	str	r3, [r7, #12]
E:\Github_Repos\SF2_Eth_FFT\Softconsole\FFT_Accelerator\Debug/../firmware/drivers/mss_ethernet_mac/mss_ethernet_mac.c:815

#if (MSS_MAC_PHY_INTERFACE == TBI)
    tempreg = 0x02u;
#endif
  
    SYSREG->MAC_CR = tempreg << MAC_CONFIG_INTF;
20003324:	4a0b      	ldr	r2, [pc, #44]	; (20003354 <config_mac_hw+0x354>)
20003326:	68fb      	ldr	r3, [r7, #12]
20003328:	009b      	lsls	r3, r3, #2
2000332a:	f8c2 308c 	str.w	r3, [r2, #140]	; 0x8c
E:\Github_Repos\SF2_Eth_FFT\Softconsole\FFT_Accelerator\Debug/../firmware/drivers/mss_ethernet_mac/mss_ethernet_mac.c:816
}
2000332e:	bf00      	nop
20003330:	3710      	adds	r7, #16
20003332:	46bd      	mov	sp, r7
20003334:	bd80      	pop	{r7, pc}
20003336:	bf00      	nop
20003338:	40038038 	.word	0x40038038
2000333c:	40041000 	.word	0x40041000
20003340:	40041038 	.word	0x40041038
20003344:	0fff0000 	.word	0x0fff0000
20003348:	04000180 	.word	0x04000180
2000334c:	0258ffff 	.word	0x0258ffff
20003350:	000fefe7 	.word	0x000fefe7
20003354:	40038000 	.word	0x40038000

20003358 <MSS_MAC_write_phy_reg>:
MSS_MAC_write_phy_reg():
E:\Github_Repos\SF2_Eth_FFT\Softconsole\FFT_Accelerator\Debug/../firmware/drivers/mss_ethernet_mac/mss_ethernet_mac.c:828
(
    uint8_t phyaddr,
    uint8_t regaddr,
    uint16_t regval
)
{
20003358:	b480      	push	{r7}
2000335a:	b083      	sub	sp, #12
2000335c:	af00      	add	r7, sp, #0
2000335e:	4603      	mov	r3, r0
20003360:	71fb      	strb	r3, [r7, #7]
20003362:	460b      	mov	r3, r1
20003364:	71bb      	strb	r3, [r7, #6]
20003366:	4613      	mov	r3, r2
20003368:	80bb      	strh	r3, [r7, #4]
E:\Github_Repos\SF2_Eth_FFT\Softconsole\FFT_Accelerator\Debug/../firmware/drivers/mss_ethernet_mac/mss_ethernet_mac.c:829
    ASSERT(MSS_MAC_PHYADDR_MAXVAL >= phyaddr); 
2000336a:	79fb      	ldrb	r3, [r7, #7]
2000336c:	2b1f      	cmp	r3, #31
2000336e:	d900      	bls.n	20003372 <MSS_MAC_write_phy_reg+0x1a>
E:\Github_Repos\SF2_Eth_FFT\Softconsole\FFT_Accelerator\Debug/../firmware/drivers/mss_ethernet_mac/mss_ethernet_mac.c:829 (discriminator 1)
20003370:	be00      	bkpt	0x0000
E:\Github_Repos\SF2_Eth_FFT\Softconsole\FFT_Accelerator\Debug/../firmware/drivers/mss_ethernet_mac/mss_ethernet_mac.c:830
    ASSERT(MSS_MAC_PHYREGADDR_MAXVAL >= regaddr);
20003372:	79bb      	ldrb	r3, [r7, #6]
20003374:	2b1f      	cmp	r3, #31
20003376:	d900      	bls.n	2000337a <MSS_MAC_write_phy_reg+0x22>
E:\Github_Repos\SF2_Eth_FFT\Softconsole\FFT_Accelerator\Debug/../firmware/drivers/mss_ethernet_mac/mss_ethernet_mac.c:830 (discriminator 1)
20003378:	be00      	bkpt	0x0000
E:\Github_Repos\SF2_Eth_FFT\Softconsole\FFT_Accelerator\Debug/../firmware/drivers/mss_ethernet_mac/mss_ethernet_mac.c:835
    /* 
     * Write PHY address in MII Mgmt address register.
     * Makes previous register address 0 & invalid.
     */ 
    if((MSS_MAC_PHYADDR_MAXVAL >= phyaddr) && 
2000337a:	79fb      	ldrb	r3, [r7, #7]
2000337c:	2b1f      	cmp	r3, #31
2000337e:	d815      	bhi.n	200033ac <MSS_MAC_write_phy_reg+0x54>
E:\Github_Repos\SF2_Eth_FFT\Softconsole\FFT_Accelerator\Debug/../firmware/drivers/mss_ethernet_mac/mss_ethernet_mac.c:835 (discriminator 1)
20003380:	79bb      	ldrb	r3, [r7, #6]
20003382:	2b1f      	cmp	r3, #31
20003384:	d812      	bhi.n	200033ac <MSS_MAC_write_phy_reg+0x54>
E:\Github_Repos\SF2_Eth_FFT\Softconsole\FFT_Accelerator\Debug/../firmware/drivers/mss_ethernet_mac/mss_ethernet_mac.c:841 (discriminator 1)
       (MSS_MAC_PHYREGADDR_MAXVAL >= regaddr))
    {
        /* Wait for MII Mgmt interface to complete previous operation. */
        do {
            ;
        } while(MAC->MII_INDICATORS & MII_BUSY_INDICATOR_MASK);
20003386:	4b0c      	ldr	r3, [pc, #48]	; (200033b8 <MSS_MAC_write_phy_reg+0x60>)
20003388:	6b5b      	ldr	r3, [r3, #52]	; 0x34
2000338a:	f003 0301 	and.w	r3, r3, #1
2000338e:	2b00      	cmp	r3, #0
20003390:	d1f9      	bne.n	20003386 <MSS_MAC_write_phy_reg+0x2e>
E:\Github_Repos\SF2_Eth_FFT\Softconsole\FFT_Accelerator\Debug/../firmware/drivers/mss_ethernet_mac/mss_ethernet_mac.c:844
    
        /* Load PHY address in MII Mgmt address register */
        MAC->MII_ADDRESS = (((uint32_t)phyaddr)<<MII_PHY_ADDR);
20003392:	79fb      	ldrb	r3, [r7, #7]
20003394:	4a08      	ldr	r2, [pc, #32]	; (200033b8 <MSS_MAC_write_phy_reg+0x60>)
20003396:	021b      	lsls	r3, r3, #8
20003398:	6293      	str	r3, [r2, #40]	; 0x28
E:\Github_Repos\SF2_Eth_FFT\Softconsole\FFT_Accelerator\Debug/../firmware/drivers/mss_ethernet_mac/mss_ethernet_mac.c:846
        /* Load register address in MII Mgmt address register */
        MAC->MII_ADDRESS |= (uint32_t)regaddr;
2000339a:	4b07      	ldr	r3, [pc, #28]	; (200033b8 <MSS_MAC_write_phy_reg+0x60>)
2000339c:	6a9a      	ldr	r2, [r3, #40]	; 0x28
2000339e:	79bb      	ldrb	r3, [r7, #6]
200033a0:	4905      	ldr	r1, [pc, #20]	; (200033b8 <MSS_MAC_write_phy_reg+0x60>)
200033a2:	4313      	orrs	r3, r2
200033a4:	628b      	str	r3, [r1, #40]	; 0x28
E:\Github_Repos\SF2_Eth_FFT\Softconsole\FFT_Accelerator\Debug/../firmware/drivers/mss_ethernet_mac/mss_ethernet_mac.c:848
        /* Load value to be written in MII Mgmt control register */
        MAC->MII_CTRL = (uint32_t)regval ;
200033a6:	4a04      	ldr	r2, [pc, #16]	; (200033b8 <MSS_MAC_write_phy_reg+0x60>)
200033a8:	88bb      	ldrh	r3, [r7, #4]
200033aa:	62d3      	str	r3, [r2, #44]	; 0x2c
E:\Github_Repos\SF2_Eth_FFT\Softconsole\FFT_Accelerator\Debug/../firmware/drivers/mss_ethernet_mac/mss_ethernet_mac.c:850
    }
}
200033ac:	bf00      	nop
200033ae:	370c      	adds	r7, #12
200033b0:	46bd      	mov	sp, r7
200033b2:	bc80      	pop	{r7}
200033b4:	4770      	bx	lr
200033b6:	bf00      	nop
200033b8:	40041000 	.word	0x40041000

200033bc <MSS_MAC_read_phy_reg>:
MSS_MAC_read_phy_reg():
E:\Github_Repos\SF2_Eth_FFT\Softconsole\FFT_Accelerator\Debug/../firmware/drivers/mss_ethernet_mac/mss_ethernet_mac.c:861
MSS_MAC_read_phy_reg
(
    uint8_t phyaddr,
    uint8_t regaddr
)
{
200033bc:	b580      	push	{r7, lr}
200033be:	b086      	sub	sp, #24
200033c0:	af00      	add	r7, sp, #0
200033c2:	4603      	mov	r3, r0
200033c4:	460a      	mov	r2, r1
200033c6:	71fb      	strb	r3, [r7, #7]
200033c8:	4613      	mov	r3, r2
200033ca:	71bb      	strb	r3, [r7, #6]
E:\Github_Repos\SF2_Eth_FFT\Softconsole\FFT_Accelerator\Debug/../firmware/drivers/mss_ethernet_mac/mss_ethernet_mac.c:862
    uint32_t timeout = 100000u;
200033cc:	4b27      	ldr	r3, [pc, #156]	; (2000346c <MSS_MAC_read_phy_reg+0xb0>)
200033ce:	617b      	str	r3, [r7, #20]
E:\Github_Repos\SF2_Eth_FFT\Softconsole\FFT_Accelerator\Debug/../firmware/drivers/mss_ethernet_mac/mss_ethernet_mac.c:863
    uint16_t read_val = 0u;
200033d0:	2300      	movs	r3, #0
200033d2:	827b      	strh	r3, [r7, #18]
E:\Github_Repos\SF2_Eth_FFT\Softconsole\FFT_Accelerator\Debug/../firmware/drivers/mss_ethernet_mac/mss_ethernet_mac.c:865

    ASSERT(MSS_MAC_PHYADDR_MAXVAL >= phyaddr); 
200033d4:	79fb      	ldrb	r3, [r7, #7]
200033d6:	2b1f      	cmp	r3, #31
200033d8:	d900      	bls.n	200033dc <MSS_MAC_read_phy_reg+0x20>
E:\Github_Repos\SF2_Eth_FFT\Softconsole\FFT_Accelerator\Debug/../firmware/drivers/mss_ethernet_mac/mss_ethernet_mac.c:865 (discriminator 1)
200033da:	be00      	bkpt	0x0000
E:\Github_Repos\SF2_Eth_FFT\Softconsole\FFT_Accelerator\Debug/../firmware/drivers/mss_ethernet_mac/mss_ethernet_mac.c:866
    ASSERT(MSS_MAC_PHYREGADDR_MAXVAL >= regaddr);
200033dc:	79bb      	ldrb	r3, [r7, #6]
200033de:	2b1f      	cmp	r3, #31
200033e0:	d900      	bls.n	200033e4 <MSS_MAC_read_phy_reg+0x28>
E:\Github_Repos\SF2_Eth_FFT\Softconsole\FFT_Accelerator\Debug/../firmware/drivers/mss_ethernet_mac/mss_ethernet_mac.c:866 (discriminator 1)
200033e2:	be00      	bkpt	0x0000
E:\Github_Repos\SF2_Eth_FFT\Softconsole\FFT_Accelerator\Debug/../firmware/drivers/mss_ethernet_mac/mss_ethernet_mac.c:871
    /* 
     * Write PHY address in MII Mgmt address register.
     * Makes previous register address 0 & invalid.
     */ 
    if((MSS_MAC_PHYADDR_MAXVAL >= phyaddr) && 
200033e4:	79fb      	ldrb	r3, [r7, #7]
200033e6:	2b1f      	cmp	r3, #31
200033e8:	d836      	bhi.n	20003458 <MSS_MAC_read_phy_reg+0x9c>
E:\Github_Repos\SF2_Eth_FFT\Softconsole\FFT_Accelerator\Debug/../firmware/drivers/mss_ethernet_mac/mss_ethernet_mac.c:871 (discriminator 1)
200033ea:	79bb      	ldrb	r3, [r7, #6]
200033ec:	2b1f      	cmp	r3, #31
200033ee:	d833      	bhi.n	20003458 <MSS_MAC_read_phy_reg+0x9c>
E:\Github_Repos\SF2_Eth_FFT\Softconsole\FFT_Accelerator\Debug/../firmware/drivers/mss_ethernet_mac/mss_ethernet_mac.c:880 (discriminator 1)
        uint32_t mii_busy;
        
        /* Wait for MII Mgmt interface to complete previous operation. */
        do {
            ;
        } while((MAC->MII_INDICATORS & MII_BUSY_INDICATOR_MASK) != 0u);
200033f0:	4b1f      	ldr	r3, [pc, #124]	; (20003470 <MSS_MAC_read_phy_reg+0xb4>)
200033f2:	6b5b      	ldr	r3, [r3, #52]	; 0x34
200033f4:	f003 0301 	and.w	r3, r3, #1
200033f8:	2b00      	cmp	r3, #0
200033fa:	d1f9      	bne.n	200033f0 <MSS_MAC_read_phy_reg+0x34>
E:\Github_Repos\SF2_Eth_FFT\Softconsole\FFT_Accelerator\Debug/../firmware/drivers/mss_ethernet_mac/mss_ethernet_mac.c:882
        
        MAC->MII_ADDRESS = (((uint32_t)phyaddr) << MII_PHY_ADDR);
200033fc:	79fb      	ldrb	r3, [r7, #7]
200033fe:	4a1c      	ldr	r2, [pc, #112]	; (20003470 <MSS_MAC_read_phy_reg+0xb4>)
20003400:	021b      	lsls	r3, r3, #8
20003402:	6293      	str	r3, [r2, #40]	; 0x28
E:\Github_Repos\SF2_Eth_FFT\Softconsole\FFT_Accelerator\Debug/../firmware/drivers/mss_ethernet_mac/mss_ethernet_mac.c:884
        /* Load PHY register address in MII Mgmt address register */
        MAC->MII_ADDRESS |= (uint32_t)regaddr;
20003404:	4b1a      	ldr	r3, [pc, #104]	; (20003470 <MSS_MAC_read_phy_reg+0xb4>)
20003406:	6a9a      	ldr	r2, [r3, #40]	; 0x28
20003408:	79bb      	ldrb	r3, [r7, #6]
2000340a:	4919      	ldr	r1, [pc, #100]	; (20003470 <MSS_MAC_read_phy_reg+0xb4>)
2000340c:	4313      	orrs	r3, r2
2000340e:	628b      	str	r3, [r1, #40]	; 0x28
E:\Github_Repos\SF2_Eth_FFT\Softconsole\FFT_Accelerator\Debug/../firmware/drivers/mss_ethernet_mac/mss_ethernet_mac.c:886
        /* Issue read command to PHY */
        set_bit_reg32(&MAC->MII_COMMAND, MII_READ);
20003410:	2100      	movs	r1, #0
20003412:	4818      	ldr	r0, [pc, #96]	; (20003474 <MSS_MAC_read_phy_reg+0xb8>)
20003414:	f7ff fbf4 	bl	20002c00 <set_bit_reg32>
E:\Github_Repos\SF2_Eth_FFT\Softconsole\FFT_Accelerator\Debug/../firmware/drivers/mss_ethernet_mac/mss_ethernet_mac.c:889 (discriminator 4)
        /* Poll till PHY read cycle is completed or timeout expired */
        do {
            --timeout;
20003418:	697b      	ldr	r3, [r7, #20]
2000341a:	3b01      	subs	r3, #1
2000341c:	617b      	str	r3, [r7, #20]
E:\Github_Repos\SF2_Eth_FFT\Softconsole\FFT_Accelerator\Debug/../firmware/drivers/mss_ethernet_mac/mss_ethernet_mac.c:890 (discriminator 4)
            mii_not_valid = MAC->MII_INDICATORS & MII_NV_INDICATOR_MASK;
2000341e:	4b14      	ldr	r3, [pc, #80]	; (20003470 <MSS_MAC_read_phy_reg+0xb4>)
20003420:	6b5b      	ldr	r3, [r3, #52]	; 0x34
20003422:	f003 0304 	and.w	r3, r3, #4
20003426:	60fb      	str	r3, [r7, #12]
E:\Github_Repos\SF2_Eth_FFT\Softconsole\FFT_Accelerator\Debug/../firmware/drivers/mss_ethernet_mac/mss_ethernet_mac.c:891 (discriminator 4)
            mii_busy = MAC->MII_INDICATORS & MII_BUSY_INDICATOR_MASK;
20003428:	4b11      	ldr	r3, [pc, #68]	; (20003470 <MSS_MAC_read_phy_reg+0xb4>)
2000342a:	6b5b      	ldr	r3, [r3, #52]	; 0x34
2000342c:	f003 0301 	and.w	r3, r3, #1
20003430:	60bb      	str	r3, [r7, #8]
E:\Github_Repos\SF2_Eth_FFT\Softconsole\FFT_Accelerator\Debug/../firmware/drivers/mss_ethernet_mac/mss_ethernet_mac.c:892 (discriminator 4)
        } while((timeout > 0u) && ((mii_busy != 0u) || (mii_not_valid != 0u)));
20003432:	697b      	ldr	r3, [r7, #20]
20003434:	2b00      	cmp	r3, #0
20003436:	d005      	beq.n	20003444 <MSS_MAC_read_phy_reg+0x88>
E:\Github_Repos\SF2_Eth_FFT\Softconsole\FFT_Accelerator\Debug/../firmware/drivers/mss_ethernet_mac/mss_ethernet_mac.c:892 (discriminator 1)
20003438:	68bb      	ldr	r3, [r7, #8]
2000343a:	2b00      	cmp	r3, #0
2000343c:	d1ec      	bne.n	20003418 <MSS_MAC_read_phy_reg+0x5c>
E:\Github_Repos\SF2_Eth_FFT\Softconsole\FFT_Accelerator\Debug/../firmware/drivers/mss_ethernet_mac/mss_ethernet_mac.c:892 (discriminator 3)
2000343e:	68fb      	ldr	r3, [r7, #12]
20003440:	2b00      	cmp	r3, #0
20003442:	d1e9      	bne.n	20003418 <MSS_MAC_read_phy_reg+0x5c>
E:\Github_Repos\SF2_Eth_FFT\Softconsole\FFT_Accelerator\Debug/../firmware/drivers/mss_ethernet_mac/mss_ethernet_mac.c:896

        /* Read value from MII Mgmt status register only if timeout is not expired
           but the read the read cycle is completed */
        ASSERT(timeout > 0u);
20003444:	697b      	ldr	r3, [r7, #20]
20003446:	2b00      	cmp	r3, #0
20003448:	d100      	bne.n	2000344c <MSS_MAC_read_phy_reg+0x90>
E:\Github_Repos\SF2_Eth_FFT\Softconsole\FFT_Accelerator\Debug/../firmware/drivers/mss_ethernet_mac/mss_ethernet_mac.c:896 (discriminator 1)
2000344a:	be00      	bkpt	0x0000
E:\Github_Repos\SF2_Eth_FFT\Softconsole\FFT_Accelerator\Debug/../firmware/drivers/mss_ethernet_mac/mss_ethernet_mac.c:897
        if(timeout != 0u)
2000344c:	697b      	ldr	r3, [r7, #20]
2000344e:	2b00      	cmp	r3, #0
20003450:	d002      	beq.n	20003458 <MSS_MAC_read_phy_reg+0x9c>
E:\Github_Repos\SF2_Eth_FFT\Softconsole\FFT_Accelerator\Debug/../firmware/drivers/mss_ethernet_mac/mss_ethernet_mac.c:899
        {
            read_val = (uint16_t)MAC->MII_STATUS;
20003452:	4b07      	ldr	r3, [pc, #28]	; (20003470 <MSS_MAC_read_phy_reg+0xb4>)
20003454:	6b1b      	ldr	r3, [r3, #48]	; 0x30
20003456:	827b      	strh	r3, [r7, #18]
E:\Github_Repos\SF2_Eth_FFT\Softconsole\FFT_Accelerator\Debug/../firmware/drivers/mss_ethernet_mac/mss_ethernet_mac.c:902
        }
    }
    clear_bit_reg32(&MAC->MII_COMMAND, MII_READ);
20003458:	2100      	movs	r1, #0
2000345a:	4806      	ldr	r0, [pc, #24]	; (20003474 <MSS_MAC_read_phy_reg+0xb8>)
2000345c:	f7ff fbed 	bl	20002c3a <clear_bit_reg32>
E:\Github_Repos\SF2_Eth_FFT\Softconsole\FFT_Accelerator\Debug/../firmware/drivers/mss_ethernet_mac/mss_ethernet_mac.c:903
    return read_val;
20003460:	8a7b      	ldrh	r3, [r7, #18]
E:\Github_Repos\SF2_Eth_FFT\Softconsole\FFT_Accelerator\Debug/../firmware/drivers/mss_ethernet_mac/mss_ethernet_mac.c:904
}
20003462:	4618      	mov	r0, r3
20003464:	3718      	adds	r7, #24
20003466:	46bd      	mov	sp, r7
20003468:	bd80      	pop	{r7, pc}
2000346a:	bf00      	nop
2000346c:	000186a0 	.word	0x000186a0
20003470:	40041000 	.word	0x40041000
20003474:	40041024 	.word	0x40041024

20003478 <MSS_MAC_receive_pkt>:
MSS_MAC_receive_pkt():
E:\Github_Repos\SF2_Eth_FFT\Softconsole\FFT_Accelerator\Debug/../firmware/drivers/mss_ethernet_mac/mss_ethernet_mac.c:997
MSS_MAC_receive_pkt
(
    uint8_t * rx_pkt_buffer,
    void * p_user_data
)
{
20003478:	b580      	push	{r7, lr}
2000347a:	b084      	sub	sp, #16
2000347c:	af00      	add	r7, sp, #0
2000347e:	6078      	str	r0, [r7, #4]
20003480:	6039      	str	r1, [r7, #0]
E:\Github_Repos\SF2_Eth_FFT\Softconsole\FFT_Accelerator\Debug/../firmware/drivers/mss_ethernet_mac/mss_ethernet_mac.c:998
    uint8_t status = MSS_MAC_FAILED;
20003482:	2300      	movs	r3, #0
20003484:	73fb      	strb	r3, [r7, #15]
E:\Github_Repos\SF2_Eth_FFT\Softconsole\FFT_Accelerator\Debug/../firmware/drivers/mss_ethernet_mac/mss_ethernet_mac.c:1001

    /* Make this function atomic w.r.to EMAC interrupt */
    NVIC_DisableIRQ(EthernetMAC_IRQn);
20003486:	200c      	movs	r0, #12
20003488:	f7ff fb86 	bl	20002b98 <NVIC_DisableIRQ>
E:\Github_Repos\SF2_Eth_FFT\Softconsole\FFT_Accelerator\Debug/../firmware/drivers/mss_ethernet_mac/mss_ethernet_mac.c:1003
    
    ASSERT(NULL_POINTER != rx_pkt_buffer);
2000348c:	687b      	ldr	r3, [r7, #4]
2000348e:	2b00      	cmp	r3, #0
20003490:	d100      	bne.n	20003494 <MSS_MAC_receive_pkt+0x1c>
E:\Github_Repos\SF2_Eth_FFT\Softconsole\FFT_Accelerator\Debug/../firmware/drivers/mss_ethernet_mac/mss_ethernet_mac.c:1003 (discriminator 1)
20003492:	be00      	bkpt	0x0000
E:\Github_Repos\SF2_Eth_FFT\Softconsole\FFT_Accelerator\Debug/../firmware/drivers/mss_ethernet_mac/mss_ethernet_mac.c:1004
    ASSERT(IS_WORD_ALIGNED(rx_pkt_buffer));
20003494:	687b      	ldr	r3, [r7, #4]
20003496:	f003 0303 	and.w	r3, r3, #3
2000349a:	2b00      	cmp	r3, #0
2000349c:	d000      	beq.n	200034a0 <MSS_MAC_receive_pkt+0x28>
E:\Github_Repos\SF2_Eth_FFT\Softconsole\FFT_Accelerator\Debug/../firmware/drivers/mss_ethernet_mac/mss_ethernet_mac.c:1004 (discriminator 1)
2000349e:	be00      	bkpt	0x0000
E:\Github_Repos\SF2_Eth_FFT\Softconsole\FFT_Accelerator\Debug/../firmware/drivers/mss_ethernet_mac/mss_ethernet_mac.c:1006
    
    if(g_mac.nb_available_rx_desc > 0)
200034a0:	4b40      	ldr	r3, [pc, #256]	; (200035a4 <MSS_MAC_receive_pkt+0x12c>)
200034a2:	f9b3 3060 	ldrsh.w	r3, [r3, #96]	; 0x60
200034a6:	2b00      	cmp	r3, #0
200034a8:	dd74      	ble.n	20003594 <MSS_MAC_receive_pkt+0x11c>
E:\Github_Repos\SF2_Eth_FFT\Softconsole\FFT_Accelerator\Debug/../firmware/drivers/mss_ethernet_mac/mss_ethernet_mac.c:1010
    {
        int16_t next_rx_desc_index;
        
        --g_mac.nb_available_rx_desc;
200034aa:	4b3e      	ldr	r3, [pc, #248]	; (200035a4 <MSS_MAC_receive_pkt+0x12c>)
200034ac:	f9b3 3060 	ldrsh.w	r3, [r3, #96]	; 0x60
200034b0:	b29b      	uxth	r3, r3
200034b2:	3b01      	subs	r3, #1
200034b4:	b29b      	uxth	r3, r3
200034b6:	b21a      	sxth	r2, r3
200034b8:	4b3a      	ldr	r3, [pc, #232]	; (200035a4 <MSS_MAC_receive_pkt+0x12c>)
200034ba:	f8a3 2060 	strh.w	r2, [r3, #96]	; 0x60
E:\Github_Repos\SF2_Eth_FFT\Softconsole\FFT_Accelerator\Debug/../firmware/drivers/mss_ethernet_mac/mss_ethernet_mac.c:1011
        next_rx_desc_index = g_mac.next_free_rx_desc_index;
200034be:	4b39      	ldr	r3, [pc, #228]	; (200035a4 <MSS_MAC_receive_pkt+0x12c>)
200034c0:	f8b3 3062 	ldrh.w	r3, [r3, #98]	; 0x62
200034c4:	81bb      	strh	r3, [r7, #12]
E:\Github_Repos\SF2_Eth_FFT\Softconsole\FFT_Accelerator\Debug/../firmware/drivers/mss_ethernet_mac/mss_ethernet_mac.c:1013
        
        g_mac.rx_desc_tab[next_rx_desc_index].pkt_start_addr = rx_pkt_buffer;
200034c6:	f9b7 200c 	ldrsh.w	r2, [r7, #12]
200034ca:	4936      	ldr	r1, [pc, #216]	; (200035a4 <MSS_MAC_receive_pkt+0x12c>)
200034cc:	4613      	mov	r3, r2
200034ce:	009b      	lsls	r3, r3, #2
200034d0:	4413      	add	r3, r2
200034d2:	009b      	lsls	r3, r3, #2
200034d4:	440b      	add	r3, r1
200034d6:	3328      	adds	r3, #40	; 0x28
200034d8:	687a      	ldr	r2, [r7, #4]
200034da:	601a      	str	r2, [r3, #0]
E:\Github_Repos\SF2_Eth_FFT\Softconsole\FFT_Accelerator\Debug/../firmware/drivers/mss_ethernet_mac/mss_ethernet_mac.c:1014
        g_mac.rx_desc_tab[next_rx_desc_index].caller_info = p_user_data;
200034dc:	f9b7 200c 	ldrsh.w	r2, [r7, #12]
200034e0:	4930      	ldr	r1, [pc, #192]	; (200035a4 <MSS_MAC_receive_pkt+0x12c>)
200034e2:	4613      	mov	r3, r2
200034e4:	009b      	lsls	r3, r3, #2
200034e6:	4413      	add	r3, r2
200034e8:	009b      	lsls	r3, r3, #2
200034ea:	440b      	add	r3, r1
200034ec:	3338      	adds	r3, #56	; 0x38
200034ee:	683a      	ldr	r2, [r7, #0]
200034f0:	601a      	str	r2, [r3, #0]
E:\Github_Repos\SF2_Eth_FFT\Softconsole\FFT_Accelerator\Debug/../firmware/drivers/mss_ethernet_mac/mss_ethernet_mac.c:1017

        /* Set own flag of this descriptor to indicate ready for RX */
        g_mac.rx_desc_tab[next_rx_desc_index].pkt_size |= DMA_DESC_EMPTY_FLAG_MASK;
200034f2:	f9b7 200c 	ldrsh.w	r2, [r7, #12]
200034f6:	492b      	ldr	r1, [pc, #172]	; (200035a4 <MSS_MAC_receive_pkt+0x12c>)
200034f8:	4613      	mov	r3, r2
200034fa:	009b      	lsls	r3, r3, #2
200034fc:	4413      	add	r3, r2
200034fe:	009b      	lsls	r3, r3, #2
20003500:	440b      	add	r3, r1
20003502:	332c      	adds	r3, #44	; 0x2c
20003504:	681b      	ldr	r3, [r3, #0]
20003506:	f9b7 200c 	ldrsh.w	r2, [r7, #12]
2000350a:	f043 4100 	orr.w	r1, r3, #2147483648	; 0x80000000
2000350e:	4825      	ldr	r0, [pc, #148]	; (200035a4 <MSS_MAC_receive_pkt+0x12c>)
20003510:	4613      	mov	r3, r2
20003512:	009b      	lsls	r3, r3, #2
20003514:	4413      	add	r3, r2
20003516:	009b      	lsls	r3, r3, #2
20003518:	4403      	add	r3, r0
2000351a:	332c      	adds	r3, #44	; 0x2c
2000351c:	6019      	str	r1, [r3, #0]
E:\Github_Repos\SF2_Eth_FFT\Softconsole\FFT_Accelerator\Debug/../firmware/drivers/mss_ethernet_mac/mss_ethernet_mac.c:1025
           If the RX is found disabled, then it might be because this is the
           first time a packet is scheduled for reception or the RX ENABLE is 
           made zero by RX overflow or RX bus error. In either case, this
           function tries to schedule the current packet for reception.
        */
        if(0u == read_bit_reg32(&MAC->DMA_RX_CTRL, DMA_RXENABLE))
2000351e:	2100      	movs	r1, #0
20003520:	4821      	ldr	r0, [pc, #132]	; (200035a8 <MSS_MAC_receive_pkt+0x130>)
20003522:	f7ff fba7 	bl	20002c74 <read_bit_reg32>
20003526:	4603      	mov	r3, r0
20003528:	2b00      	cmp	r3, #0
2000352a:	d117      	bne.n	2000355c <MSS_MAC_receive_pkt+0xe4>
E:\Github_Repos\SF2_Eth_FFT\Softconsole\FFT_Accelerator\Debug/../firmware/drivers/mss_ethernet_mac/mss_ethernet_mac.c:1028
        {
            /* Make current descriptor to point to the packet requested */
            g_mac.first_rx_desc_index = next_rx_desc_index;
2000352c:	4a1d      	ldr	r2, [pc, #116]	; (200035a4 <MSS_MAC_receive_pkt+0x12c>)
2000352e:	89bb      	ldrh	r3, [r7, #12]
20003530:	f8a2 3064 	strh.w	r3, [r2, #100]	; 0x64
E:\Github_Repos\SF2_Eth_FFT\Softconsole\FFT_Accelerator\Debug/../firmware/drivers/mss_ethernet_mac/mss_ethernet_mac.c:1029
            MAC->DMA_RX_DESC = (uint32_t)&g_mac.rx_desc_tab[next_rx_desc_index];
20003534:	f9b7 200c 	ldrsh.w	r2, [r7, #12]
20003538:	4613      	mov	r3, r2
2000353a:	009b      	lsls	r3, r3, #2
2000353c:	4413      	add	r3, r2
2000353e:	009b      	lsls	r3, r3, #2
20003540:	3328      	adds	r3, #40	; 0x28
20003542:	4a18      	ldr	r2, [pc, #96]	; (200035a4 <MSS_MAC_receive_pkt+0x12c>)
20003544:	441a      	add	r2, r3
20003546:	4b19      	ldr	r3, [pc, #100]	; (200035ac <MSS_MAC_receive_pkt+0x134>)
20003548:	f8c3 2190 	str.w	r2, [r3, #400]	; 0x190
E:\Github_Repos\SF2_Eth_FFT\Softconsole\FFT_Accelerator\Debug/../firmware/drivers/mss_ethernet_mac/mss_ethernet_mac.c:1030
            set_bit_reg32(&MAC->DMA_RX_STATUS, DMA_RXOVRFLOW);
2000354c:	2102      	movs	r1, #2
2000354e:	4818      	ldr	r0, [pc, #96]	; (200035b0 <MSS_MAC_receive_pkt+0x138>)
20003550:	f7ff fb56 	bl	20002c00 <set_bit_reg32>
E:\Github_Repos\SF2_Eth_FFT\Softconsole\FFT_Accelerator\Debug/../firmware/drivers/mss_ethernet_mac/mss_ethernet_mac.c:1031
            set_bit_reg32(&MAC->DMA_RX_CTRL, DMA_RXENABLE);
20003554:	2100      	movs	r1, #0
20003556:	4814      	ldr	r0, [pc, #80]	; (200035a8 <MSS_MAC_receive_pkt+0x130>)
20003558:	f7ff fb52 	bl	20002c00 <set_bit_reg32>
E:\Github_Repos\SF2_Eth_FFT\Softconsole\FFT_Accelerator\Debug/../firmware/drivers/mss_ethernet_mac/mss_ethernet_mac.c:1036
        }

        /* Point the next_rx_desc to next free descriptor in the ring */
        /* Wrap around in case next descriptor is pointing to last in the ring */
        ++g_mac.next_free_rx_desc_index;
2000355c:	4b11      	ldr	r3, [pc, #68]	; (200035a4 <MSS_MAC_receive_pkt+0x12c>)
2000355e:	f9b3 3062 	ldrsh.w	r3, [r3, #98]	; 0x62
20003562:	b29b      	uxth	r3, r3
20003564:	3301      	adds	r3, #1
20003566:	b29b      	uxth	r3, r3
20003568:	b21a      	sxth	r2, r3
2000356a:	4b0e      	ldr	r3, [pc, #56]	; (200035a4 <MSS_MAC_receive_pkt+0x12c>)
2000356c:	f8a3 2062 	strh.w	r2, [r3, #98]	; 0x62
E:\Github_Repos\SF2_Eth_FFT\Softconsole\FFT_Accelerator\Debug/../firmware/drivers/mss_ethernet_mac/mss_ethernet_mac.c:1037
        if(g_mac.next_free_rx_desc_index >= MSS_MAC_RX_RING_SIZE)
20003570:	4b0c      	ldr	r3, [pc, #48]	; (200035a4 <MSS_MAC_receive_pkt+0x12c>)
20003572:	f9b3 3062 	ldrsh.w	r3, [r3, #98]	; 0x62
20003576:	2b01      	cmp	r3, #1
20003578:	dd03      	ble.n	20003582 <MSS_MAC_receive_pkt+0x10a>
E:\Github_Repos\SF2_Eth_FFT\Softconsole\FFT_Accelerator\Debug/../firmware/drivers/mss_ethernet_mac/mss_ethernet_mac.c:1039
        {
            g_mac.next_free_rx_desc_index = 0;
2000357a:	4b0a      	ldr	r3, [pc, #40]	; (200035a4 <MSS_MAC_receive_pkt+0x12c>)
2000357c:	2200      	movs	r2, #0
2000357e:	f8a3 2062 	strh.w	r2, [r3, #98]	; 0x62
E:\Github_Repos\SF2_Eth_FFT\Softconsole\FFT_Accelerator\Debug/../firmware/drivers/mss_ethernet_mac/mss_ethernet_mac.c:1044
        }
        
        /* Packet scheduled for reception successfully only when there 
           is no new RX bus error */
        if(0u == read_bit_reg32(&MAC->DMA_RX_STATUS, DMA_RXBUSERR))
20003582:	2103      	movs	r1, #3
20003584:	480a      	ldr	r0, [pc, #40]	; (200035b0 <MSS_MAC_receive_pkt+0x138>)
20003586:	f7ff fb75 	bl	20002c74 <read_bit_reg32>
2000358a:	4603      	mov	r3, r0
2000358c:	2b00      	cmp	r3, #0
2000358e:	d101      	bne.n	20003594 <MSS_MAC_receive_pkt+0x11c>
E:\Github_Repos\SF2_Eth_FFT\Softconsole\FFT_Accelerator\Debug/../firmware/drivers/mss_ethernet_mac/mss_ethernet_mac.c:1046
        {
            status = MSS_MAC_SUCCESS;
20003590:	2301      	movs	r3, #1
20003592:	73fb      	strb	r3, [r7, #15]
E:\Github_Repos\SF2_Eth_FFT\Softconsole\FFT_Accelerator\Debug/../firmware/drivers/mss_ethernet_mac/mss_ethernet_mac.c:1050
        }
    }
    /* Ethernet Interrupt Enable function. */
    NVIC_EnableIRQ(EthernetMAC_IRQn);
20003594:	200c      	movs	r0, #12
20003596:	f7ff fae7 	bl	20002b68 <NVIC_EnableIRQ>
E:\Github_Repos\SF2_Eth_FFT\Softconsole\FFT_Accelerator\Debug/../firmware/drivers/mss_ethernet_mac/mss_ethernet_mac.c:1051
    return status;
2000359a:	7bfb      	ldrb	r3, [r7, #15]
E:\Github_Repos\SF2_Eth_FFT\Softconsole\FFT_Accelerator\Debug/../firmware/drivers/mss_ethernet_mac/mss_ethernet_mac.c:1052
}
2000359c:	4618      	mov	r0, r3
2000359e:	3710      	adds	r7, #16
200035a0:	46bd      	mov	sp, r7
200035a2:	bd80      	pop	{r7, pc}
200035a4:	200080a8 	.word	0x200080a8
200035a8:	4004118c 	.word	0x4004118c
200035ac:	40041000 	.word	0x40041000
200035b0:	40041194 	.word	0x40041194

200035b4 <MSS_MAC_send_pkt>:
MSS_MAC_send_pkt():
E:\Github_Repos\SF2_Eth_FFT\Softconsole\FFT_Accelerator\Debug/../firmware/drivers/mss_ethernet_mac/mss_ethernet_mac.c:1064
(
    uint8_t const * tx_buffer,
    uint32_t tx_length,
    void * p_user_data
)
{
200035b4:	b580      	push	{r7, lr}
200035b6:	b086      	sub	sp, #24
200035b8:	af00      	add	r7, sp, #0
200035ba:	60f8      	str	r0, [r7, #12]
200035bc:	60b9      	str	r1, [r7, #8]
200035be:	607a      	str	r2, [r7, #4]
E:\Github_Repos\SF2_Eth_FFT\Softconsole\FFT_Accelerator\Debug/../firmware/drivers/mss_ethernet_mac/mss_ethernet_mac.c:1065
    uint8_t status = MSS_MAC_FAILED;
200035c0:	2300      	movs	r3, #0
200035c2:	75fb      	strb	r3, [r7, #23]
E:\Github_Repos\SF2_Eth_FFT\Softconsole\FFT_Accelerator\Debug/../firmware/drivers/mss_ethernet_mac/mss_ethernet_mac.c:1068

    /* Make this function atomic w.r.to EMAC interrupt */
    NVIC_DisableIRQ(EthernetMAC_IRQn);
200035c4:	200c      	movs	r0, #12
200035c6:	f7ff fae7 	bl	20002b98 <NVIC_DisableIRQ>
E:\Github_Repos\SF2_Eth_FFT\Softconsole\FFT_Accelerator\Debug/../firmware/drivers/mss_ethernet_mac/mss_ethernet_mac.c:1070

    ASSERT(NULL_POINTER != tx_buffer);
200035ca:	68fb      	ldr	r3, [r7, #12]
200035cc:	2b00      	cmp	r3, #0
200035ce:	d100      	bne.n	200035d2 <MSS_MAC_send_pkt+0x1e>
E:\Github_Repos\SF2_Eth_FFT\Softconsole\FFT_Accelerator\Debug/../firmware/drivers/mss_ethernet_mac/mss_ethernet_mac.c:1070 (discriminator 1)
200035d0:	be00      	bkpt	0x0000
E:\Github_Repos\SF2_Eth_FFT\Softconsole\FFT_Accelerator\Debug/../firmware/drivers/mss_ethernet_mac/mss_ethernet_mac.c:1071
    ASSERT(0 != tx_length);
200035d2:	68bb      	ldr	r3, [r7, #8]
200035d4:	2b00      	cmp	r3, #0
200035d6:	d100      	bne.n	200035da <MSS_MAC_send_pkt+0x26>
E:\Github_Repos\SF2_Eth_FFT\Softconsole\FFT_Accelerator\Debug/../firmware/drivers/mss_ethernet_mac/mss_ethernet_mac.c:1071 (discriminator 1)
200035d8:	be00      	bkpt	0x0000
E:\Github_Repos\SF2_Eth_FFT\Softconsole\FFT_Accelerator\Debug/../firmware/drivers/mss_ethernet_mac/mss_ethernet_mac.c:1072
    ASSERT(IS_WORD_ALIGNED(tx_buffer));
200035da:	68fb      	ldr	r3, [r7, #12]
200035dc:	f003 0303 	and.w	r3, r3, #3
200035e0:	2b00      	cmp	r3, #0
200035e2:	d000      	beq.n	200035e6 <MSS_MAC_send_pkt+0x32>
E:\Github_Repos\SF2_Eth_FFT\Softconsole\FFT_Accelerator\Debug/../firmware/drivers/mss_ethernet_mac/mss_ethernet_mac.c:1072 (discriminator 1)
200035e4:	be00      	bkpt	0x0000
E:\Github_Repos\SF2_Eth_FFT\Softconsole\FFT_Accelerator\Debug/../firmware/drivers/mss_ethernet_mac/mss_ethernet_mac.c:1074
    
    if(g_mac.nb_available_tx_desc > 0)
200035e6:	4b33      	ldr	r3, [pc, #204]	; (200036b4 <MSS_MAC_send_pkt+0x100>)
200035e8:	f9b3 3058 	ldrsh.w	r3, [r3, #88]	; 0x58
200035ec:	2b00      	cmp	r3, #0
200035ee:	dd59      	ble.n	200036a4 <MSS_MAC_send_pkt+0xf0>
E:\Github_Repos\SF2_Eth_FFT\Softconsole\FFT_Accelerator\Debug/../firmware/drivers/mss_ethernet_mac/mss_ethernet_mac.c:1078
    {
        mss_mac_tx_desc_t * p_next_tx_desc;
        
        --g_mac.nb_available_tx_desc;
200035f0:	4b30      	ldr	r3, [pc, #192]	; (200036b4 <MSS_MAC_send_pkt+0x100>)
200035f2:	f9b3 3058 	ldrsh.w	r3, [r3, #88]	; 0x58
200035f6:	b29b      	uxth	r3, r3
200035f8:	3b01      	subs	r3, #1
200035fa:	b29b      	uxth	r3, r3
200035fc:	b21a      	sxth	r2, r3
200035fe:	4b2d      	ldr	r3, [pc, #180]	; (200036b4 <MSS_MAC_send_pkt+0x100>)
20003600:	f8a3 2058 	strh.w	r2, [r3, #88]	; 0x58
E:\Github_Repos\SF2_Eth_FFT\Softconsole\FFT_Accelerator\Debug/../firmware/drivers/mss_ethernet_mac/mss_ethernet_mac.c:1079
        if(INVALID_INDEX == g_mac.first_tx_index)
20003604:	4b2b      	ldr	r3, [pc, #172]	; (200036b4 <MSS_MAC_send_pkt+0x100>)
20003606:	f9b3 305a 	ldrsh.w	r3, [r3, #90]	; 0x5a
2000360a:	f1b3 3fff 	cmp.w	r3, #4294967295
2000360e:	d105      	bne.n	2000361c <MSS_MAC_send_pkt+0x68>
E:\Github_Repos\SF2_Eth_FFT\Softconsole\FFT_Accelerator\Debug/../firmware/drivers/mss_ethernet_mac/mss_ethernet_mac.c:1081
        {
            g_mac.first_tx_index = g_mac.next_tx_index;
20003610:	4b28      	ldr	r3, [pc, #160]	; (200036b4 <MSS_MAC_send_pkt+0x100>)
20003612:	f9b3 205e 	ldrsh.w	r2, [r3, #94]	; 0x5e
20003616:	4b27      	ldr	r3, [pc, #156]	; (200036b4 <MSS_MAC_send_pkt+0x100>)
20003618:	f8a3 205a 	strh.w	r2, [r3, #90]	; 0x5a
E:\Github_Repos\SF2_Eth_FFT\Softconsole\FFT_Accelerator\Debug/../firmware/drivers/mss_ethernet_mac/mss_ethernet_mac.c:1083
        }
        g_mac.last_tx_index = g_mac.next_tx_index;
2000361c:	4b25      	ldr	r3, [pc, #148]	; (200036b4 <MSS_MAC_send_pkt+0x100>)
2000361e:	f9b3 205e 	ldrsh.w	r2, [r3, #94]	; 0x5e
20003622:	4b24      	ldr	r3, [pc, #144]	; (200036b4 <MSS_MAC_send_pkt+0x100>)
20003624:	f8a3 205c 	strh.w	r2, [r3, #92]	; 0x5c
E:\Github_Repos\SF2_Eth_FFT\Softconsole\FFT_Accelerator\Debug/../firmware/drivers/mss_ethernet_mac/mss_ethernet_mac.c:1085
        
        p_next_tx_desc = &g_mac.tx_desc_tab[g_mac.next_tx_index];
20003628:	4b22      	ldr	r3, [pc, #136]	; (200036b4 <MSS_MAC_send_pkt+0x100>)
2000362a:	f9b3 305e 	ldrsh.w	r3, [r3, #94]	; 0x5e
2000362e:	461a      	mov	r2, r3
20003630:	4613      	mov	r3, r2
20003632:	009b      	lsls	r3, r3, #2
20003634:	4413      	add	r3, r2
20003636:	009b      	lsls	r3, r3, #2
20003638:	4a1e      	ldr	r2, [pc, #120]	; (200036b4 <MSS_MAC_send_pkt+0x100>)
2000363a:	4413      	add	r3, r2
2000363c:	613b      	str	r3, [r7, #16]
E:\Github_Repos\SF2_Eth_FFT\Softconsole\FFT_Accelerator\Debug/../firmware/drivers/mss_ethernet_mac/mss_ethernet_mac.c:1086
        p_next_tx_desc->pkt_start_addr = tx_buffer;
2000363e:	693b      	ldr	r3, [r7, #16]
20003640:	68fa      	ldr	r2, [r7, #12]
20003642:	601a      	str	r2, [r3, #0]
E:\Github_Repos\SF2_Eth_FFT\Softconsole\FFT_Accelerator\Debug/../firmware/drivers/mss_ethernet_mac/mss_ethernet_mac.c:1087
        p_next_tx_desc->caller_info = p_user_data;
20003644:	693b      	ldr	r3, [r7, #16]
20003646:	687a      	ldr	r2, [r7, #4]
20003648:	611a      	str	r2, [r3, #16]
E:\Github_Repos\SF2_Eth_FFT\Softconsole\FFT_Accelerator\Debug/../firmware/drivers/mss_ethernet_mac/mss_ethernet_mac.c:1089
        /* Set the packet length, packet overrides and clear descriptor empty: */
        p_next_tx_desc->pkt_size = tx_length;
2000364a:	693b      	ldr	r3, [r7, #16]
2000364c:	68ba      	ldr	r2, [r7, #8]
2000364e:	605a      	str	r2, [r3, #4]
E:\Github_Repos\SF2_Eth_FFT\Softconsole\FFT_Accelerator\Debug/../firmware/drivers/mss_ethernet_mac/mss_ethernet_mac.c:1097
            If TX is found disabled, this might be because this is the first
            time packet is being sent or the DMA completed previous transfer and
            stopped transmission by itself caused by TX underrun or bus error.
            This function neglects the errors and tries to send the current packet.
         */
        if(DMA_TX_DISABLED == MAC->DMA_TX_CTRL)
20003650:	4b19      	ldr	r3, [pc, #100]	; (200036b8 <MSS_MAC_send_pkt+0x104>)
20003652:	f8d3 3180 	ldr.w	r3, [r3, #384]	; 0x180
20003656:	2b00      	cmp	r3, #0
20003658:	d103      	bne.n	20003662 <MSS_MAC_send_pkt+0xae>
E:\Github_Repos\SF2_Eth_FFT\Softconsole\FFT_Accelerator\Debug/../firmware/drivers/mss_ethernet_mac/mss_ethernet_mac.c:1099
        {
            MAC->DMA_TX_DESC = (uint32_t)p_next_tx_desc;
2000365a:	4a17      	ldr	r2, [pc, #92]	; (200036b8 <MSS_MAC_send_pkt+0x104>)
2000365c:	693b      	ldr	r3, [r7, #16]
2000365e:	f8c2 3184 	str.w	r3, [r2, #388]	; 0x184
E:\Github_Repos\SF2_Eth_FFT\Softconsole\FFT_Accelerator\Debug/../firmware/drivers/mss_ethernet_mac/mss_ethernet_mac.c:1103
        }
        /* Enable DMA transmit anyway to cover the case where Tx completed after
           the read of DMA_TX_CTRL. */
        MAC->DMA_TX_CTRL = DMA_TX_ENABLED;
20003662:	4b15      	ldr	r3, [pc, #84]	; (200036b8 <MSS_MAC_send_pkt+0x104>)
20003664:	2201      	movs	r2, #1
20003666:	f8c3 2180 	str.w	r2, [r3, #384]	; 0x180
E:\Github_Repos\SF2_Eth_FFT\Softconsole\FFT_Accelerator\Debug/../firmware/drivers/mss_ethernet_mac/mss_ethernet_mac.c:1107
        
        /* Point the next_tx_desc to next free descriptor in the ring */
        /* Wrap around in case next descriptor is pointing to last in the ring */
        if((MSS_MAC_TX_RING_SIZE - 1) == g_mac.next_tx_index)
2000366a:	4b12      	ldr	r3, [pc, #72]	; (200036b4 <MSS_MAC_send_pkt+0x100>)
2000366c:	f9b3 305e 	ldrsh.w	r3, [r3, #94]	; 0x5e
20003670:	2b01      	cmp	r3, #1
20003672:	d104      	bne.n	2000367e <MSS_MAC_send_pkt+0xca>
E:\Github_Repos\SF2_Eth_FFT\Softconsole\FFT_Accelerator\Debug/../firmware/drivers/mss_ethernet_mac/mss_ethernet_mac.c:1109
        {
            g_mac.next_tx_index = 0;
20003674:	4b0f      	ldr	r3, [pc, #60]	; (200036b4 <MSS_MAC_send_pkt+0x100>)
20003676:	2200      	movs	r2, #0
20003678:	f8a3 205e 	strh.w	r2, [r3, #94]	; 0x5e
2000367c:	e009      	b.n	20003692 <MSS_MAC_send_pkt+0xde>
E:\Github_Repos\SF2_Eth_FFT\Softconsole\FFT_Accelerator\Debug/../firmware/drivers/mss_ethernet_mac/mss_ethernet_mac.c:1113
        }
        else
        {
            ++g_mac.next_tx_index;
2000367e:	4b0d      	ldr	r3, [pc, #52]	; (200036b4 <MSS_MAC_send_pkt+0x100>)
20003680:	f9b3 305e 	ldrsh.w	r3, [r3, #94]	; 0x5e
20003684:	b29b      	uxth	r3, r3
20003686:	3301      	adds	r3, #1
20003688:	b29b      	uxth	r3, r3
2000368a:	b21a      	sxth	r2, r3
2000368c:	4b09      	ldr	r3, [pc, #36]	; (200036b4 <MSS_MAC_send_pkt+0x100>)
2000368e:	f8a3 205e 	strh.w	r2, [r3, #94]	; 0x5e
E:\Github_Repos\SF2_Eth_FFT\Softconsole\FFT_Accelerator\Debug/../firmware/drivers/mss_ethernet_mac/mss_ethernet_mac.c:1118
        }
        
        /* Packet scheduled for transmission successfully only when 
           there is no TX bus error */
        if(0u == read_bit_reg32(&MAC->DMA_TX_STATUS, DMA_TXBUSERR))
20003692:	2103      	movs	r1, #3
20003694:	4809      	ldr	r0, [pc, #36]	; (200036bc <MSS_MAC_send_pkt+0x108>)
20003696:	f7ff faed 	bl	20002c74 <read_bit_reg32>
2000369a:	4603      	mov	r3, r0
2000369c:	2b00      	cmp	r3, #0
2000369e:	d101      	bne.n	200036a4 <MSS_MAC_send_pkt+0xf0>
E:\Github_Repos\SF2_Eth_FFT\Softconsole\FFT_Accelerator\Debug/../firmware/drivers/mss_ethernet_mac/mss_ethernet_mac.c:1120
        {
            status = MSS_MAC_SUCCESS;
200036a0:	2301      	movs	r3, #1
200036a2:	75fb      	strb	r3, [r7, #23]
E:\Github_Repos\SF2_Eth_FFT\Softconsole\FFT_Accelerator\Debug/../firmware/drivers/mss_ethernet_mac/mss_ethernet_mac.c:1125
        }
    }
    
    /* Ethernet Interrupt Enable function. */
    NVIC_EnableIRQ(EthernetMAC_IRQn);
200036a4:	200c      	movs	r0, #12
200036a6:	f7ff fa5f 	bl	20002b68 <NVIC_EnableIRQ>
E:\Github_Repos\SF2_Eth_FFT\Softconsole\FFT_Accelerator\Debug/../firmware/drivers/mss_ethernet_mac/mss_ethernet_mac.c:1126
    return status;
200036aa:	7dfb      	ldrb	r3, [r7, #23]
E:\Github_Repos\SF2_Eth_FFT\Softconsole\FFT_Accelerator\Debug/../firmware/drivers/mss_ethernet_mac/mss_ethernet_mac.c:1127
}
200036ac:	4618      	mov	r0, r3
200036ae:	3718      	adds	r7, #24
200036b0:	46bd      	mov	sp, r7
200036b2:	bd80      	pop	{r7, pc}
200036b4:	200080a8 	.word	0x200080a8
200036b8:	40041000 	.word	0x40041000
200036bc:	40041188 	.word	0x40041188

200036c0 <EthernetMAC_IRQHandler>:
EthernetMAC_IRQHandler():
E:\Github_Repos\SF2_Eth_FFT\Softconsole\FFT_Accelerator\Debug/../firmware/drivers/mss_ethernet_mac/mss_ethernet_mac.c:1137
void
EthernetMAC_IRQHandler
(
    void
)
{
200036c0:	b580      	push	{r7, lr}
200036c2:	b084      	sub	sp, #16
200036c4:	af00      	add	r7, sp, #0
E:\Github_Repos\SF2_Eth_FFT\Softconsole\FFT_Accelerator\Debug/../firmware/drivers/mss_ethernet_mac/mss_ethernet_mac.c:1142
    uint32_t dma_irq;
    uint32_t packet_sent;
    uint32_t packet_received;
    
    dma_irq = MAC->DMA_IRQ;
200036c6:	4b0d      	ldr	r3, [pc, #52]	; (200036fc <EthernetMAC_IRQHandler+0x3c>)
200036c8:	f8d3 319c 	ldr.w	r3, [r3, #412]	; 0x19c
200036cc:	60fb      	str	r3, [r7, #12]
E:\Github_Repos\SF2_Eth_FFT\Softconsole\FFT_Accelerator\Debug/../firmware/drivers/mss_ethernet_mac/mss_ethernet_mac.c:1145

    /* Transmit packet sent interrupt */
    packet_sent = dma_irq & MSS_MAC_TXPKTSENT_IRQ_MASK;
200036ce:	68fb      	ldr	r3, [r7, #12]
200036d0:	f003 0301 	and.w	r3, r3, #1
200036d4:	60bb      	str	r3, [r7, #8]
E:\Github_Repos\SF2_Eth_FFT\Softconsole\FFT_Accelerator\Debug/../firmware/drivers/mss_ethernet_mac/mss_ethernet_mac.c:1146
    if(packet_sent != 0u)
200036d6:	68bb      	ldr	r3, [r7, #8]
200036d8:	2b00      	cmp	r3, #0
200036da:	d001      	beq.n	200036e0 <EthernetMAC_IRQHandler+0x20>
E:\Github_Repos\SF2_Eth_FFT\Softconsole\FFT_Accelerator\Debug/../firmware/drivers/mss_ethernet_mac/mss_ethernet_mac.c:1148
    {
        txpkt_handler();
200036dc:	f000 f88a 	bl	200037f4 <txpkt_handler>
E:\Github_Repos\SF2_Eth_FFT\Softconsole\FFT_Accelerator\Debug/../firmware/drivers/mss_ethernet_mac/mss_ethernet_mac.c:1151
    }
    /* Packet received interrupt */
    packet_received = dma_irq & MSS_MAC_RXPKTRCVD_IRQ_MASK;
200036e0:	68fb      	ldr	r3, [r7, #12]
200036e2:	f003 0310 	and.w	r3, r3, #16
200036e6:	607b      	str	r3, [r7, #4]
E:\Github_Repos\SF2_Eth_FFT\Softconsole\FFT_Accelerator\Debug/../firmware/drivers/mss_ethernet_mac/mss_ethernet_mac.c:1152
    if(packet_received != 0u)
200036e8:	687b      	ldr	r3, [r7, #4]
200036ea:	2b00      	cmp	r3, #0
200036ec:	d001      	beq.n	200036f2 <EthernetMAC_IRQHandler+0x32>
E:\Github_Repos\SF2_Eth_FFT\Softconsole\FFT_Accelerator\Debug/../firmware/drivers/mss_ethernet_mac/mss_ethernet_mac.c:1154
    {
        rxpkt_handler();
200036ee:	f000 f823 	bl	20003738 <rxpkt_handler>
E:\Github_Repos\SF2_Eth_FFT\Softconsole\FFT_Accelerator\Debug/../firmware/drivers/mss_ethernet_mac/mss_ethernet_mac.c:1156
    }
}
200036f2:	bf00      	nop
200036f4:	3710      	adds	r7, #16
200036f6:	46bd      	mov	sp, r7
200036f8:	bd80      	pop	{r7, pc}
200036fa:	bf00      	nop
200036fc:	40041000 	.word	0x40041000

20003700 <MSS_MAC_set_tx_callback>:
MSS_MAC_set_tx_callback():
E:\Github_Repos\SF2_Eth_FFT\Softconsole\FFT_Accelerator\Debug/../firmware/drivers/mss_ethernet_mac/mss_ethernet_mac.c:1165
 */
void MSS_MAC_set_tx_callback
(
    mss_mac_transmit_callback_t tx_complete_handler
)
{
20003700:	b480      	push	{r7}
20003702:	b083      	sub	sp, #12
20003704:	af00      	add	r7, sp, #0
20003706:	6078      	str	r0, [r7, #4]
E:\Github_Repos\SF2_Eth_FFT\Softconsole\FFT_Accelerator\Debug/../firmware/drivers/mss_ethernet_mac/mss_ethernet_mac.c:1166
    g_mac.tx_complete_handler = tx_complete_handler;
20003708:	4a03      	ldr	r2, [pc, #12]	; (20003718 <MSS_MAC_set_tx_callback+0x18>)
2000370a:	687b      	ldr	r3, [r7, #4]
2000370c:	6513      	str	r3, [r2, #80]	; 0x50
E:\Github_Repos\SF2_Eth_FFT\Softconsole\FFT_Accelerator\Debug/../firmware/drivers/mss_ethernet_mac/mss_ethernet_mac.c:1167
}
2000370e:	bf00      	nop
20003710:	370c      	adds	r7, #12
20003712:	46bd      	mov	sp, r7
20003714:	bc80      	pop	{r7}
20003716:	4770      	bx	lr
20003718:	200080a8 	.word	0x200080a8

2000371c <MSS_MAC_set_rx_callback>:
MSS_MAC_set_rx_callback():
E:\Github_Repos\SF2_Eth_FFT\Softconsole\FFT_Accelerator\Debug/../firmware/drivers/mss_ethernet_mac/mss_ethernet_mac.c:1176
 */
void MSS_MAC_set_rx_callback
(
    mss_mac_receive_callback_t rx_callback
)
{
2000371c:	b480      	push	{r7}
2000371e:	b083      	sub	sp, #12
20003720:	af00      	add	r7, sp, #0
20003722:	6078      	str	r0, [r7, #4]
E:\Github_Repos\SF2_Eth_FFT\Softconsole\FFT_Accelerator\Debug/../firmware/drivers/mss_ethernet_mac/mss_ethernet_mac.c:1177
    g_mac.pckt_rx_callback = rx_callback;
20003724:	4a03      	ldr	r2, [pc, #12]	; (20003734 <MSS_MAC_set_rx_callback+0x18>)
20003726:	687b      	ldr	r3, [r7, #4]
20003728:	6553      	str	r3, [r2, #84]	; 0x54
E:\Github_Repos\SF2_Eth_FFT\Softconsole\FFT_Accelerator\Debug/../firmware/drivers/mss_ethernet_mac/mss_ethernet_mac.c:1178
}
2000372a:	bf00      	nop
2000372c:	370c      	adds	r7, #12
2000372e:	46bd      	mov	sp, r7
20003730:	bc80      	pop	{r7}
20003732:	4770      	bx	lr
20003734:	200080a8 	.word	0x200080a8

20003738 <rxpkt_handler>:
rxpkt_handler():
E:\Github_Repos\SF2_Eth_FFT\Softconsole\FFT_Accelerator\Debug/../firmware/drivers/mss_ethernet_mac/mss_ethernet_mac.c:1195
static void 
rxpkt_handler
(
    void
)
{
20003738:	b580      	push	{r7, lr}
2000373a:	b084      	sub	sp, #16
2000373c:	af00      	add	r7, sp, #0
E:\Github_Repos\SF2_Eth_FFT\Softconsole\FFT_Accelerator\Debug/../firmware/drivers/mss_ethernet_mac/mss_ethernet_mac.c:1196
    uint32_t rxcnt = 0u;
2000373e:	2300      	movs	r3, #0
20003740:	60fb      	str	r3, [r7, #12]
E:\Github_Repos\SF2_Eth_FFT\Softconsole\FFT_Accelerator\Debug/../firmware/drivers/mss_ethernet_mac/mss_ethernet_mac.c:1202

    /* Execution comes here because at-least one packet is received.
       Hence rxcnt can be read after freeing one descriptor */
    do
    {
        mss_mac_rx_desc_t * cdesc = &g_mac.rx_desc_tab[g_mac.first_rx_desc_index];
20003742:	4b29      	ldr	r3, [pc, #164]	; (200037e8 <rxpkt_handler+0xb0>)
20003744:	f9b3 3064 	ldrsh.w	r3, [r3, #100]	; 0x64
20003748:	461a      	mov	r2, r3
2000374a:	4613      	mov	r3, r2
2000374c:	009b      	lsls	r3, r3, #2
2000374e:	4413      	add	r3, r2
20003750:	009b      	lsls	r3, r3, #2
20003752:	3328      	adds	r3, #40	; 0x28
20003754:	4a24      	ldr	r2, [pc, #144]	; (200037e8 <rxpkt_handler+0xb0>)
20003756:	4413      	add	r3, r2
20003758:	60bb      	str	r3, [r7, #8]
E:\Github_Repos\SF2_Eth_FFT\Softconsole\FFT_Accelerator\Debug/../firmware/drivers/mss_ethernet_mac/mss_ethernet_mac.c:1206

        /* Point the curr_rx_desc to next descriptor in the ring */
        /* Wrap around in case next descriptor is pointing to last in the ring */
        ++g_mac.first_rx_desc_index;
2000375a:	4b23      	ldr	r3, [pc, #140]	; (200037e8 <rxpkt_handler+0xb0>)
2000375c:	f9b3 3064 	ldrsh.w	r3, [r3, #100]	; 0x64
20003760:	b29b      	uxth	r3, r3
20003762:	3301      	adds	r3, #1
20003764:	b29b      	uxth	r3, r3
20003766:	b21a      	sxth	r2, r3
20003768:	4b1f      	ldr	r3, [pc, #124]	; (200037e8 <rxpkt_handler+0xb0>)
2000376a:	f8a3 2064 	strh.w	r2, [r3, #100]	; 0x64
E:\Github_Repos\SF2_Eth_FFT\Softconsole\FFT_Accelerator\Debug/../firmware/drivers/mss_ethernet_mac/mss_ethernet_mac.c:1207
        if(g_mac.first_rx_desc_index >= MSS_MAC_RX_RING_SIZE)
2000376e:	4b1e      	ldr	r3, [pc, #120]	; (200037e8 <rxpkt_handler+0xb0>)
20003770:	f9b3 3064 	ldrsh.w	r3, [r3, #100]	; 0x64
20003774:	2b01      	cmp	r3, #1
20003776:	dd03      	ble.n	20003780 <rxpkt_handler+0x48>
E:\Github_Repos\SF2_Eth_FFT\Softconsole\FFT_Accelerator\Debug/../firmware/drivers/mss_ethernet_mac/mss_ethernet_mac.c:1209
        {
            g_mac.first_rx_desc_index = 0;
20003778:	4b1b      	ldr	r3, [pc, #108]	; (200037e8 <rxpkt_handler+0xb0>)
2000377a:	2200      	movs	r2, #0
2000377c:	f8a3 2064 	strh.w	r2, [r3, #100]	; 0x64
E:\Github_Repos\SF2_Eth_FFT\Softconsole\FFT_Accelerator\Debug/../firmware/drivers/mss_ethernet_mac/mss_ethernet_mac.c:1215
        }
        
        /* Clear the rx packet received interrupt once. If this 
           bit still persists, then another rx packet received 
           interrupt will be generated. Rx count will be decremented.*/
        set_bit_reg32(&MAC->DMA_RX_STATUS, DMA_RXPKTRCVD);
20003780:	2100      	movs	r1, #0
20003782:	481a      	ldr	r0, [pc, #104]	; (200037ec <rxpkt_handler+0xb4>)
20003784:	f7ff fa3c 	bl	20002c00 <set_bit_reg32>
E:\Github_Repos\SF2_Eth_FFT\Softconsole\FFT_Accelerator\Debug/../firmware/drivers/mss_ethernet_mac/mss_ethernet_mac.c:1217
        /* Get the latest current received count */
        rxcnt = (MAC->DMA_RX_STATUS & DMA_PKTCOUNT_MASK) >> DMA_PKTCOUNT;
20003788:	4b19      	ldr	r3, [pc, #100]	; (200037f0 <rxpkt_handler+0xb8>)
2000378a:	f8d3 3194 	ldr.w	r3, [r3, #404]	; 0x194
2000378e:	0c1b      	lsrs	r3, r3, #16
20003790:	b2db      	uxtb	r3, r3
20003792:	60fb      	str	r3, [r7, #12]
E:\Github_Repos\SF2_Eth_FFT\Softconsole\FFT_Accelerator\Debug/../firmware/drivers/mss_ethernet_mac/mss_ethernet_mac.c:1219
 
        ++g_mac.nb_available_rx_desc;
20003794:	4b14      	ldr	r3, [pc, #80]	; (200037e8 <rxpkt_handler+0xb0>)
20003796:	f9b3 3060 	ldrsh.w	r3, [r3, #96]	; 0x60
2000379a:	b29b      	uxth	r3, r3
2000379c:	3301      	adds	r3, #1
2000379e:	b29b      	uxth	r3, r3
200037a0:	b21a      	sxth	r2, r3
200037a2:	4b11      	ldr	r3, [pc, #68]	; (200037e8 <rxpkt_handler+0xb0>)
200037a4:	f8a3 2060 	strh.w	r2, [r3, #96]	; 0x60
E:\Github_Repos\SF2_Eth_FFT\Softconsole\FFT_Accelerator\Debug/../firmware/drivers/mss_ethernet_mac/mss_ethernet_mac.c:1221
        /* Pass received packet up to application layer. */
        if(NULL_POINTER != g_mac.pckt_rx_callback)
200037a8:	4b0f      	ldr	r3, [pc, #60]	; (200037e8 <rxpkt_handler+0xb0>)
200037aa:	6d5b      	ldr	r3, [r3, #84]	; 0x54
200037ac:	2b00      	cmp	r3, #0
200037ae:	d013      	beq.n	200037d8 <rxpkt_handler+0xa0>
E:\Github_Repos\SF2_Eth_FFT\Softconsole\FFT_Accelerator\Debug/../firmware/drivers/mss_ethernet_mac/mss_ethernet_mac.c:1226
        {
            uint8_t * p_rx_packet;
            uint32_t pckt_length;
            
            p_rx_packet = cdesc->pkt_start_addr;
200037b0:	68bb      	ldr	r3, [r7, #8]
200037b2:	681b      	ldr	r3, [r3, #0]
200037b4:	607b      	str	r3, [r7, #4]
E:\Github_Repos\SF2_Eth_FFT\Softconsole\FFT_Accelerator\Debug/../firmware/drivers/mss_ethernet_mac/mss_ethernet_mac.c:1227
            pckt_length = (cdesc->pkt_size & DMA_DESC_PKT_SIZE_MASK) - 4u;
200037b6:	68bb      	ldr	r3, [r7, #8]
200037b8:	685b      	ldr	r3, [r3, #4]
200037ba:	f3c3 030b 	ubfx	r3, r3, #0, #12
200037be:	3b04      	subs	r3, #4
200037c0:	603b      	str	r3, [r7, #0]
E:\Github_Repos\SF2_Eth_FFT\Softconsole\FFT_Accelerator\Debug/../firmware/drivers/mss_ethernet_mac/mss_ethernet_mac.c:1228
            if(NULL_POINTER != g_mac.pckt_rx_callback)
200037c2:	4b09      	ldr	r3, [pc, #36]	; (200037e8 <rxpkt_handler+0xb0>)
200037c4:	6d5b      	ldr	r3, [r3, #84]	; 0x54
200037c6:	2b00      	cmp	r3, #0
200037c8:	d006      	beq.n	200037d8 <rxpkt_handler+0xa0>
E:\Github_Repos\SF2_Eth_FFT\Softconsole\FFT_Accelerator\Debug/../firmware/drivers/mss_ethernet_mac/mss_ethernet_mac.c:1230
            {
                g_mac.pckt_rx_callback(p_rx_packet, pckt_length, cdesc->caller_info);
200037ca:	4b07      	ldr	r3, [pc, #28]	; (200037e8 <rxpkt_handler+0xb0>)
200037cc:	6d5b      	ldr	r3, [r3, #84]	; 0x54
200037ce:	68ba      	ldr	r2, [r7, #8]
200037d0:	6912      	ldr	r2, [r2, #16]
200037d2:	6839      	ldr	r1, [r7, #0]
200037d4:	6878      	ldr	r0, [r7, #4]
200037d6:	4798      	blx	r3
E:\Github_Repos\SF2_Eth_FFT\Softconsole\FFT_Accelerator\Debug/../firmware/drivers/mss_ethernet_mac/mss_ethernet_mac.c:1234
            }
        }       
       
    } while(0u != rxcnt);
200037d8:	68fb      	ldr	r3, [r7, #12]
200037da:	2b00      	cmp	r3, #0
200037dc:	d1b1      	bne.n	20003742 <rxpkt_handler+0xa>
E:\Github_Repos\SF2_Eth_FFT\Softconsole\FFT_Accelerator\Debug/../firmware/drivers/mss_ethernet_mac/mss_ethernet_mac.c:1235
}
200037de:	bf00      	nop
200037e0:	3710      	adds	r7, #16
200037e2:	46bd      	mov	sp, r7
200037e4:	bd80      	pop	{r7, pc}
200037e6:	bf00      	nop
200037e8:	200080a8 	.word	0x200080a8
200037ec:	40041194 	.word	0x40041194
200037f0:	40041000 	.word	0x40041000

200037f4 <txpkt_handler>:
txpkt_handler():
E:\Github_Repos\SF2_Eth_FFT\Softconsole\FFT_Accelerator\Debug/../firmware/drivers/mss_ethernet_mac/mss_ethernet_mac.c:1247
static void 
txpkt_handler
(
    void
)
{
200037f4:	b580      	push	{r7, lr}
200037f6:	b084      	sub	sp, #16
200037f8:	af00      	add	r7, sp, #0
E:\Github_Repos\SF2_Eth_FFT\Softconsole\FFT_Accelerator\Debug/../firmware/drivers/mss_ethernet_mac/mss_ethernet_mac.c:1250
    uint32_t empty_flag;
    int16_t index;
    uint32_t completed = 0u;
200037fa:	2300      	movs	r3, #0
200037fc:	60bb      	str	r3, [r7, #8]
E:\Github_Repos\SF2_Eth_FFT\Softconsole\FFT_Accelerator\Debug/../firmware/drivers/mss_ethernet_mac/mss_ethernet_mac.c:1252
        
    ASSERT(g_mac.first_tx_index != INVALID_INDEX);
200037fe:	4b36      	ldr	r3, [pc, #216]	; (200038d8 <txpkt_handler+0xe4>)
20003800:	f9b3 305a 	ldrsh.w	r3, [r3, #90]	; 0x5a
20003804:	f1b3 3fff 	cmp.w	r3, #4294967295
20003808:	d100      	bne.n	2000380c <txpkt_handler+0x18>
E:\Github_Repos\SF2_Eth_FFT\Softconsole\FFT_Accelerator\Debug/../firmware/drivers/mss_ethernet_mac/mss_ethernet_mac.c:1252 (discriminator 1)
2000380a:	be00      	bkpt	0x0000
E:\Github_Repos\SF2_Eth_FFT\Softconsole\FFT_Accelerator\Debug/../firmware/drivers/mss_ethernet_mac/mss_ethernet_mac.c:1253
    ASSERT(g_mac.last_tx_index != INVALID_INDEX);
2000380c:	4b32      	ldr	r3, [pc, #200]	; (200038d8 <txpkt_handler+0xe4>)
2000380e:	f9b3 305c 	ldrsh.w	r3, [r3, #92]	; 0x5c
20003812:	f1b3 3fff 	cmp.w	r3, #4294967295
20003816:	d100      	bne.n	2000381a <txpkt_handler+0x26>
E:\Github_Repos\SF2_Eth_FFT\Softconsole\FFT_Accelerator\Debug/../firmware/drivers/mss_ethernet_mac/mss_ethernet_mac.c:1253 (discriminator 1)
20003818:	be00      	bkpt	0x0000
E:\Github_Repos\SF2_Eth_FFT\Softconsole\FFT_Accelerator\Debug/../firmware/drivers/mss_ethernet_mac/mss_ethernet_mac.c:1255
    
    index = g_mac.first_tx_index;
2000381a:	4b2f      	ldr	r3, [pc, #188]	; (200038d8 <txpkt_handler+0xe4>)
2000381c:	f8b3 305a 	ldrh.w	r3, [r3, #90]	; 0x5a
20003820:	81fb      	strh	r3, [r7, #14]
E:\Github_Repos\SF2_Eth_FFT\Softconsole\FFT_Accelerator\Debug/../firmware/drivers/mss_ethernet_mac/mss_ethernet_mac.c:1258
    do
    {
        ++g_mac.nb_available_tx_desc;
20003822:	4b2d      	ldr	r3, [pc, #180]	; (200038d8 <txpkt_handler+0xe4>)
20003824:	f9b3 3058 	ldrsh.w	r3, [r3, #88]	; 0x58
20003828:	b29b      	uxth	r3, r3
2000382a:	3301      	adds	r3, #1
2000382c:	b29b      	uxth	r3, r3
2000382e:	b21a      	sxth	r2, r3
20003830:	4b29      	ldr	r3, [pc, #164]	; (200038d8 <txpkt_handler+0xe4>)
20003832:	f8a3 2058 	strh.w	r2, [r3, #88]	; 0x58
E:\Github_Repos\SF2_Eth_FFT\Softconsole\FFT_Accelerator\Debug/../firmware/drivers/mss_ethernet_mac/mss_ethernet_mac.c:1260
        /* Call packet Tx completion handler if it exists. */
        if(NULL_POINTER != g_mac.tx_complete_handler)
20003836:	4b28      	ldr	r3, [pc, #160]	; (200038d8 <txpkt_handler+0xe4>)
20003838:	6d1b      	ldr	r3, [r3, #80]	; 0x50
2000383a:	2b00      	cmp	r3, #0
2000383c:	d00d      	beq.n	2000385a <txpkt_handler+0x66>
E:\Github_Repos\SF2_Eth_FFT\Softconsole\FFT_Accelerator\Debug/../firmware/drivers/mss_ethernet_mac/mss_ethernet_mac.c:1262
        {
            g_mac.tx_complete_handler(g_mac.tx_desc_tab[index].caller_info);
2000383e:	4b26      	ldr	r3, [pc, #152]	; (200038d8 <txpkt_handler+0xe4>)
20003840:	6d19      	ldr	r1, [r3, #80]	; 0x50
20003842:	f9b7 200e 	ldrsh.w	r2, [r7, #14]
20003846:	4824      	ldr	r0, [pc, #144]	; (200038d8 <txpkt_handler+0xe4>)
20003848:	4613      	mov	r3, r2
2000384a:	009b      	lsls	r3, r3, #2
2000384c:	4413      	add	r3, r2
2000384e:	009b      	lsls	r3, r3, #2
20003850:	4403      	add	r3, r0
20003852:	3310      	adds	r3, #16
20003854:	681b      	ldr	r3, [r3, #0]
20003856:	4618      	mov	r0, r3
20003858:	4788      	blx	r1
E:\Github_Repos\SF2_Eth_FFT\Softconsole\FFT_Accelerator\Debug/../firmware/drivers/mss_ethernet_mac/mss_ethernet_mac.c:1265
        }
        
        if(index == g_mac.last_tx_index)
2000385a:	4b1f      	ldr	r3, [pc, #124]	; (200038d8 <txpkt_handler+0xe4>)
2000385c:	f9b3 305c 	ldrsh.w	r3, [r3, #92]	; 0x5c
20003860:	f9b7 200e 	ldrsh.w	r2, [r7, #14]
20003864:	429a      	cmp	r2, r3
20003866:	d10c      	bne.n	20003882 <txpkt_handler+0x8e>
E:\Github_Repos\SF2_Eth_FFT\Softconsole\FFT_Accelerator\Debug/../firmware/drivers/mss_ethernet_mac/mss_ethernet_mac.c:1268
        {
            /* all pending tx packets sent. */
            g_mac.first_tx_index = INVALID_INDEX;
20003868:	4b1b      	ldr	r3, [pc, #108]	; (200038d8 <txpkt_handler+0xe4>)
2000386a:	f64f 72ff 	movw	r2, #65535	; 0xffff
2000386e:	f8a3 205a 	strh.w	r2, [r3, #90]	; 0x5a
E:\Github_Repos\SF2_Eth_FFT\Softconsole\FFT_Accelerator\Debug/../firmware/drivers/mss_ethernet_mac/mss_ethernet_mac.c:1269
            g_mac.last_tx_index = INVALID_INDEX;
20003872:	4b19      	ldr	r3, [pc, #100]	; (200038d8 <txpkt_handler+0xe4>)
20003874:	f64f 72ff 	movw	r2, #65535	; 0xffff
20003878:	f8a3 205c 	strh.w	r2, [r3, #92]	; 0x5c
E:\Github_Repos\SF2_Eth_FFT\Softconsole\FFT_Accelerator\Debug/../firmware/drivers/mss_ethernet_mac/mss_ethernet_mac.c:1270
            completed = 1u;
2000387c:	2301      	movs	r3, #1
2000387e:	60bb      	str	r3, [r7, #8]
20003880:	e01f      	b.n	200038c2 <txpkt_handler+0xce>
E:\Github_Repos\SF2_Eth_FFT\Softconsole\FFT_Accelerator\Debug/../firmware/drivers/mss_ethernet_mac/mss_ethernet_mac.c:1275
        }
        else
        {
            /* Move on to next transmit descriptor. */
            ++index;
20003882:	89fb      	ldrh	r3, [r7, #14]
20003884:	3301      	adds	r3, #1
20003886:	b29b      	uxth	r3, r3
20003888:	81fb      	strh	r3, [r7, #14]
E:\Github_Repos\SF2_Eth_FFT\Softconsole\FFT_Accelerator\Debug/../firmware/drivers/mss_ethernet_mac/mss_ethernet_mac.c:1276
            if(index >= MSS_MAC_TX_RING_SIZE)
2000388a:	f9b7 300e 	ldrsh.w	r3, [r7, #14]
2000388e:	2b01      	cmp	r3, #1
20003890:	dd01      	ble.n	20003896 <txpkt_handler+0xa2>
E:\Github_Repos\SF2_Eth_FFT\Softconsole\FFT_Accelerator\Debug/../firmware/drivers/mss_ethernet_mac/mss_ethernet_mac.c:1278
            {
                index = 0;
20003892:	2300      	movs	r3, #0
20003894:	81fb      	strh	r3, [r7, #14]
E:\Github_Repos\SF2_Eth_FFT\Softconsole\FFT_Accelerator\Debug/../firmware/drivers/mss_ethernet_mac/mss_ethernet_mac.c:1280
            }
            g_mac.first_tx_index = index;
20003896:	4a10      	ldr	r2, [pc, #64]	; (200038d8 <txpkt_handler+0xe4>)
20003898:	89fb      	ldrh	r3, [r7, #14]
2000389a:	f8a2 305a 	strh.w	r3, [r2, #90]	; 0x5a
E:\Github_Repos\SF2_Eth_FFT\Softconsole\FFT_Accelerator\Debug/../firmware/drivers/mss_ethernet_mac/mss_ethernet_mac.c:1283
            
            /* Check if we reached a descriptor still pending tx. */
            empty_flag = g_mac.tx_desc_tab[index].pkt_size & DMA_DESC_EMPTY_FLAG_MASK;
2000389e:	f9b7 200e 	ldrsh.w	r2, [r7, #14]
200038a2:	490d      	ldr	r1, [pc, #52]	; (200038d8 <txpkt_handler+0xe4>)
200038a4:	4613      	mov	r3, r2
200038a6:	009b      	lsls	r3, r3, #2
200038a8:	4413      	add	r3, r2
200038aa:	009b      	lsls	r3, r3, #2
200038ac:	440b      	add	r3, r1
200038ae:	3304      	adds	r3, #4
200038b0:	681b      	ldr	r3, [r3, #0]
200038b2:	f003 4300 	and.w	r3, r3, #2147483648	; 0x80000000
200038b6:	607b      	str	r3, [r7, #4]
E:\Github_Repos\SF2_Eth_FFT\Softconsole\FFT_Accelerator\Debug/../firmware/drivers/mss_ethernet_mac/mss_ethernet_mac.c:1284
            if(0u == empty_flag)
200038b8:	687b      	ldr	r3, [r7, #4]
200038ba:	2b00      	cmp	r3, #0
200038bc:	d101      	bne.n	200038c2 <txpkt_handler+0xce>
E:\Github_Repos\SF2_Eth_FFT\Softconsole\FFT_Accelerator\Debug/../firmware/drivers/mss_ethernet_mac/mss_ethernet_mac.c:1286
            {
                completed = 1u;
200038be:	2301      	movs	r3, #1
200038c0:	60bb      	str	r3, [r7, #8]
E:\Github_Repos\SF2_Eth_FFT\Softconsole\FFT_Accelerator\Debug/../firmware/drivers/mss_ethernet_mac/mss_ethernet_mac.c:1293
        }
        
        
        /* Clear the tx packet sent interrupt. Please note that this must be
         * done for every packet sent as it decrements the TXPKTCOUNT. */
        set_bit_reg32(&MAC->DMA_TX_STATUS, DMA_TXPKTSENT);
200038c2:	2100      	movs	r1, #0
200038c4:	4805      	ldr	r0, [pc, #20]	; (200038dc <txpkt_handler+0xe8>)
200038c6:	f7ff f99b 	bl	20002c00 <set_bit_reg32>
E:\Github_Repos\SF2_Eth_FFT\Softconsole\FFT_Accelerator\Debug/../firmware/drivers/mss_ethernet_mac/mss_ethernet_mac.c:1294
    } while(0u == completed);
200038ca:	68bb      	ldr	r3, [r7, #8]
200038cc:	2b00      	cmp	r3, #0
200038ce:	d0a8      	beq.n	20003822 <txpkt_handler+0x2e>
E:\Github_Repos\SF2_Eth_FFT\Softconsole\FFT_Accelerator\Debug/../firmware/drivers/mss_ethernet_mac/mss_ethernet_mac.c:1295
}
200038d0:	bf00      	nop
200038d2:	3710      	adds	r7, #16
200038d4:	46bd      	mov	sp, r7
200038d6:	bd80      	pop	{r7, pc}
200038d8:	200080a8 	.word	0x200080a8
200038dc:	40041188 	.word	0x40041188

200038e0 <tx_desc_ring_init>:
tx_desc_ring_init():
E:\Github_Repos\SF2_Eth_FFT\Softconsole\FFT_Accelerator\Debug/../firmware/drivers/mss_ethernet_mac/mss_ethernet_mac.c:1301

/**************************************************************************//**
 * 
 */
static void tx_desc_ring_init(void)
{
200038e0:	b480      	push	{r7}
200038e2:	b083      	sub	sp, #12
200038e4:	af00      	add	r7, sp, #0
E:\Github_Repos\SF2_Eth_FFT\Softconsole\FFT_Accelerator\Debug/../firmware/drivers/mss_ethernet_mac/mss_ethernet_mac.c:1304
    int32_t inc;
    
    for(inc = 0; inc < MSS_MAC_TX_RING_SIZE; ++inc)
200038e6:	2300      	movs	r3, #0
200038e8:	607b      	str	r3, [r7, #4]
200038ea:	e03f      	b.n	2000396c <tx_desc_ring_init+0x8c>
E:\Github_Repos\SF2_Eth_FFT\Softconsole\FFT_Accelerator\Debug/../firmware/drivers/mss_ethernet_mac/mss_ethernet_mac.c:1306
    {
        g_mac.tx_desc_tab[inc].pkt_start_addr = 0u;
200038ec:	4923      	ldr	r1, [pc, #140]	; (2000397c <tx_desc_ring_init+0x9c>)
200038ee:	687a      	ldr	r2, [r7, #4]
200038f0:	4613      	mov	r3, r2
200038f2:	009b      	lsls	r3, r3, #2
200038f4:	4413      	add	r3, r2
200038f6:	009b      	lsls	r3, r3, #2
200038f8:	440b      	add	r3, r1
200038fa:	2200      	movs	r2, #0
200038fc:	601a      	str	r2, [r3, #0]
E:\Github_Repos\SF2_Eth_FFT\Softconsole\FFT_Accelerator\Debug/../firmware/drivers/mss_ethernet_mac/mss_ethernet_mac.c:1307
        g_mac.tx_desc_tab[inc].pkt_size = DMA_DESC_EMPTY_FLAG_MASK;
200038fe:	491f      	ldr	r1, [pc, #124]	; (2000397c <tx_desc_ring_init+0x9c>)
20003900:	687a      	ldr	r2, [r7, #4]
20003902:	4613      	mov	r3, r2
20003904:	009b      	lsls	r3, r3, #2
20003906:	4413      	add	r3, r2
20003908:	009b      	lsls	r3, r3, #2
2000390a:	440b      	add	r3, r1
2000390c:	3304      	adds	r3, #4
2000390e:	f04f 4200 	mov.w	r2, #2147483648	; 0x80000000
20003912:	601a      	str	r2, [r3, #0]
E:\Github_Repos\SF2_Eth_FFT\Softconsole\FFT_Accelerator\Debug/../firmware/drivers/mss_ethernet_mac/mss_ethernet_mac.c:1308
        if((MSS_MAC_TX_RING_SIZE - 1) == inc)
20003914:	687b      	ldr	r3, [r7, #4]
20003916:	2b01      	cmp	r3, #1
20003918:	d10a      	bne.n	20003930 <tx_desc_ring_init+0x50>
E:\Github_Repos\SF2_Eth_FFT\Softconsole\FFT_Accelerator\Debug/../firmware/drivers/mss_ethernet_mac/mss_ethernet_mac.c:1310
        {
            g_mac.tx_desc_tab[inc].next_desriptor = &g_mac.tx_desc_tab[0];
2000391a:	4918      	ldr	r1, [pc, #96]	; (2000397c <tx_desc_ring_init+0x9c>)
2000391c:	687a      	ldr	r2, [r7, #4]
2000391e:	4613      	mov	r3, r2
20003920:	009b      	lsls	r3, r3, #2
20003922:	4413      	add	r3, r2
20003924:	009b      	lsls	r3, r3, #2
20003926:	440b      	add	r3, r1
20003928:	3308      	adds	r3, #8
2000392a:	4a14      	ldr	r2, [pc, #80]	; (2000397c <tx_desc_ring_init+0x9c>)
2000392c:	601a      	str	r2, [r3, #0]
2000392e:	e010      	b.n	20003952 <tx_desc_ring_init+0x72>
E:\Github_Repos\SF2_Eth_FFT\Softconsole\FFT_Accelerator\Debug/../firmware/drivers/mss_ethernet_mac/mss_ethernet_mac.c:1314
        }
        else
        {
            g_mac.tx_desc_tab[inc].next_desriptor = &g_mac.tx_desc_tab[inc + 1];
20003930:	687b      	ldr	r3, [r7, #4]
20003932:	1c5a      	adds	r2, r3, #1
20003934:	4613      	mov	r3, r2
20003936:	009b      	lsls	r3, r3, #2
20003938:	4413      	add	r3, r2
2000393a:	009b      	lsls	r3, r3, #2
2000393c:	4a0f      	ldr	r2, [pc, #60]	; (2000397c <tx_desc_ring_init+0x9c>)
2000393e:	1899      	adds	r1, r3, r2
20003940:	480e      	ldr	r0, [pc, #56]	; (2000397c <tx_desc_ring_init+0x9c>)
20003942:	687a      	ldr	r2, [r7, #4]
20003944:	4613      	mov	r3, r2
20003946:	009b      	lsls	r3, r3, #2
20003948:	4413      	add	r3, r2
2000394a:	009b      	lsls	r3, r3, #2
2000394c:	4403      	add	r3, r0
2000394e:	3308      	adds	r3, #8
20003950:	6019      	str	r1, [r3, #0]
E:\Github_Repos\SF2_Eth_FFT\Softconsole\FFT_Accelerator\Debug/../firmware/drivers/mss_ethernet_mac/mss_ethernet_mac.c:1316 (discriminator 2)
        }
        g_mac.tx_desc_tab[inc].index = inc;
20003952:	490a      	ldr	r1, [pc, #40]	; (2000397c <tx_desc_ring_init+0x9c>)
20003954:	687a      	ldr	r2, [r7, #4]
20003956:	4613      	mov	r3, r2
20003958:	009b      	lsls	r3, r3, #2
2000395a:	4413      	add	r3, r2
2000395c:	009b      	lsls	r3, r3, #2
2000395e:	440b      	add	r3, r1
20003960:	330c      	adds	r3, #12
20003962:	687a      	ldr	r2, [r7, #4]
20003964:	601a      	str	r2, [r3, #0]
E:\Github_Repos\SF2_Eth_FFT\Softconsole\FFT_Accelerator\Debug/../firmware/drivers/mss_ethernet_mac/mss_ethernet_mac.c:1304 (discriminator 2)
    for(inc = 0; inc < MSS_MAC_TX_RING_SIZE; ++inc)
20003966:	687b      	ldr	r3, [r7, #4]
20003968:	3301      	adds	r3, #1
2000396a:	607b      	str	r3, [r7, #4]
E:\Github_Repos\SF2_Eth_FFT\Softconsole\FFT_Accelerator\Debug/../firmware/drivers/mss_ethernet_mac/mss_ethernet_mac.c:1304 (discriminator 1)
2000396c:	687b      	ldr	r3, [r7, #4]
2000396e:	2b01      	cmp	r3, #1
20003970:	ddbc      	ble.n	200038ec <tx_desc_ring_init+0xc>
E:\Github_Repos\SF2_Eth_FFT\Softconsole\FFT_Accelerator\Debug/../firmware/drivers/mss_ethernet_mac/mss_ethernet_mac.c:1318
    }
}
20003972:	bf00      	nop
20003974:	370c      	adds	r7, #12
20003976:	46bd      	mov	sp, r7
20003978:	bc80      	pop	{r7}
2000397a:	4770      	bx	lr
2000397c:	200080a8 	.word	0x200080a8

20003980 <rx_desc_ring_init>:
rx_desc_ring_init():
E:\Github_Repos\SF2_Eth_FFT\Softconsole\FFT_Accelerator\Debug/../firmware/drivers/mss_ethernet_mac/mss_ethernet_mac.c:1324

/**************************************************************************//**
 * 
 */
static void rx_desc_ring_init(void)
{
20003980:	b480      	push	{r7}
20003982:	b083      	sub	sp, #12
20003984:	af00      	add	r7, sp, #0
E:\Github_Repos\SF2_Eth_FFT\Softconsole\FFT_Accelerator\Debug/../firmware/drivers/mss_ethernet_mac/mss_ethernet_mac.c:1327
    int32_t inc;
    
    for(inc = 0; inc < MSS_MAC_RX_RING_SIZE; ++inc)
20003986:	2300      	movs	r3, #0
20003988:	607b      	str	r3, [r7, #4]
2000398a:	e040      	b.n	20003a0e <rx_desc_ring_init+0x8e>
E:\Github_Repos\SF2_Eth_FFT\Softconsole\FFT_Accelerator\Debug/../firmware/drivers/mss_ethernet_mac/mss_ethernet_mac.c:1329
    {
        g_mac.rx_desc_tab[inc].pkt_start_addr = 0u;
2000398c:	4924      	ldr	r1, [pc, #144]	; (20003a20 <rx_desc_ring_init+0xa0>)
2000398e:	687a      	ldr	r2, [r7, #4]
20003990:	4613      	mov	r3, r2
20003992:	009b      	lsls	r3, r3, #2
20003994:	4413      	add	r3, r2
20003996:	009b      	lsls	r3, r3, #2
20003998:	440b      	add	r3, r1
2000399a:	3328      	adds	r3, #40	; 0x28
2000399c:	2200      	movs	r2, #0
2000399e:	601a      	str	r2, [r3, #0]
E:\Github_Repos\SF2_Eth_FFT\Softconsole\FFT_Accelerator\Debug/../firmware/drivers/mss_ethernet_mac/mss_ethernet_mac.c:1330
        g_mac.rx_desc_tab[inc].pkt_size = 0u;
200039a0:	491f      	ldr	r1, [pc, #124]	; (20003a20 <rx_desc_ring_init+0xa0>)
200039a2:	687a      	ldr	r2, [r7, #4]
200039a4:	4613      	mov	r3, r2
200039a6:	009b      	lsls	r3, r3, #2
200039a8:	4413      	add	r3, r2
200039aa:	009b      	lsls	r3, r3, #2
200039ac:	440b      	add	r3, r1
200039ae:	332c      	adds	r3, #44	; 0x2c
200039b0:	2200      	movs	r2, #0
200039b2:	601a      	str	r2, [r3, #0]
E:\Github_Repos\SF2_Eth_FFT\Softconsole\FFT_Accelerator\Debug/../firmware/drivers/mss_ethernet_mac/mss_ethernet_mac.c:1331
        if((MSS_MAC_RX_RING_SIZE - 1) == inc)
200039b4:	687b      	ldr	r3, [r7, #4]
200039b6:	2b01      	cmp	r3, #1
200039b8:	d10a      	bne.n	200039d0 <rx_desc_ring_init+0x50>
E:\Github_Repos\SF2_Eth_FFT\Softconsole\FFT_Accelerator\Debug/../firmware/drivers/mss_ethernet_mac/mss_ethernet_mac.c:1333
        {
            g_mac.rx_desc_tab[inc].next_desriptor = &g_mac.rx_desc_tab[0];
200039ba:	4919      	ldr	r1, [pc, #100]	; (20003a20 <rx_desc_ring_init+0xa0>)
200039bc:	687a      	ldr	r2, [r7, #4]
200039be:	4613      	mov	r3, r2
200039c0:	009b      	lsls	r3, r3, #2
200039c2:	4413      	add	r3, r2
200039c4:	009b      	lsls	r3, r3, #2
200039c6:	440b      	add	r3, r1
200039c8:	3330      	adds	r3, #48	; 0x30
200039ca:	4a16      	ldr	r2, [pc, #88]	; (20003a24 <rx_desc_ring_init+0xa4>)
200039cc:	601a      	str	r2, [r3, #0]
200039ce:	e011      	b.n	200039f4 <rx_desc_ring_init+0x74>
E:\Github_Repos\SF2_Eth_FFT\Softconsole\FFT_Accelerator\Debug/../firmware/drivers/mss_ethernet_mac/mss_ethernet_mac.c:1337
        }
        else
        {
            g_mac.rx_desc_tab[inc].next_desriptor = &g_mac.rx_desc_tab[inc + 1];
200039d0:	687b      	ldr	r3, [r7, #4]
200039d2:	1c5a      	adds	r2, r3, #1
200039d4:	4613      	mov	r3, r2
200039d6:	009b      	lsls	r3, r3, #2
200039d8:	4413      	add	r3, r2
200039da:	009b      	lsls	r3, r3, #2
200039dc:	3328      	adds	r3, #40	; 0x28
200039de:	4a10      	ldr	r2, [pc, #64]	; (20003a20 <rx_desc_ring_init+0xa0>)
200039e0:	1899      	adds	r1, r3, r2
200039e2:	480f      	ldr	r0, [pc, #60]	; (20003a20 <rx_desc_ring_init+0xa0>)
200039e4:	687a      	ldr	r2, [r7, #4]
200039e6:	4613      	mov	r3, r2
200039e8:	009b      	lsls	r3, r3, #2
200039ea:	4413      	add	r3, r2
200039ec:	009b      	lsls	r3, r3, #2
200039ee:	4403      	add	r3, r0
200039f0:	3330      	adds	r3, #48	; 0x30
200039f2:	6019      	str	r1, [r3, #0]
E:\Github_Repos\SF2_Eth_FFT\Softconsole\FFT_Accelerator\Debug/../firmware/drivers/mss_ethernet_mac/mss_ethernet_mac.c:1339 (discriminator 2)
        }
        g_mac.rx_desc_tab[inc].index = inc;
200039f4:	490a      	ldr	r1, [pc, #40]	; (20003a20 <rx_desc_ring_init+0xa0>)
200039f6:	687a      	ldr	r2, [r7, #4]
200039f8:	4613      	mov	r3, r2
200039fa:	009b      	lsls	r3, r3, #2
200039fc:	4413      	add	r3, r2
200039fe:	009b      	lsls	r3, r3, #2
20003a00:	440b      	add	r3, r1
20003a02:	3334      	adds	r3, #52	; 0x34
20003a04:	687a      	ldr	r2, [r7, #4]
20003a06:	601a      	str	r2, [r3, #0]
E:\Github_Repos\SF2_Eth_FFT\Softconsole\FFT_Accelerator\Debug/../firmware/drivers/mss_ethernet_mac/mss_ethernet_mac.c:1327 (discriminator 2)
    for(inc = 0; inc < MSS_MAC_RX_RING_SIZE; ++inc)
20003a08:	687b      	ldr	r3, [r7, #4]
20003a0a:	3301      	adds	r3, #1
20003a0c:	607b      	str	r3, [r7, #4]
E:\Github_Repos\SF2_Eth_FFT\Softconsole\FFT_Accelerator\Debug/../firmware/drivers/mss_ethernet_mac/mss_ethernet_mac.c:1327 (discriminator 1)
20003a0e:	687b      	ldr	r3, [r7, #4]
20003a10:	2b01      	cmp	r3, #1
20003a12:	ddbb      	ble.n	2000398c <rx_desc_ring_init+0xc>
E:\Github_Repos\SF2_Eth_FFT\Softconsole\FFT_Accelerator\Debug/../firmware/drivers/mss_ethernet_mac/mss_ethernet_mac.c:1341
    }
}
20003a14:	bf00      	nop
20003a16:	370c      	adds	r7, #12
20003a18:	46bd      	mov	sp, r7
20003a1a:	bc80      	pop	{r7}
20003a1c:	4770      	bx	lr
20003a1e:	bf00      	nop
20003a20:	200080a8 	.word	0x200080a8
20003a24:	200080d0 	.word	0x200080d0

20003a28 <assign_station_addr>:
assign_station_addr():
E:\Github_Repos\SF2_Eth_FFT\Softconsole\FFT_Accelerator\Debug/../firmware/drivers/mss_ethernet_mac/mss_ethernet_mac.c:1350
 */
static void assign_station_addr
(
    const uint8_t mac_addr[6]
)
{
20003a28:	b480      	push	{r7}
20003a2a:	b085      	sub	sp, #20
20003a2c:	af00      	add	r7, sp, #0
20003a2e:	6078      	str	r0, [r7, #4]
E:\Github_Repos\SF2_Eth_FFT\Softconsole\FFT_Accelerator\Debug/../firmware/drivers/mss_ethernet_mac/mss_ethernet_mac.c:1353
    uint32_t address32;

    ASSERT(NULL_POINTER!= mac_addr);
20003a30:	687b      	ldr	r3, [r7, #4]
20003a32:	2b00      	cmp	r3, #0
20003a34:	d100      	bne.n	20003a38 <assign_station_addr+0x10>
E:\Github_Repos\SF2_Eth_FFT\Softconsole\FFT_Accelerator\Debug/../firmware/drivers/mss_ethernet_mac/mss_ethernet_mac.c:1353 (discriminator 1)
20003a36:	be00      	bkpt	0x0000
E:\Github_Repos\SF2_Eth_FFT\Softconsole\FFT_Accelerator\Debug/../firmware/drivers/mss_ethernet_mac/mss_ethernet_mac.c:1355

    if(NULL_POINTER != mac_addr)
20003a38:	687b      	ldr	r3, [r7, #4]
20003a3a:	2b00      	cmp	r3, #0
20003a3c:	d02a      	beq.n	20003a94 <assign_station_addr+0x6c>
E:\Github_Repos\SF2_Eth_FFT\Softconsole\FFT_Accelerator\Debug/../firmware/drivers/mss_ethernet_mac/mss_ethernet_mac.c:1357
    {
        address32 = ((uint32_t)mac_addr[5]) << 24u;
20003a3e:	687b      	ldr	r3, [r7, #4]
20003a40:	3305      	adds	r3, #5
20003a42:	781b      	ldrb	r3, [r3, #0]
20003a44:	061b      	lsls	r3, r3, #24
20003a46:	60fb      	str	r3, [r7, #12]
E:\Github_Repos\SF2_Eth_FFT\Softconsole\FFT_Accelerator\Debug/../firmware/drivers/mss_ethernet_mac/mss_ethernet_mac.c:1358
        address32 |= ((uint32_t)mac_addr[4]) << 16u;
20003a48:	687b      	ldr	r3, [r7, #4]
20003a4a:	3304      	adds	r3, #4
20003a4c:	781b      	ldrb	r3, [r3, #0]
20003a4e:	041b      	lsls	r3, r3, #16
20003a50:	68fa      	ldr	r2, [r7, #12]
20003a52:	4313      	orrs	r3, r2
20003a54:	60fb      	str	r3, [r7, #12]
E:\Github_Repos\SF2_Eth_FFT\Softconsole\FFT_Accelerator\Debug/../firmware/drivers/mss_ethernet_mac/mss_ethernet_mac.c:1359
        address32 |= ((uint32_t)mac_addr[3]) << 8u;
20003a56:	687b      	ldr	r3, [r7, #4]
20003a58:	3303      	adds	r3, #3
20003a5a:	781b      	ldrb	r3, [r3, #0]
20003a5c:	021b      	lsls	r3, r3, #8
20003a5e:	68fa      	ldr	r2, [r7, #12]
20003a60:	4313      	orrs	r3, r2
20003a62:	60fb      	str	r3, [r7, #12]
E:\Github_Repos\SF2_Eth_FFT\Softconsole\FFT_Accelerator\Debug/../firmware/drivers/mss_ethernet_mac/mss_ethernet_mac.c:1360
        address32 |= ((uint32_t)mac_addr[2]);
20003a64:	687b      	ldr	r3, [r7, #4]
20003a66:	3302      	adds	r3, #2
20003a68:	781b      	ldrb	r3, [r3, #0]
20003a6a:	461a      	mov	r2, r3
20003a6c:	68fb      	ldr	r3, [r7, #12]
20003a6e:	4313      	orrs	r3, r2
20003a70:	60fb      	str	r3, [r7, #12]
E:\Github_Repos\SF2_Eth_FFT\Softconsole\FFT_Accelerator\Debug/../firmware/drivers/mss_ethernet_mac/mss_ethernet_mac.c:1361
        MAC->STATION_ADDRESS1 = address32;
20003a72:	4a0b      	ldr	r2, [pc, #44]	; (20003aa0 <assign_station_addr+0x78>)
20003a74:	68fb      	ldr	r3, [r7, #12]
20003a76:	6413      	str	r3, [r2, #64]	; 0x40
E:\Github_Repos\SF2_Eth_FFT\Softconsole\FFT_Accelerator\Debug/../firmware/drivers/mss_ethernet_mac/mss_ethernet_mac.c:1362
        address32 = ((uint32_t)mac_addr[1]) << 24u;
20003a78:	687b      	ldr	r3, [r7, #4]
20003a7a:	3301      	adds	r3, #1
20003a7c:	781b      	ldrb	r3, [r3, #0]
20003a7e:	061b      	lsls	r3, r3, #24
20003a80:	60fb      	str	r3, [r7, #12]
E:\Github_Repos\SF2_Eth_FFT\Softconsole\FFT_Accelerator\Debug/../firmware/drivers/mss_ethernet_mac/mss_ethernet_mac.c:1363
        address32 |= ((uint32_t)mac_addr[0]) << 16u;
20003a82:	687b      	ldr	r3, [r7, #4]
20003a84:	781b      	ldrb	r3, [r3, #0]
20003a86:	041b      	lsls	r3, r3, #16
20003a88:	68fa      	ldr	r2, [r7, #12]
20003a8a:	4313      	orrs	r3, r2
20003a8c:	60fb      	str	r3, [r7, #12]
E:\Github_Repos\SF2_Eth_FFT\Softconsole\FFT_Accelerator\Debug/../firmware/drivers/mss_ethernet_mac/mss_ethernet_mac.c:1364
        MAC->STATION_ADDRESS2 = address32;
20003a8e:	4a04      	ldr	r2, [pc, #16]	; (20003aa0 <assign_station_addr+0x78>)
20003a90:	68fb      	ldr	r3, [r7, #12]
20003a92:	6453      	str	r3, [r2, #68]	; 0x44
E:\Github_Repos\SF2_Eth_FFT\Softconsole\FFT_Accelerator\Debug/../firmware/drivers/mss_ethernet_mac/mss_ethernet_mac.c:1366
    }
}
20003a94:	bf00      	nop
20003a96:	3714      	adds	r7, #20
20003a98:	46bd      	mov	sp, r7
20003a9a:	bc80      	pop	{r7}
20003a9c:	4770      	bx	lr
20003a9e:	bf00      	nop
20003aa0:	40041000 	.word	0x40041000

20003aa4 <probe_phy>:
probe_phy():
E:\Github_Repos\SF2_Eth_FFT\Softconsole\FFT_Accelerator\Debug/../firmware/drivers/mss_ethernet_mac/mss_ethernet_mac.c:1378
 * PHY's address.
 * This function returns the detected PHY's address or 32 (PHY_ADDRESS_MAX + 1)
 * if no PHY is responding.
 */
static uint8_t probe_phy(void)
{
20003aa4:	b580      	push	{r7, lr}
20003aa6:	b084      	sub	sp, #16
20003aa8:	af00      	add	r7, sp, #0
E:\Github_Repos\SF2_Eth_FFT\Softconsole\FFT_Accelerator\Debug/../firmware/drivers/mss_ethernet_mac/mss_ethernet_mac.c:1379
    uint8_t phy_address = PHY_ADDRESS_MIN;
20003aaa:	2300      	movs	r3, #0
20003aac:	73fb      	strb	r3, [r7, #15]
E:\Github_Repos\SF2_Eth_FFT\Softconsole\FFT_Accelerator\Debug/../firmware/drivers/mss_ethernet_mac/mss_ethernet_mac.c:1380
    const uint16_t ALL_BITS_HIGH = 0xffffU;
20003aae:	f64f 73ff 	movw	r3, #65535	; 0xffff
20003ab2:	80fb      	strh	r3, [r7, #6]
E:\Github_Repos\SF2_Eth_FFT\Softconsole\FFT_Accelerator\Debug/../firmware/drivers/mss_ethernet_mac/mss_ethernet_mac.c:1381
    const uint8_t PHYREG_PHYID1R = 0x02U;   /* PHY Identifier 1 register address. */
20003ab4:	2302      	movs	r3, #2
20003ab6:	717b      	strb	r3, [r7, #5]
E:\Github_Repos\SF2_Eth_FFT\Softconsole\FFT_Accelerator\Debug/../firmware/drivers/mss_ethernet_mac/mss_ethernet_mac.c:1388
    
    do
    {
        uint16_t reg;
        
        reg = MSS_MAC_read_phy_reg(phy_address, PHYREG_PHYID1R);
20003ab8:	797a      	ldrb	r2, [r7, #5]
20003aba:	7bfb      	ldrb	r3, [r7, #15]
20003abc:	4611      	mov	r1, r2
20003abe:	4618      	mov	r0, r3
20003ac0:	f7ff fc7c 	bl	200033bc <MSS_MAC_read_phy_reg>
20003ac4:	4603      	mov	r3, r0
20003ac6:	807b      	strh	r3, [r7, #2]
E:\Github_Repos\SF2_Eth_FFT\Softconsole\FFT_Accelerator\Debug/../firmware/drivers/mss_ethernet_mac/mss_ethernet_mac.c:1389
        if (reg != ALL_BITS_HIGH)
20003ac8:	887a      	ldrh	r2, [r7, #2]
20003aca:	88fb      	ldrh	r3, [r7, #6]
20003acc:	429a      	cmp	r2, r3
20003ace:	d002      	beq.n	20003ad6 <probe_phy+0x32>
E:\Github_Repos\SF2_Eth_FFT\Softconsole\FFT_Accelerator\Debug/../firmware/drivers/mss_ethernet_mac/mss_ethernet_mac.c:1391
        {
            found = 1U;
20003ad0:	2301      	movs	r3, #1
20003ad2:	60bb      	str	r3, [r7, #8]
20003ad4:	e004      	b.n	20003ae0 <probe_phy+0x3c>
E:\Github_Repos\SF2_Eth_FFT\Softconsole\FFT_Accelerator\Debug/../firmware/drivers/mss_ethernet_mac/mss_ethernet_mac.c:1395
        }
        else
        {
            found = 0U;
20003ad6:	2300      	movs	r3, #0
20003ad8:	60bb      	str	r3, [r7, #8]
E:\Github_Repos\SF2_Eth_FFT\Softconsole\FFT_Accelerator\Debug/../firmware/drivers/mss_ethernet_mac/mss_ethernet_mac.c:1396
            ++phy_address;
20003ada:	7bfb      	ldrb	r3, [r7, #15]
20003adc:	3301      	adds	r3, #1
20003ade:	73fb      	strb	r3, [r7, #15]
E:\Github_Repos\SF2_Eth_FFT\Softconsole\FFT_Accelerator\Debug/../firmware/drivers/mss_ethernet_mac/mss_ethernet_mac.c:1399
        }
    }
    while ((phy_address <= PHY_ADDRESS_MAX) && (0U == found));    
20003ae0:	7bfb      	ldrb	r3, [r7, #15]
20003ae2:	2b1f      	cmp	r3, #31
20003ae4:	d802      	bhi.n	20003aec <probe_phy+0x48>
E:\Github_Repos\SF2_Eth_FFT\Softconsole\FFT_Accelerator\Debug/../firmware/drivers/mss_ethernet_mac/mss_ethernet_mac.c:1399 (discriminator 1)
20003ae6:	68bb      	ldr	r3, [r7, #8]
20003ae8:	2b00      	cmp	r3, #0
20003aea:	d0e5      	beq.n	20003ab8 <probe_phy+0x14>
E:\Github_Repos\SF2_Eth_FFT\Softconsole\FFT_Accelerator\Debug/../firmware/drivers/mss_ethernet_mac/mss_ethernet_mac.c:1401
    
    return phy_address;
20003aec:	7bfb      	ldrb	r3, [r7, #15]
E:\Github_Repos\SF2_Eth_FFT\Softconsole\FFT_Accelerator\Debug/../firmware/drivers/mss_ethernet_mac/mss_ethernet_mac.c:1402
}
20003aee:	4618      	mov	r0, r3
20003af0:	3710      	adds	r7, #16
20003af2:	46bd      	mov	sp, r7
20003af4:	bd80      	pop	{r7, pc}

20003af6 <_exit>:
_exit():
E:\Github_Repos\SF2_Eth_FFT\Softconsole\FFT_Accelerator\Debug/../firmware/CMSIS/startup_gcc/newlib_stubs.c:90

/*==============================================================================
 * Exit a program without cleaning up files.
 */
void _exit( int code )
{
20003af6:	b480      	push	{r7}
20003af8:	b083      	sub	sp, #12
20003afa:	af00      	add	r7, sp, #0
20003afc:	6078      	str	r0, [r7, #4]
E:\Github_Repos\SF2_Eth_FFT\Softconsole\FFT_Accelerator\Debug/../firmware/CMSIS/startup_gcc/newlib_stubs.c:92 (discriminator 1)
    /* Should we force a system reset? */
    while( 1 )
20003afe:	e7fe      	b.n	20003afe <_exit+0x8>

20003b00 <_write_r>:
_write_r():
E:\Github_Repos\SF2_Eth_FFT\Softconsole\FFT_Accelerator\Debug/../firmware/CMSIS/startup_gcc/newlib_stubs.c:181
 * all files, including stdoutso if you need to generate any output, for
 * example to a serial port for debugging, you should make your minimal write
 * capable of doing this.
 */
int _write_r( void * reent, int file, char * ptr, int len )
{
20003b00:	b480      	push	{r7}
20003b02:	b085      	sub	sp, #20
20003b04:	af00      	add	r7, sp, #0
20003b06:	60f8      	str	r0, [r7, #12]
20003b08:	60b9      	str	r1, [r7, #8]
20003b0a:	607a      	str	r2, [r7, #4]
20003b0c:	603b      	str	r3, [r7, #0]
E:\Github_Repos\SF2_Eth_FFT\Softconsole\FFT_Accelerator\Debug/../firmware/CMSIS/startup_gcc/newlib_stubs.c:203
     */
    MSS_UART_polled_tx(gp_my_uart, (uint8_t *)ptr, len);
    
    return len;
#else   /* MICROSEMI_STDIO_THRU_UART */
    return 0;
20003b0e:	2300      	movs	r3, #0
E:\Github_Repos\SF2_Eth_FFT\Softconsole\FFT_Accelerator\Debug/../firmware/CMSIS/startup_gcc/newlib_stubs.c:205
#endif  /* MICROSEMI_STDIO_THRU_UART */
}
20003b10:	4618      	mov	r0, r3
20003b12:	3714      	adds	r7, #20
20003b14:	46bd      	mov	sp, r7
20003b16:	bc80      	pop	{r7}
20003b18:	4770      	bx	lr
	...

20003b1c <_sbrk>:
_sbrk():
E:\Github_Repos\SF2_Eth_FFT\Softconsole\FFT_Accelerator\Debug/../firmware/CMSIS/startup_gcc/newlib_stubs.c:214
 * it is useful to have a working implementation. The following suffices for a
 * standalone system; it exploits the symbol _end automatically defined by the
 * GNU linker. 
 */
caddr_t _sbrk(int incr)
{
20003b1c:	b580      	push	{r7, lr}
20003b1e:	b086      	sub	sp, #24
20003b20:	af00      	add	r7, sp, #0
20003b22:	6078      	str	r0, [r7, #4]
E:\Github_Repos\SF2_Eth_FFT\Softconsole\FFT_Accelerator\Debug/../firmware/CMSIS/startup_gcc/newlib_stubs.c:220
    extern char _end;       /* Defined by the linker */
    static char *heap_end;
    char *prev_heap_end;
    char * stack_ptr;
    
    if (heap_end == 0)
20003b24:	4b1f      	ldr	r3, [pc, #124]	; (20003ba4 <_sbrk+0x88>)
20003b26:	681b      	ldr	r3, [r3, #0]
20003b28:	2b00      	cmp	r3, #0
20003b2a:	d102      	bne.n	20003b32 <_sbrk+0x16>
E:\Github_Repos\SF2_Eth_FFT\Softconsole\FFT_Accelerator\Debug/../firmware/CMSIS/startup_gcc/newlib_stubs.c:222
    {
      heap_end = &_end;
20003b2c:	4b1d      	ldr	r3, [pc, #116]	; (20003ba4 <_sbrk+0x88>)
20003b2e:	4a1e      	ldr	r2, [pc, #120]	; (20003ba8 <_sbrk+0x8c>)
20003b30:	601a      	str	r2, [r3, #0]
E:\Github_Repos\SF2_Eth_FFT\Softconsole\FFT_Accelerator\Debug/../firmware/CMSIS/startup_gcc/newlib_stubs.c:225
    }
    
    prev_heap_end = heap_end;
20003b32:	4b1c      	ldr	r3, [pc, #112]	; (20003ba4 <_sbrk+0x88>)
20003b34:	681b      	ldr	r3, [r3, #0]
20003b36:	617b      	str	r3, [r7, #20]
E:\Github_Repos\SF2_Eth_FFT\Softconsole\FFT_Accelerator\Debug/../firmware/CMSIS/startup_gcc/newlib_stubs.c:227
    
    asm volatile ("MRS %0, msp" : "=r" (stack_ptr) );
20003b38:	f3ef 8308 	mrs	r3, MSP
20003b3c:	613b      	str	r3, [r7, #16]
E:\Github_Repos\SF2_Eth_FFT\Softconsole\FFT_Accelerator\Debug/../firmware/CMSIS/startup_gcc/newlib_stubs.c:228
    if(heap_end < stack_ptr)
20003b3e:	4b19      	ldr	r3, [pc, #100]	; (20003ba4 <_sbrk+0x88>)
20003b40:	681b      	ldr	r3, [r3, #0]
20003b42:	693a      	ldr	r2, [r7, #16]
20003b44:	429a      	cmp	r2, r3
20003b46:	d90f      	bls.n	20003b68 <_sbrk+0x4c>
E:\Github_Repos\SF2_Eth_FFT\Softconsole\FFT_Accelerator\Debug/../firmware/CMSIS/startup_gcc/newlib_stubs.c:235
        /*
         * Heap is at an address below the stack, growing up toward the stack.
         * The stack is above the heap, growing down towards the heap.
         * Make sure the stack and heap do not run into each other.
         */
        if (heap_end + incr > stack_ptr)
20003b48:	4b16      	ldr	r3, [pc, #88]	; (20003ba4 <_sbrk+0x88>)
20003b4a:	681a      	ldr	r2, [r3, #0]
20003b4c:	687b      	ldr	r3, [r7, #4]
20003b4e:	4413      	add	r3, r2
20003b50:	693a      	ldr	r2, [r7, #16]
20003b52:	429a      	cmp	r2, r3
20003b54:	d21a      	bcs.n	20003b8c <_sbrk+0x70>
E:\Github_Repos\SF2_Eth_FFT\Softconsole\FFT_Accelerator\Debug/../firmware/CMSIS/startup_gcc/newlib_stubs.c:237
        {
          _write_r ((void *)0, 1, "Heap and stack collision\n", 25);
20003b56:	2319      	movs	r3, #25
20003b58:	4a14      	ldr	r2, [pc, #80]	; (20003bac <_sbrk+0x90>)
20003b5a:	2101      	movs	r1, #1
20003b5c:	2000      	movs	r0, #0
20003b5e:	f7ff ffcf 	bl	20003b00 <_write_r>
E:\Github_Repos\SF2_Eth_FFT\Softconsole\FFT_Accelerator\Debug/../firmware/CMSIS/startup_gcc/newlib_stubs.c:238
          _exit (1);
20003b62:	2001      	movs	r0, #1
20003b64:	f7ff ffc7 	bl	20003af6 <_exit>
E:\Github_Repos\SF2_Eth_FFT\Softconsole\FFT_Accelerator\Debug/../firmware/CMSIS/startup_gcc/newlib_stubs.c:257
         * SmartFusion2 cache design.
         */
        extern char _eheap;     /* Defined by the linker */
        char *top_of_heap;
        
        top_of_heap = &_eheap;
20003b68:	4b11      	ldr	r3, [pc, #68]	; (20003bb0 <_sbrk+0x94>)
20003b6a:	60fb      	str	r3, [r7, #12]
E:\Github_Repos\SF2_Eth_FFT\Softconsole\FFT_Accelerator\Debug/../firmware/CMSIS/startup_gcc/newlib_stubs.c:258
        if(heap_end + incr  > top_of_heap)
20003b6c:	4b0d      	ldr	r3, [pc, #52]	; (20003ba4 <_sbrk+0x88>)
20003b6e:	681a      	ldr	r2, [r3, #0]
20003b70:	687b      	ldr	r3, [r7, #4]
20003b72:	4413      	add	r3, r2
20003b74:	68fa      	ldr	r2, [r7, #12]
20003b76:	429a      	cmp	r2, r3
20003b78:	d208      	bcs.n	20003b8c <_sbrk+0x70>
E:\Github_Repos\SF2_Eth_FFT\Softconsole\FFT_Accelerator\Debug/../firmware/CMSIS/startup_gcc/newlib_stubs.c:260
        {
          _write_r ((void *)0, 1, "Out of heap memory\n", 25);
20003b7a:	2319      	movs	r3, #25
20003b7c:	4a0d      	ldr	r2, [pc, #52]	; (20003bb4 <_sbrk+0x98>)
20003b7e:	2101      	movs	r1, #1
20003b80:	2000      	movs	r0, #0
20003b82:	f7ff ffbd 	bl	20003b00 <_write_r>
E:\Github_Repos\SF2_Eth_FFT\Softconsole\FFT_Accelerator\Debug/../firmware/CMSIS/startup_gcc/newlib_stubs.c:261
          _exit (1);
20003b86:	2001      	movs	r0, #1
20003b88:	f7ff ffb5 	bl	20003af6 <_exit>
E:\Github_Repos\SF2_Eth_FFT\Softconsole\FFT_Accelerator\Debug/../firmware/CMSIS/startup_gcc/newlib_stubs.c:265
        }
    }
  
    heap_end += incr;
20003b8c:	4b05      	ldr	r3, [pc, #20]	; (20003ba4 <_sbrk+0x88>)
20003b8e:	681a      	ldr	r2, [r3, #0]
20003b90:	687b      	ldr	r3, [r7, #4]
20003b92:	4413      	add	r3, r2
20003b94:	4a03      	ldr	r2, [pc, #12]	; (20003ba4 <_sbrk+0x88>)
20003b96:	6013      	str	r3, [r2, #0]
E:\Github_Repos\SF2_Eth_FFT\Softconsole\FFT_Accelerator\Debug/../firmware/CMSIS/startup_gcc/newlib_stubs.c:266
    return (caddr_t) prev_heap_end;
20003b98:	697b      	ldr	r3, [r7, #20]
E:\Github_Repos\SF2_Eth_FFT\Softconsole\FFT_Accelerator\Debug/../firmware/CMSIS/startup_gcc/newlib_stubs.c:267
}
20003b9a:	4618      	mov	r0, r3
20003b9c:	3718      	adds	r7, #24
20003b9e:	46bd      	mov	sp, r7
20003ba0:	bd80      	pop	{r7, pc}
20003ba2:	bf00      	nop
20003ba4:	20008110 	.word	0x20008110
20003ba8:	200081f0 	.word	0x200081f0
20003bac:	200049a0 	.word	0x200049a0
20003bb0:	2000f000 	.word	0x2000f000
20003bb4:	200049bc 	.word	0x200049bc

20003bb8 <SystemInit>:
SystemInit():
E:\Github_Repos\SF2_Eth_FFT\Softconsole\FFT_Accelerator\Debug/../firmware/CMSIS/system_m2sxxx.c:433

/***************************************************************************//**
 * See system_m2sxxx.h for details.
 */
void SystemInit(void)
{
20003bb8:	b580      	push	{r7, lr}
20003bba:	af00      	add	r7, sp, #0
E:\Github_Repos\SF2_Eth_FFT\Softconsole\FFT_Accelerator\Debug/../firmware/CMSIS/system_m2sxxx.c:456
     */
#if (MSS_SYS_FACC_INIT_BY_CORTEX == 1)
    complete_clock_config();
#endif

    silicon_workarounds();
20003bbc:	f000 f8f8 	bl	20003db0 <silicon_workarounds>
E:\Github_Repos\SF2_Eth_FFT\Softconsole\FFT_Accelerator\Debug/../firmware/CMSIS/system_m2sxxx.c:463
    /*--------------------------------------------------------------------------
     * Set STKALIGN to ensure exception stacking starts on 8 bytes address
     * boundary. This ensures compliance with the "Procedure Call Standards for
     * the ARM Architecture" (AAPCS).
     */
    SCB->CCR |= SCB_CCR_STKALIGN_Msk;
20003bc0:	4b04      	ldr	r3, [pc, #16]	; (20003bd4 <SystemInit+0x1c>)
20003bc2:	695b      	ldr	r3, [r3, #20]
20003bc4:	4a03      	ldr	r2, [pc, #12]	; (20003bd4 <SystemInit+0x1c>)
20003bc6:	f443 7300 	orr.w	r3, r3, #512	; 0x200
20003bca:	6153      	str	r3, [r2, #20]
E:\Github_Repos\SF2_Eth_FFT\Softconsole\FFT_Accelerator\Debug/../firmware/CMSIS/system_m2sxxx.c:492
#endif

    /*--------------------------------------------------------------------------
     * Call user defined configuration function.
     */
    mscc_post_hw_cfg_init();
20003bcc:	f7fc fc32 	bl	20000434 <mscc_post_hw_cfg_init>
E:\Github_Repos\SF2_Eth_FFT\Softconsole\FFT_Accelerator\Debug/../firmware/CMSIS/system_m2sxxx.c:539
    do
    {
        init_done = CORE_SF2_CFG->INIT_DONE & INIT_DONE_MASK;
    } while (0u == init_done);
#endif
}
20003bd0:	bf00      	nop
20003bd2:	bd80      	pop	{r7, pc}
20003bd4:	e000ed00 	.word	0xe000ed00

20003bd8 <SystemCoreClockUpdate>:
SystemCoreClockUpdate():
E:\Github_Repos\SF2_Eth_FFT\Softconsole\FFT_Accelerator\Debug/../firmware/CMSIS/system_m2sxxx.c:558
#define FREQ_1MHZ    1000000u
#define FREQ_25MHZ   25000000u
#define FREQ_50MHZ   50000000u

void SystemCoreClockUpdate(void)
{
20003bd8:	b580      	push	{r7, lr}
20003bda:	b088      	sub	sp, #32
20003bdc:	af00      	add	r7, sp, #0
E:\Github_Repos\SF2_Eth_FFT\Softconsole\FFT_Accelerator\Debug/../firmware/CMSIS/system_m2sxxx.c:562
    uint32_t controller_pll_init;
    uint32_t clk_src;

    controller_pll_init = SYSREG->MSSDDR_FACC1_CR & CONTROLLER_PLL_INIT_MASK;
20003bde:	4b30      	ldr	r3, [pc, #192]	; (20003ca0 <SystemCoreClockUpdate+0xc8>)
20003be0:	f8d3 3098 	ldr.w	r3, [r3, #152]	; 0x98
20003be4:	f003 6380 	and.w	r3, r3, #67108864	; 0x4000000
20003be8:	61fb      	str	r3, [r7, #28]
E:\Github_Repos\SF2_Eth_FFT\Softconsole\FFT_Accelerator\Debug/../firmware/CMSIS/system_m2sxxx.c:564

    if(0u == controller_pll_init)
20003bea:	69fb      	ldr	r3, [r7, #28]
20003bec:	2b00      	cmp	r3, #0
20003bee:	d14c      	bne.n	20003c8a <SystemCoreClockUpdate+0xb2>
E:\Github_Repos\SF2_Eth_FFT\Softconsole\FFT_Accelerator\Debug/../firmware/CMSIS/system_m2sxxx.c:569
    {
        /* Normal operations. */
        uint32_t global_mux_sel;

        global_mux_sel = SYSREG->MSSDDR_FACC1_CR & FACC_GLMUX_SEL_MASK;
20003bf0:	4b2b      	ldr	r3, [pc, #172]	; (20003ca0 <SystemCoreClockUpdate+0xc8>)
20003bf2:	f8d3 3098 	ldr.w	r3, [r3, #152]	; 0x98
20003bf6:	f403 5380 	and.w	r3, r3, #4096	; 0x1000
20003bfa:	61bb      	str	r3, [r7, #24]
E:\Github_Repos\SF2_Eth_FFT\Softconsole\FFT_Accelerator\Debug/../firmware/CMSIS/system_m2sxxx.c:570
        if(0u == global_mux_sel)
20003bfc:	69bb      	ldr	r3, [r7, #24]
20003bfe:	2b00      	cmp	r3, #0
20003c00:	d115      	bne.n	20003c2e <SystemCoreClockUpdate+0x56>
E:\Github_Repos\SF2_Eth_FFT\Softconsole\FFT_Accelerator\Debug/../firmware/CMSIS/system_m2sxxx.c:573
        {
            /* MSS clocked from MSS PLL. Use Libero flow defines. */
            SystemCoreClock = MSS_SYS_M3_CLK_FREQ;
20003c02:	4b28      	ldr	r3, [pc, #160]	; (20003ca4 <SystemCoreClockUpdate+0xcc>)
20003c04:	4a28      	ldr	r2, [pc, #160]	; (20003ca8 <SystemCoreClockUpdate+0xd0>)
20003c06:	601a      	str	r2, [r3, #0]
E:\Github_Repos\SF2_Eth_FFT\Softconsole\FFT_Accelerator\Debug/../firmware/CMSIS/system_m2sxxx.c:574
            g_FrequencyPCLK0 = MSS_SYS_APB_0_CLK_FREQ;
20003c08:	4b28      	ldr	r3, [pc, #160]	; (20003cac <SystemCoreClockUpdate+0xd4>)
20003c0a:	4a27      	ldr	r2, [pc, #156]	; (20003ca8 <SystemCoreClockUpdate+0xd0>)
20003c0c:	601a      	str	r2, [r3, #0]
E:\Github_Repos\SF2_Eth_FFT\Softconsole\FFT_Accelerator\Debug/../firmware/CMSIS/system_m2sxxx.c:575
            g_FrequencyPCLK1 = MSS_SYS_APB_1_CLK_FREQ;
20003c0e:	4b28      	ldr	r3, [pc, #160]	; (20003cb0 <SystemCoreClockUpdate+0xd8>)
20003c10:	4a25      	ldr	r2, [pc, #148]	; (20003ca8 <SystemCoreClockUpdate+0xd0>)
20003c12:	601a      	str	r2, [r3, #0]
E:\Github_Repos\SF2_Eth_FFT\Softconsole\FFT_Accelerator\Debug/../firmware/CMSIS/system_m2sxxx.c:576
            g_FrequencyPCLK2 = MSS_SYS_APB_2_CLK_FREQ;
20003c14:	4b27      	ldr	r3, [pc, #156]	; (20003cb4 <SystemCoreClockUpdate+0xdc>)
20003c16:	4a28      	ldr	r2, [pc, #160]	; (20003cb8 <SystemCoreClockUpdate+0xe0>)
20003c18:	601a      	str	r2, [r3, #0]
E:\Github_Repos\SF2_Eth_FFT\Softconsole\FFT_Accelerator\Debug/../firmware/CMSIS/system_m2sxxx.c:577
            g_FrequencyFIC0 = MSS_SYS_FIC_0_CLK_FREQ;
20003c1a:	4b28      	ldr	r3, [pc, #160]	; (20003cbc <SystemCoreClockUpdate+0xe4>)
20003c1c:	4a22      	ldr	r2, [pc, #136]	; (20003ca8 <SystemCoreClockUpdate+0xd0>)
20003c1e:	601a      	str	r2, [r3, #0]
E:\Github_Repos\SF2_Eth_FFT\Softconsole\FFT_Accelerator\Debug/../firmware/CMSIS/system_m2sxxx.c:578
            g_FrequencyFIC1 = MSS_SYS_FIC_1_CLK_FREQ;
20003c20:	4b27      	ldr	r3, [pc, #156]	; (20003cc0 <SystemCoreClockUpdate+0xe8>)
20003c22:	4a21      	ldr	r2, [pc, #132]	; (20003ca8 <SystemCoreClockUpdate+0xd0>)
20003c24:	601a      	str	r2, [r3, #0]
E:\Github_Repos\SF2_Eth_FFT\Softconsole\FFT_Accelerator\Debug/../firmware/CMSIS/system_m2sxxx.c:579
            g_FrequencyFIC64 = MSS_SYS_FIC64_CLK_FREQ;
20003c26:	4b27      	ldr	r3, [pc, #156]	; (20003cc4 <SystemCoreClockUpdate+0xec>)
20003c28:	4a1f      	ldr	r2, [pc, #124]	; (20003ca8 <SystemCoreClockUpdate+0xd0>)
20003c2a:	601a      	str	r2, [r3, #0]
E:\Github_Repos\SF2_Eth_FFT\Softconsole\FFT_Accelerator\Debug/../firmware/CMSIS/system_m2sxxx.c:627
    {
        /* PLL initialization mode. Running from 25/50MHZ RC oscillator. */
        clk_src = get_rcosc_25_50mhz_frequency();
        set_clock_frequency_globals(clk_src);
    }
}
20003c2c:	e034      	b.n	20003c98 <SystemCoreClockUpdate+0xc0>
E:\Github_Repos\SF2_Eth_FFT\Softconsole\FFT_Accelerator\Debug/../firmware/CMSIS/system_m2sxxx.c:584
            const uint8_t standby_clock_lut[8] = { RCOSC_25_50MHZ_CLK_SRC,
20003c2e:	4a26      	ldr	r2, [pc, #152]	; (20003cc8 <SystemCoreClockUpdate+0xf0>)
20003c30:	1d3b      	adds	r3, r7, #4
20003c32:	e892 0003 	ldmia.w	r2, {r0, r1}
20003c36:	e883 0003 	stmia.w	r3, {r0, r1}
E:\Github_Repos\SF2_Eth_FFT\Softconsole\FFT_Accelerator\Debug/../firmware/CMSIS/system_m2sxxx.c:596
            standby_sel = (SYSREG->MSSDDR_FACC2_CR >> FACC_STANDBY_SHIFT) & FACC_STANDBY_SEL_MASK;
20003c3a:	4b19      	ldr	r3, [pc, #100]	; (20003ca0 <SystemCoreClockUpdate+0xc8>)
20003c3c:	f8d3 309c 	ldr.w	r3, [r3, #156]	; 0x9c
20003c40:	099b      	lsrs	r3, r3, #6
20003c42:	f003 0307 	and.w	r3, r3, #7
20003c46:	617b      	str	r3, [r7, #20]
E:\Github_Repos\SF2_Eth_FFT\Softconsole\FFT_Accelerator\Debug/../firmware/CMSIS/system_m2sxxx.c:597
            clock_source = standby_clock_lut[standby_sel];
20003c48:	1d3a      	adds	r2, r7, #4
20003c4a:	697b      	ldr	r3, [r7, #20]
20003c4c:	4413      	add	r3, r2
20003c4e:	781b      	ldrb	r3, [r3, #0]
20003c50:	74fb      	strb	r3, [r7, #19]
E:\Github_Repos\SF2_Eth_FFT\Softconsole\FFT_Accelerator\Debug/../firmware/CMSIS/system_m2sxxx.c:598
            switch(clock_source)
20003c52:	7cfb      	ldrb	r3, [r7, #19]
20003c54:	2b01      	cmp	r3, #1
20003c56:	d00a      	beq.n	20003c6e <SystemCoreClockUpdate+0x96>
20003c58:	2b02      	cmp	r3, #2
20003c5a:	d00d      	beq.n	20003c78 <SystemCoreClockUpdate+0xa0>
20003c5c:	2b00      	cmp	r3, #0
20003c5e:	d10f      	bne.n	20003c80 <SystemCoreClockUpdate+0xa8>
E:\Github_Repos\SF2_Eth_FFT\Softconsole\FFT_Accelerator\Debug/../firmware/CMSIS/system_m2sxxx.c:601
                    clk_src = get_rcosc_25_50mhz_frequency();
20003c60:	f000 f836 	bl	20003cd0 <get_rcosc_25_50mhz_frequency>
20003c64:	60f8      	str	r0, [r7, #12]
E:\Github_Repos\SF2_Eth_FFT\Softconsole\FFT_Accelerator\Debug/../firmware/CMSIS/system_m2sxxx.c:602
                    set_clock_frequency_globals(clk_src);
20003c66:	68f8      	ldr	r0, [r7, #12]
20003c68:	f000 f850 	bl	20003d0c <set_clock_frequency_globals>
E:\Github_Repos\SF2_Eth_FFT\Softconsole\FFT_Accelerator\Debug/../firmware/CMSIS/system_m2sxxx.c:603
                break;
20003c6c:	e014      	b.n	20003c98 <SystemCoreClockUpdate+0xc0>
E:\Github_Repos\SF2_Eth_FFT\Softconsole\FFT_Accelerator\Debug/../firmware/CMSIS/system_m2sxxx.c:606
                    set_clock_frequency_globals(FREQ_32KHZ);
20003c6e:	f44f 4000 	mov.w	r0, #32768	; 0x8000
20003c72:	f000 f84b 	bl	20003d0c <set_clock_frequency_globals>
E:\Github_Repos\SF2_Eth_FFT\Softconsole\FFT_Accelerator\Debug/../firmware/CMSIS/system_m2sxxx.c:607
                break;
20003c76:	e00f      	b.n	20003c98 <SystemCoreClockUpdate+0xc0>
E:\Github_Repos\SF2_Eth_FFT\Softconsole\FFT_Accelerator\Debug/../firmware/CMSIS/system_m2sxxx.c:610
                    set_clock_frequency_globals(FREQ_1MHZ);
20003c78:	4814      	ldr	r0, [pc, #80]	; (20003ccc <SystemCoreClockUpdate+0xf4>)
20003c7a:	f000 f847 	bl	20003d0c <set_clock_frequency_globals>
E:\Github_Repos\SF2_Eth_FFT\Softconsole\FFT_Accelerator\Debug/../firmware/CMSIS/system_m2sxxx.c:611
                break;
20003c7e:	e00b      	b.n	20003c98 <SystemCoreClockUpdate+0xc0>
E:\Github_Repos\SF2_Eth_FFT\Softconsole\FFT_Accelerator\Debug/../firmware/CMSIS/system_m2sxxx.c:616
                    set_clock_frequency_globals(FREQ_1MHZ);
20003c80:	4812      	ldr	r0, [pc, #72]	; (20003ccc <SystemCoreClockUpdate+0xf4>)
20003c82:	f000 f843 	bl	20003d0c <set_clock_frequency_globals>
E:\Github_Repos\SF2_Eth_FFT\Softconsole\FFT_Accelerator\Debug/../firmware/CMSIS/system_m2sxxx.c:617
                break;
20003c86:	bf00      	nop
20003c88:	e006      	b.n	20003c98 <SystemCoreClockUpdate+0xc0>
E:\Github_Repos\SF2_Eth_FFT\Softconsole\FFT_Accelerator\Debug/../firmware/CMSIS/system_m2sxxx.c:624
        clk_src = get_rcosc_25_50mhz_frequency();
20003c8a:	f000 f821 	bl	20003cd0 <get_rcosc_25_50mhz_frequency>
20003c8e:	60f8      	str	r0, [r7, #12]
E:\Github_Repos\SF2_Eth_FFT\Softconsole\FFT_Accelerator\Debug/../firmware/CMSIS/system_m2sxxx.c:625
        set_clock_frequency_globals(clk_src);
20003c90:	68f8      	ldr	r0, [r7, #12]
20003c92:	f000 f83b 	bl	20003d0c <set_clock_frequency_globals>
E:\Github_Repos\SF2_Eth_FFT\Softconsole\FFT_Accelerator\Debug/../firmware/CMSIS/system_m2sxxx.c:627
}
20003c96:	e7ff      	b.n	20003c98 <SystemCoreClockUpdate+0xc0>
20003c98:	bf00      	nop
20003c9a:	3720      	adds	r7, #32
20003c9c:	46bd      	mov	sp, r7
20003c9e:	bd80      	pop	{r7, pc}
20003ca0:	40038000 	.word	0x40038000
20003ca4:	2000504c 	.word	0x2000504c
20003ca8:	05f5e100 	.word	0x05f5e100
20003cac:	20005050 	.word	0x20005050
20003cb0:	20005054 	.word	0x20005054
20003cb4:	20005058 	.word	0x20005058
20003cb8:	017d7840 	.word	0x017d7840
20003cbc:	2000505c 	.word	0x2000505c
20003cc0:	20005060 	.word	0x20005060
20003cc4:	20005064 	.word	0x20005064
20003cc8:	200049d0 	.word	0x200049d0
20003ccc:	000f4240 	.word	0x000f4240

20003cd0 <get_rcosc_25_50mhz_frequency>:
get_rcosc_25_50mhz_frequency():
E:\Github_Repos\SF2_Eth_FFT\Softconsole\FFT_Accelerator\Debug/../firmware/CMSIS/system_m2sxxx.c:633

/***************************************************************************//**
 * Find out frequency generated by the 25_50mhz RC osciallator.
 */
static uint32_t get_rcosc_25_50mhz_frequency(void)
{
20003cd0:	b480      	push	{r7}
20003cd2:	b083      	sub	sp, #12
20003cd4:	af00      	add	r7, sp, #0
E:\Github_Repos\SF2_Eth_FFT\Softconsole\FFT_Accelerator\Debug/../firmware/CMSIS/system_m2sxxx.c:637
    uint32_t rcosc_div2;
    uint32_t rcosc_frequency;

    rcosc_div2 = SYSREG->MSSDDR_PLL_STATUS & RCOSC_DIV2_MASK;
20003cd6:	4b0a      	ldr	r3, [pc, #40]	; (20003d00 <get_rcosc_25_50mhz_frequency+0x30>)
20003cd8:	f8d3 3150 	ldr.w	r3, [r3, #336]	; 0x150
20003cdc:	f003 0304 	and.w	r3, r3, #4
20003ce0:	603b      	str	r3, [r7, #0]
E:\Github_Repos\SF2_Eth_FFT\Softconsole\FFT_Accelerator\Debug/../firmware/CMSIS/system_m2sxxx.c:638
    if(0u == rcosc_div2)
20003ce2:	683b      	ldr	r3, [r7, #0]
20003ce4:	2b00      	cmp	r3, #0
20003ce6:	d102      	bne.n	20003cee <get_rcosc_25_50mhz_frequency+0x1e>
E:\Github_Repos\SF2_Eth_FFT\Softconsole\FFT_Accelerator\Debug/../firmware/CMSIS/system_m2sxxx.c:641
    {
        /* 25_50mhz oscillator is configured for 25 MHz operations. */
        rcosc_frequency = FREQ_25MHZ;
20003ce8:	4b06      	ldr	r3, [pc, #24]	; (20003d04 <get_rcosc_25_50mhz_frequency+0x34>)
20003cea:	607b      	str	r3, [r7, #4]
20003cec:	e001      	b.n	20003cf2 <get_rcosc_25_50mhz_frequency+0x22>
E:\Github_Repos\SF2_Eth_FFT\Softconsole\FFT_Accelerator\Debug/../firmware/CMSIS/system_m2sxxx.c:646
    }
    else
    {
        /* 25_50mhz oscillator is configured for 50 MHz operations. */
        rcosc_frequency = FREQ_50MHZ;
20003cee:	4b06      	ldr	r3, [pc, #24]	; (20003d08 <get_rcosc_25_50mhz_frequency+0x38>)
20003cf0:	607b      	str	r3, [r7, #4]
E:\Github_Repos\SF2_Eth_FFT\Softconsole\FFT_Accelerator\Debug/../firmware/CMSIS/system_m2sxxx.c:649
    }

    return rcosc_frequency;
20003cf2:	687b      	ldr	r3, [r7, #4]
E:\Github_Repos\SF2_Eth_FFT\Softconsole\FFT_Accelerator\Debug/../firmware/CMSIS/system_m2sxxx.c:650
}
20003cf4:	4618      	mov	r0, r3
20003cf6:	370c      	adds	r7, #12
20003cf8:	46bd      	mov	sp, r7
20003cfa:	bc80      	pop	{r7}
20003cfc:	4770      	bx	lr
20003cfe:	bf00      	nop
20003d00:	40038000 	.word	0x40038000
20003d04:	017d7840 	.word	0x017d7840
20003d08:	02faf080 	.word	0x02faf080

20003d0c <set_clock_frequency_globals>:
set_clock_frequency_globals():
E:\Github_Repos\SF2_Eth_FFT\Softconsole\FFT_Accelerator\Debug/../firmware/CMSIS/system_m2sxxx.c:665
        - g_FrequencyFIC0
        - g_FrequencyFIC1
        - g_FrequencyFIC64
 */
static void set_clock_frequency_globals(uint32_t standby_clk)
{
20003d0c:	b480      	push	{r7}
20003d0e:	b083      	sub	sp, #12
20003d10:	af00      	add	r7, sp, #0
20003d12:	6078      	str	r0, [r7, #4]
E:\Github_Repos\SF2_Eth_FFT\Softconsole\FFT_Accelerator\Debug/../firmware/CMSIS/system_m2sxxx.c:666
    SystemCoreClock = standby_clk;
20003d14:	4a0c      	ldr	r2, [pc, #48]	; (20003d48 <set_clock_frequency_globals+0x3c>)
20003d16:	687b      	ldr	r3, [r7, #4]
20003d18:	6013      	str	r3, [r2, #0]
E:\Github_Repos\SF2_Eth_FFT\Softconsole\FFT_Accelerator\Debug/../firmware/CMSIS/system_m2sxxx.c:667
    g_FrequencyPCLK0 = standby_clk;
20003d1a:	4a0c      	ldr	r2, [pc, #48]	; (20003d4c <set_clock_frequency_globals+0x40>)
20003d1c:	687b      	ldr	r3, [r7, #4]
20003d1e:	6013      	str	r3, [r2, #0]
E:\Github_Repos\SF2_Eth_FFT\Softconsole\FFT_Accelerator\Debug/../firmware/CMSIS/system_m2sxxx.c:668
    g_FrequencyPCLK1 = standby_clk;
20003d20:	4a0b      	ldr	r2, [pc, #44]	; (20003d50 <set_clock_frequency_globals+0x44>)
20003d22:	687b      	ldr	r3, [r7, #4]
20003d24:	6013      	str	r3, [r2, #0]
E:\Github_Repos\SF2_Eth_FFT\Softconsole\FFT_Accelerator\Debug/../firmware/CMSIS/system_m2sxxx.c:669
    g_FrequencyPCLK2 = MSS_SYS_APB_2_CLK_FREQ;
20003d26:	4b0b      	ldr	r3, [pc, #44]	; (20003d54 <set_clock_frequency_globals+0x48>)
20003d28:	4a0b      	ldr	r2, [pc, #44]	; (20003d58 <set_clock_frequency_globals+0x4c>)
20003d2a:	601a      	str	r2, [r3, #0]
E:\Github_Repos\SF2_Eth_FFT\Softconsole\FFT_Accelerator\Debug/../firmware/CMSIS/system_m2sxxx.c:670
    g_FrequencyFIC0 = standby_clk;
20003d2c:	4a0b      	ldr	r2, [pc, #44]	; (20003d5c <set_clock_frequency_globals+0x50>)
20003d2e:	687b      	ldr	r3, [r7, #4]
20003d30:	6013      	str	r3, [r2, #0]
E:\Github_Repos\SF2_Eth_FFT\Softconsole\FFT_Accelerator\Debug/../firmware/CMSIS/system_m2sxxx.c:671
    g_FrequencyFIC1 = standby_clk;
20003d32:	4a0b      	ldr	r2, [pc, #44]	; (20003d60 <set_clock_frequency_globals+0x54>)
20003d34:	687b      	ldr	r3, [r7, #4]
20003d36:	6013      	str	r3, [r2, #0]
E:\Github_Repos\SF2_Eth_FFT\Softconsole\FFT_Accelerator\Debug/../firmware/CMSIS/system_m2sxxx.c:672
    g_FrequencyFIC64 = standby_clk;
20003d38:	4a0a      	ldr	r2, [pc, #40]	; (20003d64 <set_clock_frequency_globals+0x58>)
20003d3a:	687b      	ldr	r3, [r7, #4]
20003d3c:	6013      	str	r3, [r2, #0]
E:\Github_Repos\SF2_Eth_FFT\Softconsole\FFT_Accelerator\Debug/../firmware/CMSIS/system_m2sxxx.c:673
}
20003d3e:	bf00      	nop
20003d40:	370c      	adds	r7, #12
20003d42:	46bd      	mov	sp, r7
20003d44:	bc80      	pop	{r7}
20003d46:	4770      	bx	lr
20003d48:	2000504c 	.word	0x2000504c
20003d4c:	20005050 	.word	0x20005050
20003d50:	20005054 	.word	0x20005054
20003d54:	20005058 	.word	0x20005058
20003d58:	017d7840 	.word	0x017d7840
20003d5c:	2000505c 	.word	0x2000505c
20003d60:	20005060 	.word	0x20005060
20003d64:	20005064 	.word	0x20005064

20003d68 <get_silicon_revision>:
get_silicon_revision():
E:\Github_Repos\SF2_Eth_FFT\Softconsole\FFT_Accelerator\Debug/../firmware/CMSIS/system_m2sxxx.c:916

/*------------------------------------------------------------------------------
  Retrieve silicon revision from system registers.
 */
static uint32_t get_silicon_revision(void)
{
20003d68:	b480      	push	{r7}
20003d6a:	b083      	sub	sp, #12
20003d6c:	af00      	add	r7, sp, #0
E:\Github_Repos\SF2_Eth_FFT\Softconsole\FFT_Accelerator\Debug/../firmware/CMSIS/system_m2sxxx.c:920
    uint32_t silicon_revision;
    uint32_t device_version;

    device_version = SYSREG->DEVICE_VERSION;
20003d6e:	4b0e      	ldr	r3, [pc, #56]	; (20003da8 <get_silicon_revision+0x40>)
20003d70:	f8d3 314c 	ldr.w	r3, [r3, #332]	; 0x14c
20003d74:	603b      	str	r3, [r7, #0]
E:\Github_Repos\SF2_Eth_FFT\Softconsole\FFT_Accelerator\Debug/../firmware/CMSIS/system_m2sxxx.c:921
    switch(device_version)
20003d76:	683b      	ldr	r3, [r7, #0]
20003d78:	f64f 0202 	movw	r2, #63490	; 0xf802
20003d7c:	4293      	cmp	r3, r2
20003d7e:	d004      	beq.n	20003d8a <get_silicon_revision+0x22>
20003d80:	683b      	ldr	r3, [r7, #0]
20003d82:	4a0a      	ldr	r2, [pc, #40]	; (20003dac <get_silicon_revision+0x44>)
20003d84:	4293      	cmp	r3, r2
20003d86:	d003      	beq.n	20003d90 <get_silicon_revision+0x28>
20003d88:	e005      	b.n	20003d96 <get_silicon_revision+0x2e>
E:\Github_Repos\SF2_Eth_FFT\Softconsole\FFT_Accelerator\Debug/../firmware/CMSIS/system_m2sxxx.c:924
    {
        case 0x0000F802:
            silicon_revision = M2S050_REV_A_SILICON;
20003d8a:	2301      	movs	r3, #1
20003d8c:	607b      	str	r3, [r7, #4]
E:\Github_Repos\SF2_Eth_FFT\Softconsole\FFT_Accelerator\Debug/../firmware/CMSIS/system_m2sxxx.c:925
            break;
20003d8e:	e005      	b.n	20003d9c <get_silicon_revision+0x34>
E:\Github_Repos\SF2_Eth_FFT\Softconsole\FFT_Accelerator\Debug/../firmware/CMSIS/system_m2sxxx.c:928

        case 0x0001F802:
            silicon_revision = M2S050_REV_B_SILICON;
20003d90:	2302      	movs	r3, #2
20003d92:	607b      	str	r3, [r7, #4]
E:\Github_Repos\SF2_Eth_FFT\Softconsole\FFT_Accelerator\Debug/../firmware/CMSIS/system_m2sxxx.c:929
            break;
20003d94:	e002      	b.n	20003d9c <get_silicon_revision+0x34>
E:\Github_Repos\SF2_Eth_FFT\Softconsole\FFT_Accelerator\Debug/../firmware/CMSIS/system_m2sxxx.c:932

        default:
            silicon_revision = UNKNOWN_SILICON_REV;
20003d96:	2300      	movs	r3, #0
20003d98:	607b      	str	r3, [r7, #4]
E:\Github_Repos\SF2_Eth_FFT\Softconsole\FFT_Accelerator\Debug/../firmware/CMSIS/system_m2sxxx.c:933
            break;
20003d9a:	bf00      	nop
E:\Github_Repos\SF2_Eth_FFT\Softconsole\FFT_Accelerator\Debug/../firmware/CMSIS/system_m2sxxx.c:936
    }

    return silicon_revision;
20003d9c:	687b      	ldr	r3, [r7, #4]
E:\Github_Repos\SF2_Eth_FFT\Softconsole\FFT_Accelerator\Debug/../firmware/CMSIS/system_m2sxxx.c:937
}
20003d9e:	4618      	mov	r0, r3
20003da0:	370c      	adds	r7, #12
20003da2:	46bd      	mov	sp, r7
20003da4:	bc80      	pop	{r7}
20003da6:	4770      	bx	lr
20003da8:	40038000 	.word	0x40038000
20003dac:	0001f802 	.word	0x0001f802

20003db0 <silicon_workarounds>:
silicon_workarounds():
E:\Github_Repos\SF2_Eth_FFT\Softconsole\FFT_Accelerator\Debug/../firmware/CMSIS/system_m2sxxx.c:943

/*------------------------------------------------------------------------------
  Workarounds for various silicon versions.
 */
static void silicon_workarounds(void)
{
20003db0:	b580      	push	{r7, lr}
20003db2:	b082      	sub	sp, #8
20003db4:	af00      	add	r7, sp, #0
E:\Github_Repos\SF2_Eth_FFT\Softconsole\FFT_Accelerator\Debug/../firmware/CMSIS/system_m2sxxx.c:946
    uint32_t silicon_revision;

    silicon_revision = get_silicon_revision();
20003db6:	f7ff ffd7 	bl	20003d68 <get_silicon_revision>
20003dba:	6078      	str	r0, [r7, #4]
E:\Github_Repos\SF2_Eth_FFT\Softconsole\FFT_Accelerator\Debug/../firmware/CMSIS/system_m2sxxx.c:948

    switch(silicon_revision)
20003dbc:	687b      	ldr	r3, [r7, #4]
20003dbe:	2b01      	cmp	r3, #1
20003dc0:	d102      	bne.n	20003dc8 <silicon_workarounds+0x18>
E:\Github_Repos\SF2_Eth_FFT\Softconsole\FFT_Accelerator\Debug/../firmware/CMSIS/system_m2sxxx.c:951
    {
        case M2S050_REV_A_SILICON:
            m2s050_rev_a_workarounds();
20003dc2:	f000 f807 	bl	20003dd4 <m2s050_rev_a_workarounds>
E:\Github_Repos\SF2_Eth_FFT\Softconsole\FFT_Accelerator\Debug/../firmware/CMSIS/system_m2sxxx.c:952
            break;
20003dc6:	e000      	b.n	20003dca <silicon_workarounds+0x1a>
E:\Github_Repos\SF2_Eth_FFT\Softconsole\FFT_Accelerator\Debug/../firmware/CMSIS/system_m2sxxx.c:959
        case M2S050_REV_B_SILICON:
            /* Fall through. */
        case UNKNOWN_SILICON_REV:
            /* Fall through. */
        default:
            break;
20003dc8:	bf00      	nop
E:\Github_Repos\SF2_Eth_FFT\Softconsole\FFT_Accelerator\Debug/../firmware/CMSIS/system_m2sxxx.c:961
    }
}
20003dca:	bf00      	nop
20003dcc:	3708      	adds	r7, #8
20003dce:	46bd      	mov	sp, r7
20003dd0:	bd80      	pop	{r7, pc}
	...

20003dd4 <m2s050_rev_a_workarounds>:
m2s050_rev_a_workarounds():
E:\Github_Repos\SF2_Eth_FFT\Softconsole\FFT_Accelerator\Debug/../firmware/CMSIS/system_m2sxxx.c:967

/*------------------------------------------------------------------------------
  Silicon workarounds for M2S050 rev A.
 */
static void m2s050_rev_a_workarounds(void)
{
20003dd4:	b480      	push	{r7}
20003dd6:	af00      	add	r7, sp, #0
E:\Github_Repos\SF2_Eth_FFT\Softconsole\FFT_Accelerator\Debug/../firmware/CMSIS/system_m2sxxx.c:972
    /*--------------------------------------------------------------------------
     * Work around a couple of silicon issues:
     */
    /* DDR_CLK_EN <- 1 */
    SYSREG->MSSDDR_FACC1_CR |= (uint32_t)1 << DDR_CLK_EN_SHIFT;
20003dd8:	4b09      	ldr	r3, [pc, #36]	; (20003e00 <m2s050_rev_a_workarounds+0x2c>)
20003dda:	f8d3 3098 	ldr.w	r3, [r3, #152]	; 0x98
20003dde:	4a08      	ldr	r2, [pc, #32]	; (20003e00 <m2s050_rev_a_workarounds+0x2c>)
20003de0:	f443 7380 	orr.w	r3, r3, #256	; 0x100
20003de4:	f8c2 3098 	str.w	r3, [r2, #152]	; 0x98
E:\Github_Repos\SF2_Eth_FFT\Softconsole\FFT_Accelerator\Debug/../firmware/CMSIS/system_m2sxxx.c:975

    /* CONTROLLER_PLL_INIT <- 0 */
    SYSREG->MSSDDR_FACC1_CR = SYSREG->MSSDDR_FACC1_CR & ~CONTROLLER_PLL_INIT_MASK;
20003de8:	4b05      	ldr	r3, [pc, #20]	; (20003e00 <m2s050_rev_a_workarounds+0x2c>)
20003dea:	f8d3 3098 	ldr.w	r3, [r3, #152]	; 0x98
20003dee:	4a04      	ldr	r2, [pc, #16]	; (20003e00 <m2s050_rev_a_workarounds+0x2c>)
20003df0:	f023 6380 	bic.w	r3, r3, #67108864	; 0x4000000
20003df4:	f8c2 3098 	str.w	r3, [r2, #152]	; 0x98
E:\Github_Repos\SF2_Eth_FFT\Softconsole\FFT_Accelerator\Debug/../firmware/CMSIS/system_m2sxxx.c:976
}
20003df8:	bf00      	nop
20003dfa:	46bd      	mov	sp, r7
20003dfc:	bc80      	pop	{r7}
20003dfe:	4770      	bx	lr
20003e00:	40038000 	.word	0x40038000

20003e04 <__libc_init_array>:
__libc_init_array():
20003e04:	b570      	push	{r4, r5, r6, lr}
20003e06:	2600      	movs	r6, #0
20003e08:	4d0c      	ldr	r5, [pc, #48]	; (20003e3c <__libc_init_array+0x38>)
20003e0a:	4c0d      	ldr	r4, [pc, #52]	; (20003e40 <__libc_init_array+0x3c>)
20003e0c:	1b64      	subs	r4, r4, r5
20003e0e:	10a4      	asrs	r4, r4, #2
20003e10:	42a6      	cmp	r6, r4
20003e12:	d109      	bne.n	20003e28 <__libc_init_array+0x24>
20003e14:	f000 fdfa 	bl	20004a0c <_init>
20003e18:	2600      	movs	r6, #0
20003e1a:	4d0a      	ldr	r5, [pc, #40]	; (20003e44 <__libc_init_array+0x40>)
20003e1c:	4c0a      	ldr	r4, [pc, #40]	; (20003e48 <__libc_init_array+0x44>)
20003e1e:	1b64      	subs	r4, r4, r5
20003e20:	10a4      	asrs	r4, r4, #2
20003e22:	42a6      	cmp	r6, r4
20003e24:	d105      	bne.n	20003e32 <__libc_init_array+0x2e>
20003e26:	bd70      	pop	{r4, r5, r6, pc}
20003e28:	f855 3b04 	ldr.w	r3, [r5], #4
20003e2c:	4798      	blx	r3
20003e2e:	3601      	adds	r6, #1
20003e30:	e7ee      	b.n	20003e10 <__libc_init_array+0xc>
20003e32:	f855 3b04 	ldr.w	r3, [r5], #4
20003e36:	4798      	blx	r3
20003e38:	3601      	adds	r6, #1
20003e3a:	e7f2      	b.n	20003e22 <__libc_init_array+0x1e>
20003e3c:	20004a24 	.word	0x20004a24
20003e40:	20004a24 	.word	0x20004a24
20003e44:	20004a24 	.word	0x20004a24
20003e48:	20004a28 	.word	0x20004a28

20003e4c <memcpy>:
memcpy():
20003e4c:	440a      	add	r2, r1
20003e4e:	4291      	cmp	r1, r2
20003e50:	f100 33ff 	add.w	r3, r0, #4294967295
20003e54:	d100      	bne.n	20003e58 <memcpy+0xc>
20003e56:	4770      	bx	lr
20003e58:	b510      	push	{r4, lr}
20003e5a:	f811 4b01 	ldrb.w	r4, [r1], #1
20003e5e:	4291      	cmp	r1, r2
20003e60:	f803 4f01 	strb.w	r4, [r3, #1]!
20003e64:	d1f9      	bne.n	20003e5a <memcpy+0xe>
20003e66:	bd10      	pop	{r4, pc}

20003e68 <sniprintf>:
sniprintf():
20003e68:	b40c      	push	{r2, r3}
20003e6a:	b530      	push	{r4, r5, lr}
20003e6c:	4b17      	ldr	r3, [pc, #92]	; (20003ecc <sniprintf+0x64>)
20003e6e:	1e0c      	subs	r4, r1, #0
20003e70:	b09d      	sub	sp, #116	; 0x74
20003e72:	681d      	ldr	r5, [r3, #0]
20003e74:	da08      	bge.n	20003e88 <sniprintf+0x20>
20003e76:	238b      	movs	r3, #139	; 0x8b
20003e78:	f04f 30ff 	mov.w	r0, #4294967295
20003e7c:	602b      	str	r3, [r5, #0]
20003e7e:	b01d      	add	sp, #116	; 0x74
20003e80:	e8bd 4030 	ldmia.w	sp!, {r4, r5, lr}
20003e84:	b002      	add	sp, #8
20003e86:	4770      	bx	lr
20003e88:	f44f 7302 	mov.w	r3, #520	; 0x208
20003e8c:	f8ad 3014 	strh.w	r3, [sp, #20]
20003e90:	bf0c      	ite	eq
20003e92:	4623      	moveq	r3, r4
20003e94:	f104 33ff 	addne.w	r3, r4, #4294967295
20003e98:	9304      	str	r3, [sp, #16]
20003e9a:	9307      	str	r3, [sp, #28]
20003e9c:	f64f 73ff 	movw	r3, #65535	; 0xffff
20003ea0:	9002      	str	r0, [sp, #8]
20003ea2:	9006      	str	r0, [sp, #24]
20003ea4:	f8ad 3016 	strh.w	r3, [sp, #22]
20003ea8:	9a20      	ldr	r2, [sp, #128]	; 0x80
20003eaa:	ab21      	add	r3, sp, #132	; 0x84
20003eac:	a902      	add	r1, sp, #8
20003eae:	4628      	mov	r0, r5
20003eb0:	9301      	str	r3, [sp, #4]
20003eb2:	f000 f869 	bl	20003f88 <_svfiprintf_r>
20003eb6:	1c43      	adds	r3, r0, #1
20003eb8:	bfbc      	itt	lt
20003eba:	238b      	movlt	r3, #139	; 0x8b
20003ebc:	602b      	strlt	r3, [r5, #0]
20003ebe:	2c00      	cmp	r4, #0
20003ec0:	d0dd      	beq.n	20003e7e <sniprintf+0x16>
20003ec2:	2200      	movs	r2, #0
20003ec4:	9b02      	ldr	r3, [sp, #8]
20003ec6:	701a      	strb	r2, [r3, #0]
20003ec8:	e7d9      	b.n	20003e7e <sniprintf+0x16>
20003eca:	bf00      	nop
20003ecc:	20005068 	.word	0x20005068

20003ed0 <__ssputs_r>:
__ssputs_r():
20003ed0:	e92d 47f0 	stmdb	sp!, {r4, r5, r6, r7, r8, r9, sl, lr}
20003ed4:	688e      	ldr	r6, [r1, #8]
20003ed6:	4682      	mov	sl, r0
20003ed8:	429e      	cmp	r6, r3
20003eda:	460c      	mov	r4, r1
20003edc:	4691      	mov	r9, r2
20003ede:	4698      	mov	r8, r3
20003ee0:	d838      	bhi.n	20003f54 <__ssputs_r+0x84>
20003ee2:	f8b1 c00c 	ldrh.w	ip, [r1, #12]
20003ee6:	f41c 6f90 	tst.w	ip, #1152	; 0x480
20003eea:	d031      	beq.n	20003f50 <__ssputs_r+0x80>
20003eec:	6962      	ldr	r2, [r4, #20]
20003eee:	6825      	ldr	r5, [r4, #0]
20003ef0:	6909      	ldr	r1, [r1, #16]
20003ef2:	eb02 0242 	add.w	r2, r2, r2, lsl #1
20003ef6:	1a6f      	subs	r7, r5, r1
20003ef8:	eb02 72d2 	add.w	r2, r2, r2, lsr #31
20003efc:	3301      	adds	r3, #1
20003efe:	1055      	asrs	r5, r2, #1
20003f00:	443b      	add	r3, r7
20003f02:	429d      	cmp	r5, r3
20003f04:	bf38      	it	cc
20003f06:	461d      	movcc	r5, r3
20003f08:	f41c 6f80 	tst.w	ip, #1024	; 0x400
20003f0c:	d030      	beq.n	20003f70 <__ssputs_r+0xa0>
20003f0e:	4629      	mov	r1, r5
20003f10:	f000 fb32 	bl	20004578 <_malloc_r>
20003f14:	4606      	mov	r6, r0
20003f16:	b950      	cbnz	r0, 20003f2e <__ssputs_r+0x5e>
20003f18:	230c      	movs	r3, #12
20003f1a:	f04f 30ff 	mov.w	r0, #4294967295
20003f1e:	f8ca 3000 	str.w	r3, [sl]
20003f22:	89a3      	ldrh	r3, [r4, #12]
20003f24:	f043 0340 	orr.w	r3, r3, #64	; 0x40
20003f28:	81a3      	strh	r3, [r4, #12]
20003f2a:	e8bd 87f0 	ldmia.w	sp!, {r4, r5, r6, r7, r8, r9, sl, pc}
20003f2e:	463a      	mov	r2, r7
20003f30:	6921      	ldr	r1, [r4, #16]
20003f32:	f7ff ff8b 	bl	20003e4c <memcpy>
20003f36:	89a3      	ldrh	r3, [r4, #12]
20003f38:	f423 6390 	bic.w	r3, r3, #1152	; 0x480
20003f3c:	f043 0380 	orr.w	r3, r3, #128	; 0x80
20003f40:	81a3      	strh	r3, [r4, #12]
20003f42:	6126      	str	r6, [r4, #16]
20003f44:	443e      	add	r6, r7
20003f46:	6026      	str	r6, [r4, #0]
20003f48:	4646      	mov	r6, r8
20003f4a:	6165      	str	r5, [r4, #20]
20003f4c:	1bed      	subs	r5, r5, r7
20003f4e:	60a5      	str	r5, [r4, #8]
20003f50:	4546      	cmp	r6, r8
20003f52:	d900      	bls.n	20003f56 <__ssputs_r+0x86>
20003f54:	4646      	mov	r6, r8
20003f56:	4632      	mov	r2, r6
20003f58:	4649      	mov	r1, r9
20003f5a:	6820      	ldr	r0, [r4, #0]
20003f5c:	f000 faa6 	bl	200044ac <memmove>
20003f60:	68a3      	ldr	r3, [r4, #8]
20003f62:	2000      	movs	r0, #0
20003f64:	1b9b      	subs	r3, r3, r6
20003f66:	60a3      	str	r3, [r4, #8]
20003f68:	6823      	ldr	r3, [r4, #0]
20003f6a:	441e      	add	r6, r3
20003f6c:	6026      	str	r6, [r4, #0]
20003f6e:	e7dc      	b.n	20003f2a <__ssputs_r+0x5a>
20003f70:	462a      	mov	r2, r5
20003f72:	f000 fb5b 	bl	2000462c <_realloc_r>
20003f76:	4606      	mov	r6, r0
20003f78:	2800      	cmp	r0, #0
20003f7a:	d1e2      	bne.n	20003f42 <__ssputs_r+0x72>
20003f7c:	6921      	ldr	r1, [r4, #16]
20003f7e:	4650      	mov	r0, sl
20003f80:	f000 faae 	bl	200044e0 <_free_r>
20003f84:	e7c8      	b.n	20003f18 <__ssputs_r+0x48>
	...

20003f88 <_svfiprintf_r>:
_svfiprintf_r():
20003f88:	e92d 4ff0 	stmdb	sp!, {r4, r5, r6, r7, r8, r9, sl, fp, lr}
20003f8c:	461e      	mov	r6, r3
20003f8e:	898b      	ldrh	r3, [r1, #12]
20003f90:	b09d      	sub	sp, #116	; 0x74
20003f92:	061b      	lsls	r3, r3, #24
20003f94:	4607      	mov	r7, r0
20003f96:	460d      	mov	r5, r1
20003f98:	4614      	mov	r4, r2
20003f9a:	d50e      	bpl.n	20003fba <_svfiprintf_r+0x32>
20003f9c:	690b      	ldr	r3, [r1, #16]
20003f9e:	b963      	cbnz	r3, 20003fba <_svfiprintf_r+0x32>
20003fa0:	2140      	movs	r1, #64	; 0x40
20003fa2:	f000 fae9 	bl	20004578 <_malloc_r>
20003fa6:	6028      	str	r0, [r5, #0]
20003fa8:	6128      	str	r0, [r5, #16]
20003faa:	b920      	cbnz	r0, 20003fb6 <_svfiprintf_r+0x2e>
20003fac:	230c      	movs	r3, #12
20003fae:	603b      	str	r3, [r7, #0]
20003fb0:	f04f 30ff 	mov.w	r0, #4294967295
20003fb4:	e0c9      	b.n	2000414a <_svfiprintf_r+0x1c2>
20003fb6:	2340      	movs	r3, #64	; 0x40
20003fb8:	616b      	str	r3, [r5, #20]
20003fba:	2300      	movs	r3, #0
20003fbc:	9309      	str	r3, [sp, #36]	; 0x24
20003fbe:	2320      	movs	r3, #32
20003fc0:	f88d 3029 	strb.w	r3, [sp, #41]	; 0x29
20003fc4:	2330      	movs	r3, #48	; 0x30
20003fc6:	f04f 0a01 	mov.w	sl, #1
20003fca:	f8df 9198 	ldr.w	r9, [pc, #408]	; 20004164 <_svfiprintf_r+0x1dc>
20003fce:	f88d 302a 	strb.w	r3, [sp, #42]	; 0x2a
20003fd2:	9603      	str	r6, [sp, #12]
20003fd4:	4623      	mov	r3, r4
20003fd6:	461e      	mov	r6, r3
20003fd8:	f813 2b01 	ldrb.w	r2, [r3], #1
20003fdc:	b10a      	cbz	r2, 20003fe2 <_svfiprintf_r+0x5a>
20003fde:	2a25      	cmp	r2, #37	; 0x25
20003fe0:	d1f9      	bne.n	20003fd6 <_svfiprintf_r+0x4e>
20003fe2:	ebb6 0b04 	subs.w	fp, r6, r4
20003fe6:	d00b      	beq.n	20004000 <_svfiprintf_r+0x78>
20003fe8:	465b      	mov	r3, fp
20003fea:	4622      	mov	r2, r4
20003fec:	4629      	mov	r1, r5
20003fee:	4638      	mov	r0, r7
20003ff0:	f7ff ff6e 	bl	20003ed0 <__ssputs_r>
20003ff4:	3001      	adds	r0, #1
20003ff6:	f000 80a3 	beq.w	20004140 <_svfiprintf_r+0x1b8>
20003ffa:	9b09      	ldr	r3, [sp, #36]	; 0x24
20003ffc:	445b      	add	r3, fp
20003ffe:	9309      	str	r3, [sp, #36]	; 0x24
20004000:	7833      	ldrb	r3, [r6, #0]
20004002:	2b00      	cmp	r3, #0
20004004:	f000 809c 	beq.w	20004140 <_svfiprintf_r+0x1b8>
20004008:	2300      	movs	r3, #0
2000400a:	f04f 32ff 	mov.w	r2, #4294967295
2000400e:	e9cd 2305 	strd	r2, r3, [sp, #20]
20004012:	3601      	adds	r6, #1
20004014:	9304      	str	r3, [sp, #16]
20004016:	9307      	str	r3, [sp, #28]
20004018:	f88d 3053 	strb.w	r3, [sp, #83]	; 0x53
2000401c:	931a      	str	r3, [sp, #104]	; 0x68
2000401e:	4634      	mov	r4, r6
20004020:	2205      	movs	r2, #5
20004022:	f814 1b01 	ldrb.w	r1, [r4], #1
20004026:	484f      	ldr	r0, [pc, #316]	; (20004164 <_svfiprintf_r+0x1dc>)
20004028:	f000 fa32 	bl	20004490 <memchr>
2000402c:	9b04      	ldr	r3, [sp, #16]
2000402e:	b9c0      	cbnz	r0, 20004062 <_svfiprintf_r+0xda>
20004030:	06d9      	lsls	r1, r3, #27
20004032:	bf44      	itt	mi
20004034:	2220      	movmi	r2, #32
20004036:	f88d 2053 	strbmi.w	r2, [sp, #83]	; 0x53
2000403a:	071a      	lsls	r2, r3, #28
2000403c:	bf44      	itt	mi
2000403e:	222b      	movmi	r2, #43	; 0x2b
20004040:	f88d 2053 	strbmi.w	r2, [sp, #83]	; 0x53
20004044:	7832      	ldrb	r2, [r6, #0]
20004046:	2a2a      	cmp	r2, #42	; 0x2a
20004048:	d013      	beq.n	20004072 <_svfiprintf_r+0xea>
2000404a:	4634      	mov	r4, r6
2000404c:	2000      	movs	r0, #0
2000404e:	260a      	movs	r6, #10
20004050:	9a07      	ldr	r2, [sp, #28]
20004052:	4621      	mov	r1, r4
20004054:	f811 3b01 	ldrb.w	r3, [r1], #1
20004058:	3b30      	subs	r3, #48	; 0x30
2000405a:	2b09      	cmp	r3, #9
2000405c:	d94b      	bls.n	200040f6 <_svfiprintf_r+0x16e>
2000405e:	b970      	cbnz	r0, 2000407e <_svfiprintf_r+0xf6>
20004060:	e014      	b.n	2000408c <_svfiprintf_r+0x104>
20004062:	eba0 0009 	sub.w	r0, r0, r9
20004066:	fa0a f000 	lsl.w	r0, sl, r0
2000406a:	4318      	orrs	r0, r3
2000406c:	9004      	str	r0, [sp, #16]
2000406e:	4626      	mov	r6, r4
20004070:	e7d5      	b.n	2000401e <_svfiprintf_r+0x96>
20004072:	9a03      	ldr	r2, [sp, #12]
20004074:	1d11      	adds	r1, r2, #4
20004076:	6812      	ldr	r2, [r2, #0]
20004078:	9103      	str	r1, [sp, #12]
2000407a:	2a00      	cmp	r2, #0
2000407c:	db01      	blt.n	20004082 <_svfiprintf_r+0xfa>
2000407e:	9207      	str	r2, [sp, #28]
20004080:	e004      	b.n	2000408c <_svfiprintf_r+0x104>
20004082:	4252      	negs	r2, r2
20004084:	f043 0302 	orr.w	r3, r3, #2
20004088:	9207      	str	r2, [sp, #28]
2000408a:	9304      	str	r3, [sp, #16]
2000408c:	7823      	ldrb	r3, [r4, #0]
2000408e:	2b2e      	cmp	r3, #46	; 0x2e
20004090:	d10c      	bne.n	200040ac <_svfiprintf_r+0x124>
20004092:	7863      	ldrb	r3, [r4, #1]
20004094:	2b2a      	cmp	r3, #42	; 0x2a
20004096:	d133      	bne.n	20004100 <_svfiprintf_r+0x178>
20004098:	9b03      	ldr	r3, [sp, #12]
2000409a:	3402      	adds	r4, #2
2000409c:	1d1a      	adds	r2, r3, #4
2000409e:	681b      	ldr	r3, [r3, #0]
200040a0:	9203      	str	r2, [sp, #12]
200040a2:	2b00      	cmp	r3, #0
200040a4:	bfb8      	it	lt
200040a6:	f04f 33ff 	movlt.w	r3, #4294967295
200040aa:	9305      	str	r3, [sp, #20]
200040ac:	4e2e      	ldr	r6, [pc, #184]	; (20004168 <_svfiprintf_r+0x1e0>)
200040ae:	2203      	movs	r2, #3
200040b0:	7821      	ldrb	r1, [r4, #0]
200040b2:	4630      	mov	r0, r6
200040b4:	f000 f9ec 	bl	20004490 <memchr>
200040b8:	b138      	cbz	r0, 200040ca <_svfiprintf_r+0x142>
200040ba:	2340      	movs	r3, #64	; 0x40
200040bc:	1b80      	subs	r0, r0, r6
200040be:	fa03 f000 	lsl.w	r0, r3, r0
200040c2:	9b04      	ldr	r3, [sp, #16]
200040c4:	3401      	adds	r4, #1
200040c6:	4303      	orrs	r3, r0
200040c8:	9304      	str	r3, [sp, #16]
200040ca:	f814 1b01 	ldrb.w	r1, [r4], #1
200040ce:	2206      	movs	r2, #6
200040d0:	4826      	ldr	r0, [pc, #152]	; (2000416c <_svfiprintf_r+0x1e4>)
200040d2:	f88d 1028 	strb.w	r1, [sp, #40]	; 0x28
200040d6:	f000 f9db 	bl	20004490 <memchr>
200040da:	2800      	cmp	r0, #0
200040dc:	d038      	beq.n	20004150 <_svfiprintf_r+0x1c8>
200040de:	4b24      	ldr	r3, [pc, #144]	; (20004170 <_svfiprintf_r+0x1e8>)
200040e0:	bb13      	cbnz	r3, 20004128 <_svfiprintf_r+0x1a0>
200040e2:	9b03      	ldr	r3, [sp, #12]
200040e4:	3307      	adds	r3, #7
200040e6:	f023 0307 	bic.w	r3, r3, #7
200040ea:	3308      	adds	r3, #8
200040ec:	9303      	str	r3, [sp, #12]
200040ee:	9b09      	ldr	r3, [sp, #36]	; 0x24
200040f0:	4443      	add	r3, r8
200040f2:	9309      	str	r3, [sp, #36]	; 0x24
200040f4:	e76e      	b.n	20003fd4 <_svfiprintf_r+0x4c>
200040f6:	fb06 3202 	mla	r2, r6, r2, r3
200040fa:	2001      	movs	r0, #1
200040fc:	460c      	mov	r4, r1
200040fe:	e7a8      	b.n	20004052 <_svfiprintf_r+0xca>
20004100:	2300      	movs	r3, #0
20004102:	260a      	movs	r6, #10
20004104:	4619      	mov	r1, r3
20004106:	3401      	adds	r4, #1
20004108:	9305      	str	r3, [sp, #20]
2000410a:	4620      	mov	r0, r4
2000410c:	f810 2b01 	ldrb.w	r2, [r0], #1
20004110:	3a30      	subs	r2, #48	; 0x30
20004112:	2a09      	cmp	r2, #9
20004114:	d903      	bls.n	2000411e <_svfiprintf_r+0x196>
20004116:	2b00      	cmp	r3, #0
20004118:	d0c8      	beq.n	200040ac <_svfiprintf_r+0x124>
2000411a:	9105      	str	r1, [sp, #20]
2000411c:	e7c6      	b.n	200040ac <_svfiprintf_r+0x124>
2000411e:	fb06 2101 	mla	r1, r6, r1, r2
20004122:	2301      	movs	r3, #1
20004124:	4604      	mov	r4, r0
20004126:	e7f0      	b.n	2000410a <_svfiprintf_r+0x182>
20004128:	ab03      	add	r3, sp, #12
2000412a:	9300      	str	r3, [sp, #0]
2000412c:	462a      	mov	r2, r5
2000412e:	4b11      	ldr	r3, [pc, #68]	; (20004174 <_svfiprintf_r+0x1ec>)
20004130:	a904      	add	r1, sp, #16
20004132:	4638      	mov	r0, r7
20004134:	f3af 8000 	nop.w
20004138:	f1b0 3fff 	cmp.w	r0, #4294967295
2000413c:	4680      	mov	r8, r0
2000413e:	d1d6      	bne.n	200040ee <_svfiprintf_r+0x166>
20004140:	89ab      	ldrh	r3, [r5, #12]
20004142:	065b      	lsls	r3, r3, #25
20004144:	f53f af34 	bmi.w	20003fb0 <_svfiprintf_r+0x28>
20004148:	9809      	ldr	r0, [sp, #36]	; 0x24
2000414a:	b01d      	add	sp, #116	; 0x74
2000414c:	e8bd 8ff0 	ldmia.w	sp!, {r4, r5, r6, r7, r8, r9, sl, fp, pc}
20004150:	ab03      	add	r3, sp, #12
20004152:	9300      	str	r3, [sp, #0]
20004154:	462a      	mov	r2, r5
20004156:	4b07      	ldr	r3, [pc, #28]	; (20004174 <_svfiprintf_r+0x1ec>)
20004158:	a904      	add	r1, sp, #16
2000415a:	4638      	mov	r0, r7
2000415c:	f000 f882 	bl	20004264 <_printf_i>
20004160:	e7ea      	b.n	20004138 <_svfiprintf_r+0x1b0>
20004162:	bf00      	nop
20004164:	200049d8 	.word	0x200049d8
20004168:	200049de 	.word	0x200049de
2000416c:	200049e2 	.word	0x200049e2
20004170:	00000000 	.word	0x00000000
20004174:	20003ed1 	.word	0x20003ed1

20004178 <_printf_common>:
_printf_common():
20004178:	e92d 47f0 	stmdb	sp!, {r4, r5, r6, r7, r8, r9, sl, lr}
2000417c:	4691      	mov	r9, r2
2000417e:	461f      	mov	r7, r3
20004180:	688a      	ldr	r2, [r1, #8]
20004182:	690b      	ldr	r3, [r1, #16]
20004184:	4606      	mov	r6, r0
20004186:	4293      	cmp	r3, r2
20004188:	bfb8      	it	lt
2000418a:	4613      	movlt	r3, r2
2000418c:	f8c9 3000 	str.w	r3, [r9]
20004190:	f891 2043 	ldrb.w	r2, [r1, #67]	; 0x43
20004194:	460c      	mov	r4, r1
20004196:	f8dd 8020 	ldr.w	r8, [sp, #32]
2000419a:	b112      	cbz	r2, 200041a2 <_printf_common+0x2a>
2000419c:	3301      	adds	r3, #1
2000419e:	f8c9 3000 	str.w	r3, [r9]
200041a2:	6823      	ldr	r3, [r4, #0]
200041a4:	0699      	lsls	r1, r3, #26
200041a6:	bf42      	ittt	mi
200041a8:	f8d9 3000 	ldrmi.w	r3, [r9]
200041ac:	3302      	addmi	r3, #2
200041ae:	f8c9 3000 	strmi.w	r3, [r9]
200041b2:	6825      	ldr	r5, [r4, #0]
200041b4:	f015 0506 	ands.w	r5, r5, #6
200041b8:	d107      	bne.n	200041ca <_printf_common+0x52>
200041ba:	f104 0a19 	add.w	sl, r4, #25
200041be:	68e3      	ldr	r3, [r4, #12]
200041c0:	f8d9 2000 	ldr.w	r2, [r9]
200041c4:	1a9b      	subs	r3, r3, r2
200041c6:	42ab      	cmp	r3, r5
200041c8:	dc29      	bgt.n	2000421e <_printf_common+0xa6>
200041ca:	f894 3043 	ldrb.w	r3, [r4, #67]	; 0x43
200041ce:	6822      	ldr	r2, [r4, #0]
200041d0:	3300      	adds	r3, #0
200041d2:	bf18      	it	ne
200041d4:	2301      	movne	r3, #1
200041d6:	0692      	lsls	r2, r2, #26
200041d8:	d42e      	bmi.n	20004238 <_printf_common+0xc0>
200041da:	f104 0243 	add.w	r2, r4, #67	; 0x43
200041de:	4639      	mov	r1, r7
200041e0:	4630      	mov	r0, r6
200041e2:	47c0      	blx	r8
200041e4:	3001      	adds	r0, #1
200041e6:	d021      	beq.n	2000422c <_printf_common+0xb4>
200041e8:	6823      	ldr	r3, [r4, #0]
200041ea:	68e5      	ldr	r5, [r4, #12]
200041ec:	f003 0306 	and.w	r3, r3, #6
200041f0:	2b04      	cmp	r3, #4
200041f2:	bf18      	it	ne
200041f4:	2500      	movne	r5, #0
200041f6:	f8d9 2000 	ldr.w	r2, [r9]
200041fa:	f04f 0900 	mov.w	r9, #0
200041fe:	bf08      	it	eq
20004200:	1aad      	subeq	r5, r5, r2
20004202:	68a3      	ldr	r3, [r4, #8]
20004204:	6922      	ldr	r2, [r4, #16]
20004206:	bf08      	it	eq
20004208:	ea25 75e5 	biceq.w	r5, r5, r5, asr #31
2000420c:	4293      	cmp	r3, r2
2000420e:	bfc4      	itt	gt
20004210:	1a9b      	subgt	r3, r3, r2
20004212:	18ed      	addgt	r5, r5, r3
20004214:	341a      	adds	r4, #26
20004216:	454d      	cmp	r5, r9
20004218:	d11a      	bne.n	20004250 <_printf_common+0xd8>
2000421a:	2000      	movs	r0, #0
2000421c:	e008      	b.n	20004230 <_printf_common+0xb8>
2000421e:	2301      	movs	r3, #1
20004220:	4652      	mov	r2, sl
20004222:	4639      	mov	r1, r7
20004224:	4630      	mov	r0, r6
20004226:	47c0      	blx	r8
20004228:	3001      	adds	r0, #1
2000422a:	d103      	bne.n	20004234 <_printf_common+0xbc>
2000422c:	f04f 30ff 	mov.w	r0, #4294967295
20004230:	e8bd 87f0 	ldmia.w	sp!, {r4, r5, r6, r7, r8, r9, sl, pc}
20004234:	3501      	adds	r5, #1
20004236:	e7c2      	b.n	200041be <_printf_common+0x46>
20004238:	2030      	movs	r0, #48	; 0x30
2000423a:	18e1      	adds	r1, r4, r3
2000423c:	f881 0043 	strb.w	r0, [r1, #67]	; 0x43
20004240:	1c5a      	adds	r2, r3, #1
20004242:	f894 1045 	ldrb.w	r1, [r4, #69]	; 0x45
20004246:	4422      	add	r2, r4
20004248:	3302      	adds	r3, #2
2000424a:	f882 1043 	strb.w	r1, [r2, #67]	; 0x43
2000424e:	e7c4      	b.n	200041da <_printf_common+0x62>
20004250:	2301      	movs	r3, #1
20004252:	4622      	mov	r2, r4
20004254:	4639      	mov	r1, r7
20004256:	4630      	mov	r0, r6
20004258:	47c0      	blx	r8
2000425a:	3001      	adds	r0, #1
2000425c:	d0e6      	beq.n	2000422c <_printf_common+0xb4>
2000425e:	f109 0901 	add.w	r9, r9, #1
20004262:	e7d8      	b.n	20004216 <_printf_common+0x9e>

20004264 <_printf_i>:
_printf_i():
20004264:	e92d 43f0 	stmdb	sp!, {r4, r5, r6, r7, r8, r9, lr}
20004268:	4606      	mov	r6, r0
2000426a:	460c      	mov	r4, r1
2000426c:	f101 0043 	add.w	r0, r1, #67	; 0x43
20004270:	7e09      	ldrb	r1, [r1, #24]
20004272:	b085      	sub	sp, #20
20004274:	296e      	cmp	r1, #110	; 0x6e
20004276:	4698      	mov	r8, r3
20004278:	4617      	mov	r7, r2
2000427a:	9b0c      	ldr	r3, [sp, #48]	; 0x30
2000427c:	f000 80bb 	beq.w	200043f6 <_printf_i+0x192>
20004280:	d824      	bhi.n	200042cc <_printf_i+0x68>
20004282:	2963      	cmp	r1, #99	; 0x63
20004284:	d039      	beq.n	200042fa <_printf_i+0x96>
20004286:	d80a      	bhi.n	2000429e <_printf_i+0x3a>
20004288:	2900      	cmp	r1, #0
2000428a:	f000 80c4 	beq.w	20004416 <_printf_i+0x1b2>
2000428e:	2958      	cmp	r1, #88	; 0x58
20004290:	f000 8092 	beq.w	200043b8 <_printf_i+0x154>
20004294:	f104 0542 	add.w	r5, r4, #66	; 0x42
20004298:	f884 1042 	strb.w	r1, [r4, #66]	; 0x42
2000429c:	e035      	b.n	2000430a <_printf_i+0xa6>
2000429e:	2964      	cmp	r1, #100	; 0x64
200042a0:	d001      	beq.n	200042a6 <_printf_i+0x42>
200042a2:	2969      	cmp	r1, #105	; 0x69
200042a4:	d1f6      	bne.n	20004294 <_printf_i+0x30>
200042a6:	6825      	ldr	r5, [r4, #0]
200042a8:	681a      	ldr	r2, [r3, #0]
200042aa:	f015 0f80 	tst.w	r5, #128	; 0x80
200042ae:	f102 0104 	add.w	r1, r2, #4
200042b2:	d02c      	beq.n	2000430e <_printf_i+0xaa>
200042b4:	6812      	ldr	r2, [r2, #0]
200042b6:	6019      	str	r1, [r3, #0]
200042b8:	2a00      	cmp	r2, #0
200042ba:	da03      	bge.n	200042c4 <_printf_i+0x60>
200042bc:	232d      	movs	r3, #45	; 0x2d
200042be:	4252      	negs	r2, r2
200042c0:	f884 3043 	strb.w	r3, [r4, #67]	; 0x43
200042c4:	f8df c1c0 	ldr.w	ip, [pc, #448]	; 20004488 <_printf_i+0x224>
200042c8:	230a      	movs	r3, #10
200042ca:	e03f      	b.n	2000434c <_printf_i+0xe8>
200042cc:	2973      	cmp	r1, #115	; 0x73
200042ce:	f000 80a6 	beq.w	2000441e <_printf_i+0x1ba>
200042d2:	d808      	bhi.n	200042e6 <_printf_i+0x82>
200042d4:	296f      	cmp	r1, #111	; 0x6f
200042d6:	d021      	beq.n	2000431c <_printf_i+0xb8>
200042d8:	2970      	cmp	r1, #112	; 0x70
200042da:	d1db      	bne.n	20004294 <_printf_i+0x30>
200042dc:	6822      	ldr	r2, [r4, #0]
200042de:	f042 0220 	orr.w	r2, r2, #32
200042e2:	6022      	str	r2, [r4, #0]
200042e4:	e003      	b.n	200042ee <_printf_i+0x8a>
200042e6:	2975      	cmp	r1, #117	; 0x75
200042e8:	d018      	beq.n	2000431c <_printf_i+0xb8>
200042ea:	2978      	cmp	r1, #120	; 0x78
200042ec:	d1d2      	bne.n	20004294 <_printf_i+0x30>
200042ee:	2278      	movs	r2, #120	; 0x78
200042f0:	f8df c198 	ldr.w	ip, [pc, #408]	; 2000448c <_printf_i+0x228>
200042f4:	f884 2045 	strb.w	r2, [r4, #69]	; 0x45
200042f8:	e062      	b.n	200043c0 <_printf_i+0x15c>
200042fa:	681a      	ldr	r2, [r3, #0]
200042fc:	f104 0542 	add.w	r5, r4, #66	; 0x42
20004300:	1d11      	adds	r1, r2, #4
20004302:	6019      	str	r1, [r3, #0]
20004304:	6813      	ldr	r3, [r2, #0]
20004306:	f884 3042 	strb.w	r3, [r4, #66]	; 0x42
2000430a:	2301      	movs	r3, #1
2000430c:	e094      	b.n	20004438 <_printf_i+0x1d4>
2000430e:	6812      	ldr	r2, [r2, #0]
20004310:	f015 0f40 	tst.w	r5, #64	; 0x40
20004314:	6019      	str	r1, [r3, #0]
20004316:	bf18      	it	ne
20004318:	b212      	sxthne	r2, r2
2000431a:	e7cd      	b.n	200042b8 <_printf_i+0x54>
2000431c:	f8d4 c000 	ldr.w	ip, [r4]
20004320:	681a      	ldr	r2, [r3, #0]
20004322:	f01c 0f80 	tst.w	ip, #128	; 0x80
20004326:	f102 0504 	add.w	r5, r2, #4
2000432a:	601d      	str	r5, [r3, #0]
2000432c:	d001      	beq.n	20004332 <_printf_i+0xce>
2000432e:	6812      	ldr	r2, [r2, #0]
20004330:	e003      	b.n	2000433a <_printf_i+0xd6>
20004332:	f01c 0f40 	tst.w	ip, #64	; 0x40
20004336:	d0fa      	beq.n	2000432e <_printf_i+0xca>
20004338:	8812      	ldrh	r2, [r2, #0]
2000433a:	296f      	cmp	r1, #111	; 0x6f
2000433c:	bf0c      	ite	eq
2000433e:	2308      	moveq	r3, #8
20004340:	230a      	movne	r3, #10
20004342:	f8df c144 	ldr.w	ip, [pc, #324]	; 20004488 <_printf_i+0x224>
20004346:	2100      	movs	r1, #0
20004348:	f884 1043 	strb.w	r1, [r4, #67]	; 0x43
2000434c:	6865      	ldr	r5, [r4, #4]
2000434e:	2d00      	cmp	r5, #0
20004350:	bfa8      	it	ge
20004352:	6821      	ldrge	r1, [r4, #0]
20004354:	60a5      	str	r5, [r4, #8]
20004356:	bfa4      	itt	ge
20004358:	f021 0104 	bicge.w	r1, r1, #4
2000435c:	6021      	strge	r1, [r4, #0]
2000435e:	b90a      	cbnz	r2, 20004364 <_printf_i+0x100>
20004360:	2d00      	cmp	r5, #0
20004362:	d046      	beq.n	200043f2 <_printf_i+0x18e>
20004364:	4605      	mov	r5, r0
20004366:	fbb2 f1f3 	udiv	r1, r2, r3
2000436a:	fb03 2e11 	mls	lr, r3, r1, r2
2000436e:	f81c e00e 	ldrb.w	lr, [ip, lr]
20004372:	4293      	cmp	r3, r2
20004374:	f805 ed01 	strb.w	lr, [r5, #-1]!
20004378:	d939      	bls.n	200043ee <_printf_i+0x18a>
2000437a:	2b08      	cmp	r3, #8
2000437c:	d10b      	bne.n	20004396 <_printf_i+0x132>
2000437e:	6823      	ldr	r3, [r4, #0]
20004380:	07da      	lsls	r2, r3, #31
20004382:	d508      	bpl.n	20004396 <_printf_i+0x132>
20004384:	6923      	ldr	r3, [r4, #16]
20004386:	6862      	ldr	r2, [r4, #4]
20004388:	429a      	cmp	r2, r3
2000438a:	bfde      	ittt	le
2000438c:	2330      	movle	r3, #48	; 0x30
2000438e:	f805 3c01 	strble.w	r3, [r5, #-1]
20004392:	f105 35ff 	addle.w	r5, r5, #4294967295
20004396:	1b40      	subs	r0, r0, r5
20004398:	6120      	str	r0, [r4, #16]
2000439a:	f8cd 8000 	str.w	r8, [sp]
2000439e:	463b      	mov	r3, r7
200043a0:	aa03      	add	r2, sp, #12
200043a2:	4621      	mov	r1, r4
200043a4:	4630      	mov	r0, r6
200043a6:	f7ff fee7 	bl	20004178 <_printf_common>
200043aa:	3001      	adds	r0, #1
200043ac:	d149      	bne.n	20004442 <_printf_i+0x1de>
200043ae:	f04f 30ff 	mov.w	r0, #4294967295
200043b2:	b005      	add	sp, #20
200043b4:	e8bd 83f0 	ldmia.w	sp!, {r4, r5, r6, r7, r8, r9, pc}
200043b8:	f8df c0cc 	ldr.w	ip, [pc, #204]	; 20004488 <_printf_i+0x224>
200043bc:	f884 1045 	strb.w	r1, [r4, #69]	; 0x45
200043c0:	681d      	ldr	r5, [r3, #0]
200043c2:	6821      	ldr	r1, [r4, #0]
200043c4:	f855 2b04 	ldr.w	r2, [r5], #4
200043c8:	601d      	str	r5, [r3, #0]
200043ca:	060d      	lsls	r5, r1, #24
200043cc:	d50b      	bpl.n	200043e6 <_printf_i+0x182>
200043ce:	07cd      	lsls	r5, r1, #31
200043d0:	bf44      	itt	mi
200043d2:	f041 0120 	orrmi.w	r1, r1, #32
200043d6:	6021      	strmi	r1, [r4, #0]
200043d8:	b91a      	cbnz	r2, 200043e2 <_printf_i+0x17e>
200043da:	6823      	ldr	r3, [r4, #0]
200043dc:	f023 0320 	bic.w	r3, r3, #32
200043e0:	6023      	str	r3, [r4, #0]
200043e2:	2310      	movs	r3, #16
200043e4:	e7af      	b.n	20004346 <_printf_i+0xe2>
200043e6:	064b      	lsls	r3, r1, #25
200043e8:	bf48      	it	mi
200043ea:	b292      	uxthmi	r2, r2
200043ec:	e7ef      	b.n	200043ce <_printf_i+0x16a>
200043ee:	460a      	mov	r2, r1
200043f0:	e7b9      	b.n	20004366 <_printf_i+0x102>
200043f2:	4605      	mov	r5, r0
200043f4:	e7c1      	b.n	2000437a <_printf_i+0x116>
200043f6:	681a      	ldr	r2, [r3, #0]
200043f8:	f8d4 c000 	ldr.w	ip, [r4]
200043fc:	1d15      	adds	r5, r2, #4
200043fe:	6961      	ldr	r1, [r4, #20]
20004400:	f01c 0f80 	tst.w	ip, #128	; 0x80
20004404:	601d      	str	r5, [r3, #0]
20004406:	6813      	ldr	r3, [r2, #0]
20004408:	d001      	beq.n	2000440e <_printf_i+0x1aa>
2000440a:	6019      	str	r1, [r3, #0]
2000440c:	e003      	b.n	20004416 <_printf_i+0x1b2>
2000440e:	f01c 0f40 	tst.w	ip, #64	; 0x40
20004412:	d0fa      	beq.n	2000440a <_printf_i+0x1a6>
20004414:	8019      	strh	r1, [r3, #0]
20004416:	2300      	movs	r3, #0
20004418:	4605      	mov	r5, r0
2000441a:	6123      	str	r3, [r4, #16]
2000441c:	e7bd      	b.n	2000439a <_printf_i+0x136>
2000441e:	681a      	ldr	r2, [r3, #0]
20004420:	1d11      	adds	r1, r2, #4
20004422:	6019      	str	r1, [r3, #0]
20004424:	6815      	ldr	r5, [r2, #0]
20004426:	2100      	movs	r1, #0
20004428:	6862      	ldr	r2, [r4, #4]
2000442a:	4628      	mov	r0, r5
2000442c:	f000 f830 	bl	20004490 <memchr>
20004430:	b108      	cbz	r0, 20004436 <_printf_i+0x1d2>
20004432:	1b40      	subs	r0, r0, r5
20004434:	6060      	str	r0, [r4, #4]
20004436:	6863      	ldr	r3, [r4, #4]
20004438:	6123      	str	r3, [r4, #16]
2000443a:	2300      	movs	r3, #0
2000443c:	f884 3043 	strb.w	r3, [r4, #67]	; 0x43
20004440:	e7ab      	b.n	2000439a <_printf_i+0x136>
20004442:	6923      	ldr	r3, [r4, #16]
20004444:	462a      	mov	r2, r5
20004446:	4639      	mov	r1, r7
20004448:	4630      	mov	r0, r6
2000444a:	47c0      	blx	r8
2000444c:	3001      	adds	r0, #1
2000444e:	d0ae      	beq.n	200043ae <_printf_i+0x14a>
20004450:	6823      	ldr	r3, [r4, #0]
20004452:	079b      	lsls	r3, r3, #30
20004454:	d413      	bmi.n	2000447e <_printf_i+0x21a>
20004456:	68e0      	ldr	r0, [r4, #12]
20004458:	9b03      	ldr	r3, [sp, #12]
2000445a:	4298      	cmp	r0, r3
2000445c:	bfb8      	it	lt
2000445e:	4618      	movlt	r0, r3
20004460:	e7a7      	b.n	200043b2 <_printf_i+0x14e>
20004462:	2301      	movs	r3, #1
20004464:	464a      	mov	r2, r9
20004466:	4639      	mov	r1, r7
20004468:	4630      	mov	r0, r6
2000446a:	47c0      	blx	r8
2000446c:	3001      	adds	r0, #1
2000446e:	d09e      	beq.n	200043ae <_printf_i+0x14a>
20004470:	3501      	adds	r5, #1
20004472:	68e3      	ldr	r3, [r4, #12]
20004474:	9a03      	ldr	r2, [sp, #12]
20004476:	1a9b      	subs	r3, r3, r2
20004478:	42ab      	cmp	r3, r5
2000447a:	dcf2      	bgt.n	20004462 <_printf_i+0x1fe>
2000447c:	e7eb      	b.n	20004456 <_printf_i+0x1f2>
2000447e:	2500      	movs	r5, #0
20004480:	f104 0919 	add.w	r9, r4, #25
20004484:	e7f5      	b.n	20004472 <_printf_i+0x20e>
20004486:	bf00      	nop
20004488:	200049e9 	.word	0x200049e9
2000448c:	200049fa 	.word	0x200049fa

20004490 <memchr>:
memchr():
20004490:	b510      	push	{r4, lr}
20004492:	b2c9      	uxtb	r1, r1
20004494:	4402      	add	r2, r0
20004496:	4290      	cmp	r0, r2
20004498:	4603      	mov	r3, r0
2000449a:	d101      	bne.n	200044a0 <memchr+0x10>
2000449c:	2300      	movs	r3, #0
2000449e:	e003      	b.n	200044a8 <memchr+0x18>
200044a0:	781c      	ldrb	r4, [r3, #0]
200044a2:	3001      	adds	r0, #1
200044a4:	428c      	cmp	r4, r1
200044a6:	d1f6      	bne.n	20004496 <memchr+0x6>
200044a8:	4618      	mov	r0, r3
200044aa:	bd10      	pop	{r4, pc}

200044ac <memmove>:
memmove():
200044ac:	4288      	cmp	r0, r1
200044ae:	b510      	push	{r4, lr}
200044b0:	eb01 0302 	add.w	r3, r1, r2
200044b4:	d902      	bls.n	200044bc <memmove+0x10>
200044b6:	4283      	cmp	r3, r0
200044b8:	461c      	mov	r4, r3
200044ba:	d807      	bhi.n	200044cc <memmove+0x20>
200044bc:	1e42      	subs	r2, r0, #1
200044be:	4299      	cmp	r1, r3
200044c0:	d008      	beq.n	200044d4 <memmove+0x28>
200044c2:	f811 4b01 	ldrb.w	r4, [r1], #1
200044c6:	f802 4f01 	strb.w	r4, [r2, #1]!
200044ca:	e7f8      	b.n	200044be <memmove+0x12>
200044cc:	1883      	adds	r3, r0, r2
200044ce:	1a9a      	subs	r2, r3, r2
200044d0:	429a      	cmp	r2, r3
200044d2:	d100      	bne.n	200044d6 <memmove+0x2a>
200044d4:	bd10      	pop	{r4, pc}
200044d6:	f814 1d01 	ldrb.w	r1, [r4, #-1]!
200044da:	f803 1d01 	strb.w	r1, [r3, #-1]!
200044de:	e7f7      	b.n	200044d0 <memmove+0x24>

200044e0 <_free_r>:
_free_r():
200044e0:	b538      	push	{r3, r4, r5, lr}
200044e2:	4605      	mov	r5, r0
200044e4:	2900      	cmp	r1, #0
200044e6:	d043      	beq.n	20004570 <_free_r+0x90>
200044e8:	f851 3c04 	ldr.w	r3, [r1, #-4]
200044ec:	1f0c      	subs	r4, r1, #4
200044ee:	2b00      	cmp	r3, #0
200044f0:	bfb8      	it	lt
200044f2:	18e4      	addlt	r4, r4, r3
200044f4:	f000 f8d0 	bl	20004698 <__malloc_lock>
200044f8:	4a1e      	ldr	r2, [pc, #120]	; (20004574 <_free_r+0x94>)
200044fa:	6813      	ldr	r3, [r2, #0]
200044fc:	4610      	mov	r0, r2
200044fe:	b933      	cbnz	r3, 2000450e <_free_r+0x2e>
20004500:	6063      	str	r3, [r4, #4]
20004502:	6014      	str	r4, [r2, #0]
20004504:	4628      	mov	r0, r5
20004506:	e8bd 4038 	ldmia.w	sp!, {r3, r4, r5, lr}
2000450a:	f000 b8cb 	b.w	200046a4 <__malloc_unlock>
2000450e:	42a3      	cmp	r3, r4
20004510:	d90b      	bls.n	2000452a <_free_r+0x4a>
20004512:	6821      	ldr	r1, [r4, #0]
20004514:	1862      	adds	r2, r4, r1
20004516:	4293      	cmp	r3, r2
20004518:	bf01      	itttt	eq
2000451a:	681a      	ldreq	r2, [r3, #0]
2000451c:	685b      	ldreq	r3, [r3, #4]
2000451e:	1852      	addeq	r2, r2, r1
20004520:	6022      	streq	r2, [r4, #0]
20004522:	6063      	str	r3, [r4, #4]
20004524:	6004      	str	r4, [r0, #0]
20004526:	e7ed      	b.n	20004504 <_free_r+0x24>
20004528:	4613      	mov	r3, r2
2000452a:	685a      	ldr	r2, [r3, #4]
2000452c:	b10a      	cbz	r2, 20004532 <_free_r+0x52>
2000452e:	42a2      	cmp	r2, r4
20004530:	d9fa      	bls.n	20004528 <_free_r+0x48>
20004532:	6819      	ldr	r1, [r3, #0]
20004534:	1858      	adds	r0, r3, r1
20004536:	42a0      	cmp	r0, r4
20004538:	d10b      	bne.n	20004552 <_free_r+0x72>
2000453a:	6820      	ldr	r0, [r4, #0]
2000453c:	4401      	add	r1, r0
2000453e:	1858      	adds	r0, r3, r1
20004540:	4282      	cmp	r2, r0
20004542:	6019      	str	r1, [r3, #0]
20004544:	d1de      	bne.n	20004504 <_free_r+0x24>
20004546:	6810      	ldr	r0, [r2, #0]
20004548:	6852      	ldr	r2, [r2, #4]
2000454a:	4401      	add	r1, r0
2000454c:	6019      	str	r1, [r3, #0]
2000454e:	605a      	str	r2, [r3, #4]
20004550:	e7d8      	b.n	20004504 <_free_r+0x24>
20004552:	d902      	bls.n	2000455a <_free_r+0x7a>
20004554:	230c      	movs	r3, #12
20004556:	602b      	str	r3, [r5, #0]
20004558:	e7d4      	b.n	20004504 <_free_r+0x24>
2000455a:	6820      	ldr	r0, [r4, #0]
2000455c:	1821      	adds	r1, r4, r0
2000455e:	428a      	cmp	r2, r1
20004560:	bf01      	itttt	eq
20004562:	6811      	ldreq	r1, [r2, #0]
20004564:	6852      	ldreq	r2, [r2, #4]
20004566:	1809      	addeq	r1, r1, r0
20004568:	6021      	streq	r1, [r4, #0]
2000456a:	6062      	str	r2, [r4, #4]
2000456c:	605c      	str	r4, [r3, #4]
2000456e:	e7c9      	b.n	20004504 <_free_r+0x24>
20004570:	bd38      	pop	{r3, r4, r5, pc}
20004572:	bf00      	nop
20004574:	20008114 	.word	0x20008114

20004578 <_malloc_r>:
_malloc_r():
20004578:	b5f8      	push	{r3, r4, r5, r6, r7, lr}
2000457a:	1ccd      	adds	r5, r1, #3
2000457c:	f025 0503 	bic.w	r5, r5, #3
20004580:	3508      	adds	r5, #8
20004582:	2d0c      	cmp	r5, #12
20004584:	bf38      	it	cc
20004586:	250c      	movcc	r5, #12
20004588:	2d00      	cmp	r5, #0
2000458a:	4606      	mov	r6, r0
2000458c:	db01      	blt.n	20004592 <_malloc_r+0x1a>
2000458e:	42a9      	cmp	r1, r5
20004590:	d903      	bls.n	2000459a <_malloc_r+0x22>
20004592:	230c      	movs	r3, #12
20004594:	6033      	str	r3, [r6, #0]
20004596:	2000      	movs	r0, #0
20004598:	bdf8      	pop	{r3, r4, r5, r6, r7, pc}
2000459a:	f000 f87d 	bl	20004698 <__malloc_lock>
2000459e:	4921      	ldr	r1, [pc, #132]	; (20004624 <_malloc_r+0xac>)
200045a0:	680a      	ldr	r2, [r1, #0]
200045a2:	4614      	mov	r4, r2
200045a4:	b99c      	cbnz	r4, 200045ce <_malloc_r+0x56>
200045a6:	4f20      	ldr	r7, [pc, #128]	; (20004628 <_malloc_r+0xb0>)
200045a8:	683b      	ldr	r3, [r7, #0]
200045aa:	b923      	cbnz	r3, 200045b6 <_malloc_r+0x3e>
200045ac:	4621      	mov	r1, r4
200045ae:	4630      	mov	r0, r6
200045b0:	f000 f862 	bl	20004678 <_sbrk_r>
200045b4:	6038      	str	r0, [r7, #0]
200045b6:	4629      	mov	r1, r5
200045b8:	4630      	mov	r0, r6
200045ba:	f000 f85d 	bl	20004678 <_sbrk_r>
200045be:	1c43      	adds	r3, r0, #1
200045c0:	d123      	bne.n	2000460a <_malloc_r+0x92>
200045c2:	230c      	movs	r3, #12
200045c4:	4630      	mov	r0, r6
200045c6:	6033      	str	r3, [r6, #0]
200045c8:	f000 f86c 	bl	200046a4 <__malloc_unlock>
200045cc:	e7e3      	b.n	20004596 <_malloc_r+0x1e>
200045ce:	6823      	ldr	r3, [r4, #0]
200045d0:	1b5b      	subs	r3, r3, r5
200045d2:	d417      	bmi.n	20004604 <_malloc_r+0x8c>
200045d4:	2b0b      	cmp	r3, #11
200045d6:	d903      	bls.n	200045e0 <_malloc_r+0x68>
200045d8:	6023      	str	r3, [r4, #0]
200045da:	441c      	add	r4, r3
200045dc:	6025      	str	r5, [r4, #0]
200045de:	e004      	b.n	200045ea <_malloc_r+0x72>
200045e0:	6863      	ldr	r3, [r4, #4]
200045e2:	42a2      	cmp	r2, r4
200045e4:	bf0c      	ite	eq
200045e6:	600b      	streq	r3, [r1, #0]
200045e8:	6053      	strne	r3, [r2, #4]
200045ea:	4630      	mov	r0, r6
200045ec:	f000 f85a 	bl	200046a4 <__malloc_unlock>
200045f0:	f104 000b 	add.w	r0, r4, #11
200045f4:	1d23      	adds	r3, r4, #4
200045f6:	f020 0007 	bic.w	r0, r0, #7
200045fa:	1ac2      	subs	r2, r0, r3
200045fc:	d0cc      	beq.n	20004598 <_malloc_r+0x20>
200045fe:	1a1b      	subs	r3, r3, r0
20004600:	50a3      	str	r3, [r4, r2]
20004602:	e7c9      	b.n	20004598 <_malloc_r+0x20>
20004604:	4622      	mov	r2, r4
20004606:	6864      	ldr	r4, [r4, #4]
20004608:	e7cc      	b.n	200045a4 <_malloc_r+0x2c>
2000460a:	1cc4      	adds	r4, r0, #3
2000460c:	f024 0403 	bic.w	r4, r4, #3
20004610:	42a0      	cmp	r0, r4
20004612:	d0e3      	beq.n	200045dc <_malloc_r+0x64>
20004614:	1a21      	subs	r1, r4, r0
20004616:	4630      	mov	r0, r6
20004618:	f000 f82e 	bl	20004678 <_sbrk_r>
2000461c:	3001      	adds	r0, #1
2000461e:	d1dd      	bne.n	200045dc <_malloc_r+0x64>
20004620:	e7cf      	b.n	200045c2 <_malloc_r+0x4a>
20004622:	bf00      	nop
20004624:	20008114 	.word	0x20008114
20004628:	20008118 	.word	0x20008118

2000462c <_realloc_r>:
_realloc_r():
2000462c:	b5f8      	push	{r3, r4, r5, r6, r7, lr}
2000462e:	4607      	mov	r7, r0
20004630:	4614      	mov	r4, r2
20004632:	460e      	mov	r6, r1
20004634:	b921      	cbnz	r1, 20004640 <_realloc_r+0x14>
20004636:	4611      	mov	r1, r2
20004638:	e8bd 40f8 	ldmia.w	sp!, {r3, r4, r5, r6, r7, lr}
2000463c:	f7ff bf9c 	b.w	20004578 <_malloc_r>
20004640:	b922      	cbnz	r2, 2000464c <_realloc_r+0x20>
20004642:	f7ff ff4d 	bl	200044e0 <_free_r>
20004646:	4625      	mov	r5, r4
20004648:	4628      	mov	r0, r5
2000464a:	bdf8      	pop	{r3, r4, r5, r6, r7, pc}
2000464c:	f000 f830 	bl	200046b0 <_malloc_usable_size_r>
20004650:	42a0      	cmp	r0, r4
20004652:	d20f      	bcs.n	20004674 <_realloc_r+0x48>
20004654:	4621      	mov	r1, r4
20004656:	4638      	mov	r0, r7
20004658:	f7ff ff8e 	bl	20004578 <_malloc_r>
2000465c:	4605      	mov	r5, r0
2000465e:	2800      	cmp	r0, #0
20004660:	d0f2      	beq.n	20004648 <_realloc_r+0x1c>
20004662:	4631      	mov	r1, r6
20004664:	4622      	mov	r2, r4
20004666:	f7ff fbf1 	bl	20003e4c <memcpy>
2000466a:	4631      	mov	r1, r6
2000466c:	4638      	mov	r0, r7
2000466e:	f7ff ff37 	bl	200044e0 <_free_r>
20004672:	e7e9      	b.n	20004648 <_realloc_r+0x1c>
20004674:	4635      	mov	r5, r6
20004676:	e7e7      	b.n	20004648 <_realloc_r+0x1c>

20004678 <_sbrk_r>:
_sbrk_r():
20004678:	b538      	push	{r3, r4, r5, lr}
2000467a:	2300      	movs	r3, #0
2000467c:	4c05      	ldr	r4, [pc, #20]	; (20004694 <_sbrk_r+0x1c>)
2000467e:	4605      	mov	r5, r0
20004680:	4608      	mov	r0, r1
20004682:	6023      	str	r3, [r4, #0]
20004684:	f7ff fa4a 	bl	20003b1c <_sbrk>
20004688:	1c43      	adds	r3, r0, #1
2000468a:	d102      	bne.n	20004692 <_sbrk_r+0x1a>
2000468c:	6823      	ldr	r3, [r4, #0]
2000468e:	b103      	cbz	r3, 20004692 <_sbrk_r+0x1a>
20004690:	602b      	str	r3, [r5, #0]
20004692:	bd38      	pop	{r3, r4, r5, pc}
20004694:	200081e0 	.word	0x200081e0

20004698 <__malloc_lock>:
__malloc_lock():
20004698:	4801      	ldr	r0, [pc, #4]	; (200046a0 <__malloc_lock+0x8>)
2000469a:	f000 b811 	b.w	200046c0 <__retarget_lock_acquire_recursive>
2000469e:	bf00      	nop
200046a0:	200081e8 	.word	0x200081e8

200046a4 <__malloc_unlock>:
__malloc_unlock():
200046a4:	4801      	ldr	r0, [pc, #4]	; (200046ac <__malloc_unlock+0x8>)
200046a6:	f000 b80c 	b.w	200046c2 <__retarget_lock_release_recursive>
200046aa:	bf00      	nop
200046ac:	200081e8 	.word	0x200081e8

200046b0 <_malloc_usable_size_r>:
_malloc_usable_size_r():
200046b0:	f851 3c04 	ldr.w	r3, [r1, #-4]
200046b4:	1f18      	subs	r0, r3, #4
200046b6:	2b00      	cmp	r3, #0
200046b8:	bfbc      	itt	lt
200046ba:	580b      	ldrlt	r3, [r1, r0]
200046bc:	18c0      	addlt	r0, r0, r3
200046be:	4770      	bx	lr

200046c0 <__retarget_lock_acquire_recursive>:
__retarget_lock_acquire_recursive():
200046c0:	4770      	bx	lr

200046c2 <__retarget_lock_release_recursive>:
__retarget_lock_release_recursive():
200046c2:	4770      	bx	lr
200046c4:	00200040 	.word	0x00200040
200046c8:	00800100 	.word	0x00800100

200046cc <my_ip>:
200046cc:	c8646464 74726175 696e6920 6c616974     ddd.uart initial
200046dc:	64657a69 000d0a21 20746666 74696e69     ized!...fft init
200046ec:	696c6169 2164657a 00000d0a 2063616d     ialized!....mac 
200046fc:	74696e69 696c6169 2164657a 00000d0a     initialized!....
2000470c:	20505241 746e6553 000d0a21 65203d3d     ARP Sent!...== e
2000471c:	79726576 6e696874 73692067 74657320     verything is set
2000472c:	21707520 0a3d3d20 0000000d 6b6e694c      up! ==.....Link
2000473c:	3a736920 00000020 0d215055 0000000a      is: ...UP!.....
2000474c:	20202020 624d3031 00207370 20202020         10Mbps .    
2000475c:	4d303031 20737062 00000000 20202020     100Mbps ....    
2000476c:	30303031 7370624d 00000020 20202020     1000Mbps ...    
2000477c:	65706f6e 00000020 6c6c7546 70754420     nope ...Full Dup
2000478c:	0d78656c 0000000a 666c6148 70754420     lex.....Half Dup
2000479c:	0d78656c 0000000a 4e574f44 000a0d21     lex.....DOWN!...
200047ac:	3d3d3d3d 3d3d3d3d 3d3d3d3d 48500a0d     ============..PH
200047bc:	45522059 54534947 0d535245 0000000a     Y REGISTERS.....
200047cc:	20796870 20676572 3a206425 0d782520     phy reg %d : %x.
200047dc:	0000000a 3d3d3d3d 3d3d3d3d 3d3d3d3d     ....============
200047ec:	00000a0d 3d3d3d3d 3d3d3d3d 0a0d3d3d     ....==========..
200047fc:	74617473 73207375 74726174 0a0d6465     status started..
2000480c:	00000000 55504e49 45522054 0d594441     ....INPUT READY.
2000481c:	0000000a 55504e49 55462054 0a0d4c4c     ....INPUT FULL..
2000482c:	00000000 5054554f 52205455 59444145     ....OUTPUT READY
2000483c:	00000a0d 5054554f 56205455 44494c41     ....OUTPUT VALID
2000484c:	00000a0d 20534241 554c4156 41562045     ....ABS VALUE VA
2000485c:	0d44494c 0000000a 45544e49 50555252     LID.....INTERRUP
2000486c:	43412054 45564954 00000a0d 3d3d3d3d     T ACTIVE....====
2000487c:	3d3d3d3d 0a0d3d3d 746e6f63 206c6f72     ======..control 
2000488c:	69676572 72657473 00000a0d 54495257     register....WRIT
2000489c:	4e452045 454c4241 000a0d44 54495257     E ENABLED...WRIT
200048ac:	4f442045 0a0d454e 00000000 44414552     E DONE......READ
200048bc:	4e4f4420 000a0d45 4f545541 41455220      DONE...AUTO REA
200048cc:	4f442044 0a0d454e 00000000 74617473     D DONE......stat
200048dc:	66207375 73696e69 0d646568 3d3d3d0a     us finished..===
200048ec:	3d3d3d3d 0d3d3d3d 0000000a              =======.....

200048f8 <g_config_reg_lut>:
200048f8:	40013000 40013004 40013008 4001300c     .0.@.0.@.0.@.0.@
20004908:	40013010 40013014 40013018 4001301c     .0.@.0.@.0.@.0.@
20004918:	40013020 40013024 40013028 4001302c      0.@$0.@(0.@,0.@
20004928:	40013030 40013034 40013038 4001303c     00.@40.@80.@<0.@
20004938:	40013040 40013044 40013048 4001304c     @0.@D0.@H0.@L0.@
20004948:	40013050 40013054 40013058 4001305c     P0.@T0.@X0.@\0.@
20004958:	40013060 40013064 40013068 4001306c     `0.@d0.@h0.@l0.@
20004968:	40013070 40013074 40013078 4001307c     p0.@t0.@x0.@|0.@

20004978 <g_gpio_irqn_lut>:
20004978:	35343332 39383736 3d3c3b3a 41403f3e     23456789:;<=>?@A
20004988:	45444342 49484746 4d4c4b4a 51504f4e     BCDEFGHIJKLMNOPQ

20004998 <g_default_mac_address.6394>:
20004998:	883cb1c0 00008888 70616548 646e6120     ..<.....Heap and
200049a8:	61747320 63206b63 696c6c6f 6e6f6973      stack collision
200049b8:	0000000a 2074754f 6820666f 20706165     ....Out of heap 
200049c8:	6f6d656d 000a7972 01000100 03030202     memory..........
200049d8:	2b302d23 6c680020 6665004c 47464567     #-0+ .hlL.efgEFG
200049e8:	32313000 36353433 41393837 45444342     .0123456789ABCDE
200049f8:	31300046 35343332 39383736 64636261     F.0123456789abcd
20004a08:	00006665                                ef..

20004a0c <_init>:
_init():
20004a0c:	b5f8      	push	{r3, r4, r5, r6, r7, lr}
20004a0e:	bf00      	nop
20004a10:	bcf8      	pop	{r3, r4, r5, r6, r7}
20004a12:	bc08      	pop	{r3}
20004a14:	469e      	mov	lr, r3
20004a16:	4770      	bx	lr

20004a18 <_fini>:
_fini():
20004a18:	b5f8      	push	{r3, r4, r5, r6, r7, lr}
20004a1a:	bf00      	nop
20004a1c:	bcf8      	pop	{r3, r4, r5, r6, r7}
20004a1e:	bc08      	pop	{r3}
20004a20:	469e      	mov	lr, r3
20004a22:	4770      	bx	lr

20004a24 <__frame_dummy_init_array_entry>:
__preinit_array_start():
20004a24:	0519 2000                                   ... 

20004a28 <__do_global_dtors_aux_fini_array_entry>:
__init_array_end():
20004a28:	04f1 2000 0000 0000                         ... ....
